ARM GAS  C:\Users\zacfi\AppData\Local\Temp\ccazi6oi.s 			page 1


   1              		.cpu cortex-m4
   2              		.eabi_attribute 27, 1
   3              		.eabi_attribute 28, 1
   4              		.eabi_attribute 20, 1
   5              		.eabi_attribute 21, 1
   6              		.eabi_attribute 23, 3
   7              		.eabi_attribute 24, 1
   8              		.eabi_attribute 25, 1
   9              		.eabi_attribute 26, 1
  10              		.eabi_attribute 30, 1
  11              		.eabi_attribute 34, 1
  12              		.eabi_attribute 18, 4
  13              		.file	"aiSystemPerformance.c"
  14              		.text
  15              	.Ltext0:
  16              		.cfi_sections	.debug_frame
  17              		.section	.text.user_observer_cb,"ax",%progbits
  18              		.align	1
  19              		.arch armv7e-m
  20              		.syntax unified
  21              		.thumb
  22              		.thumb_func
  23              		.fpu fpv4-sp-d16
  25              	user_observer_cb:
  26              	.LVL0:
  27              	.LFB143:
  28              		.file 1 "X-CUBE-AI/App/aiSystemPerformance.c"
   1:X-CUBE-AI/App/aiSystemPerformance.c **** /**
   2:X-CUBE-AI/App/aiSystemPerformance.c ****  ******************************************************************************
   3:X-CUBE-AI/App/aiSystemPerformance.c ****  * @file    aiSystemPerformance.c
   4:X-CUBE-AI/App/aiSystemPerformance.c ****  * @author  MCD Vertical Application Team
   5:X-CUBE-AI/App/aiSystemPerformance.c ****  * @brief   Entry points for AI system performance application (multiple network)
   6:X-CUBE-AI/App/aiSystemPerformance.c ****  ******************************************************************************
   7:X-CUBE-AI/App/aiSystemPerformance.c ****  * @attention
   8:X-CUBE-AI/App/aiSystemPerformance.c ****  *
   9:X-CUBE-AI/App/aiSystemPerformance.c ****  * <h2><center>&copy; Copyright (c) 2020 STMicroelectronics.
  10:X-CUBE-AI/App/aiSystemPerformance.c ****  * All rights reserved.</center></h2>
  11:X-CUBE-AI/App/aiSystemPerformance.c ****  *
  12:X-CUBE-AI/App/aiSystemPerformance.c ****  * This software component is licensed by ST under Ultimate Liberty license
  13:X-CUBE-AI/App/aiSystemPerformance.c ****  * SLA0044, the "License"; You may not use this file except in compliance with
  14:X-CUBE-AI/App/aiSystemPerformance.c ****  * the License. You may obtain a copy of the License at:
  15:X-CUBE-AI/App/aiSystemPerformance.c ****  *                             www.st.com/SLA0044
  16:X-CUBE-AI/App/aiSystemPerformance.c ****  *
  17:X-CUBE-AI/App/aiSystemPerformance.c ****  ******************************************************************************
  18:X-CUBE-AI/App/aiSystemPerformance.c ****  */
  19:X-CUBE-AI/App/aiSystemPerformance.c **** 
  20:X-CUBE-AI/App/aiSystemPerformance.c **** /*
  21:X-CUBE-AI/App/aiSystemPerformance.c ****  * Description:
  22:X-CUBE-AI/App/aiSystemPerformance.c ****  *
  23:X-CUBE-AI/App/aiSystemPerformance.c ****  * - Simple STM32 application to measure and report the system performance of
  24:X-CUBE-AI/App/aiSystemPerformance.c ****  *   a generated NN
  25:X-CUBE-AI/App/aiSystemPerformance.c ****  * - Use the multiple-network API
  26:X-CUBE-AI/App/aiSystemPerformance.c ****  * - Random input values are injected in the NN to measure the inference time
  27:X-CUBE-AI/App/aiSystemPerformance.c ****  *   and to monitor the usage of the stack and/or the heap. Output value are
  28:X-CUBE-AI/App/aiSystemPerformance.c ****  *   skipped.
  29:X-CUBE-AI/App/aiSystemPerformance.c ****  * - After N iterations (_APP_ITER_ C-define), results are reported through a
  30:X-CUBE-AI/App/aiSystemPerformance.c ****  *   re-target printf
ARM GAS  C:\Users\zacfi\AppData\Local\Temp\ccazi6oi.s 			page 2


  31:X-CUBE-AI/App/aiSystemPerformance.c ****  * - aiSystemPerformanceInit()/aiSystemPerformanceProcess() functions should
  32:X-CUBE-AI/App/aiSystemPerformance.c ****  *   be called from the main application code.
  33:X-CUBE-AI/App/aiSystemPerformance.c ****  * - Only UART (to re-target the printf) & CORE clock setting are expected
  34:X-CUBE-AI/App/aiSystemPerformance.c ****  *   by the initial run-time (main function).
  35:X-CUBE-AI/App/aiSystemPerformance.c ****  *   CRC IP should be also enabled
  36:X-CUBE-AI/App/aiSystemPerformance.c ****  *
  37:X-CUBE-AI/App/aiSystemPerformance.c ****  * STM32CubeIDE (GCC-base toolchain)
  38:X-CUBE-AI/App/aiSystemPerformance.c ****  *  - Linker options "-Wl,--wrap=malloc -Wl,--wrap=free" should be used
  39:X-CUBE-AI/App/aiSystemPerformance.c ****  *    to support the HEAP monitoring
  40:X-CUBE-AI/App/aiSystemPerformance.c ****  *
  41:X-CUBE-AI/App/aiSystemPerformance.c ****  * TODO:
  42:X-CUBE-AI/App/aiSystemPerformance.c ****  *  - (nice-to_have) add HEAP monitoring for IAR tool-chain
  43:X-CUBE-AI/App/aiSystemPerformance.c ****  *  - (nice-to-have) add HEAP/STACK monitoring MDK-ARM Keil tool-chain
  44:X-CUBE-AI/App/aiSystemPerformance.c ****  *
  45:X-CUBE-AI/App/aiSystemPerformance.c ****  * History:
  46:X-CUBE-AI/App/aiSystemPerformance.c ****  *  - v1.0 - Initial version
  47:X-CUBE-AI/App/aiSystemPerformance.c ****  *  - v1.1 - Complete minimal interactive console
  48:X-CUBE-AI/App/aiSystemPerformance.c ****  *  - v1.2 - Adding STM32H7 MCU support
  49:X-CUBE-AI/App/aiSystemPerformance.c ****  *  - v1.3 - Adding STM32F3 MCU support
  50:X-CUBE-AI/App/aiSystemPerformance.c ****  *  - v1.4 - Adding Profiling mode
  51:X-CUBE-AI/App/aiSystemPerformance.c ****  *  - v2.0 - Adding Multiple Network support
  52:X-CUBE-AI/App/aiSystemPerformance.c ****  *  - v2.1 - Adding F3 str description
  53:X-CUBE-AI/App/aiSystemPerformance.c ****  *  - v3.0 - Adding FXP support
  54:X-CUBE-AI/App/aiSystemPerformance.c ****  *           Adding initial multiple IO support (legacy mode)
  55:X-CUBE-AI/App/aiSystemPerformance.c ****  *           Removing compile-time STM32 family checking
  56:X-CUBE-AI/App/aiSystemPerformance.c ****  *  - v3.1 - Fix cycle count overflow
  57:X-CUBE-AI/App/aiSystemPerformance.c ****  *           Add support for external memory for data activations
  58:X-CUBE-AI/App/aiSystemPerformance.c ****  *  - v4.0 - Adding multiple IO support
  59:X-CUBE-AI/App/aiSystemPerformance.c ****  *  - v4.1 - Adding L5 support
  60:X-CUBE-AI/App/aiSystemPerformance.c ****  *  - v4.2 - Adding support for inputs in activations buffer
  61:X-CUBE-AI/App/aiSystemPerformance.c ****  *  - v4.3 - Fix - fill input samples loop + HAL_delay report
  62:X-CUBE-AI/App/aiSystemPerformance.c ****  *  - v4.4 - Complete dev_id str description
  63:X-CUBE-AI/App/aiSystemPerformance.c ****  *  - v5.0 - Add inference time by layer (with runtime observer API support)
  64:X-CUBE-AI/App/aiSystemPerformance.c ****  *           Improve reported network info (minor)
  65:X-CUBE-AI/App/aiSystemPerformance.c ****  *           Fix stack calculation (minor)
  66:X-CUBE-AI/App/aiSystemPerformance.c ****  *  - v5.1 - Create separate C-files (aiTestUtility/aiTestHelper) for common (non AI)
  67:X-CUBE-AI/App/aiSystemPerformance.c ****  *           functions with aiValidation firmware.
  68:X-CUBE-AI/App/aiSystemPerformance.c ****  *           Align aiBootstrap/aiInit/aiDeInit functions with aiValidation.c
  69:X-CUBE-AI/App/aiSystemPerformance.c ****  *           Adding support for outputs in activations buffer.
  70:X-CUBE-AI/App/aiSystemPerformance.c ****  */
  71:X-CUBE-AI/App/aiSystemPerformance.c **** 
  72:X-CUBE-AI/App/aiSystemPerformance.c **** /* System headers */
  73:X-CUBE-AI/App/aiSystemPerformance.c **** #include <stdint.h>
  74:X-CUBE-AI/App/aiSystemPerformance.c **** #include <stdlib.h>
  75:X-CUBE-AI/App/aiSystemPerformance.c **** #include <stdio.h>
  76:X-CUBE-AI/App/aiSystemPerformance.c **** #include <inttypes.h>
  77:X-CUBE-AI/App/aiSystemPerformance.c **** #include <string.h>
  78:X-CUBE-AI/App/aiSystemPerformance.c **** 
  79:X-CUBE-AI/App/aiSystemPerformance.c **** #define USE_OBSERVER         1 /* 0: remove the registration of the user CB to evaluate the inferen
  80:X-CUBE-AI/App/aiSystemPerformance.c **** #define USE_CORE_CLOCK_ONLY  0 /* 1: remove usage of the HAL_GetTick() to evaluate the number of CP
  81:X-CUBE-AI/App/aiSystemPerformance.c ****                                 *    HAL_Tick() is requested to avoid an overflow with the DWT cloc
  82:X-CUBE-AI/App/aiSystemPerformance.c ****                                 */
  83:X-CUBE-AI/App/aiSystemPerformance.c **** 
  84:X-CUBE-AI/App/aiSystemPerformance.c **** #if !defined(APP_DEBUG)
  85:X-CUBE-AI/App/aiSystemPerformance.c **** #define APP_DEBUG     	     0 /* 1: add debug trace - application level */
  86:X-CUBE-AI/App/aiSystemPerformance.c **** #endif
  87:X-CUBE-AI/App/aiSystemPerformance.c **** 
ARM GAS  C:\Users\zacfi\AppData\Local\Temp\ccazi6oi.s 			page 3


  88:X-CUBE-AI/App/aiSystemPerformance.c **** #if defined(USE_CORE_CLOCK_ONLY) && USE_CORE_CLOCK_ONLY == 1
  89:X-CUBE-AI/App/aiSystemPerformance.c **** #define _APP_FIX_CLK_OVERFLOW 0
  90:X-CUBE-AI/App/aiSystemPerformance.c **** #else
  91:X-CUBE-AI/App/aiSystemPerformance.c **** #define _APP_FIX_CLK_OVERFLOW 1
  92:X-CUBE-AI/App/aiSystemPerformance.c **** #endif
  93:X-CUBE-AI/App/aiSystemPerformance.c **** 
  94:X-CUBE-AI/App/aiSystemPerformance.c **** /* APP header files */
  95:X-CUBE-AI/App/aiSystemPerformance.c **** #include <aiSystemPerformance.h>
  96:X-CUBE-AI/App/aiSystemPerformance.c **** #include <aiTestUtility.h>
  97:X-CUBE-AI/App/aiSystemPerformance.c **** #include <aiTestHelper.h>
  98:X-CUBE-AI/App/aiSystemPerformance.c **** 
  99:X-CUBE-AI/App/aiSystemPerformance.c **** 
 100:X-CUBE-AI/App/aiSystemPerformance.c **** /* AI Run-time header files */
 101:X-CUBE-AI/App/aiSystemPerformance.c **** #include "ai_platform_interface.h"
 102:X-CUBE-AI/App/aiSystemPerformance.c **** 
 103:X-CUBE-AI/App/aiSystemPerformance.c **** /* AI x-cube-ai files */
 104:X-CUBE-AI/App/aiSystemPerformance.c **** #include "app_x-cube-ai.h"
 105:X-CUBE-AI/App/aiSystemPerformance.c **** 
 106:X-CUBE-AI/App/aiSystemPerformance.c **** 
 107:X-CUBE-AI/App/aiSystemPerformance.c **** /* -----------------------------------------------------------------------------
 108:X-CUBE-AI/App/aiSystemPerformance.c ****  * TEST-related definitions
 109:X-CUBE-AI/App/aiSystemPerformance.c ****  * -----------------------------------------------------------------------------
 110:X-CUBE-AI/App/aiSystemPerformance.c ****  */
 111:X-CUBE-AI/App/aiSystemPerformance.c **** 
 112:X-CUBE-AI/App/aiSystemPerformance.c **** #define _APP_VERSION_MAJOR_     (0x05)
 113:X-CUBE-AI/App/aiSystemPerformance.c **** #define _APP_VERSION_MINOR_     (0x01)
 114:X-CUBE-AI/App/aiSystemPerformance.c **** #define _APP_VERSION_   ((_APP_VERSION_MAJOR_ << 8) | _APP_VERSION_MINOR_)
 115:X-CUBE-AI/App/aiSystemPerformance.c **** 
 116:X-CUBE-AI/App/aiSystemPerformance.c **** #define _APP_NAME_      "AI system performance measurement"
 117:X-CUBE-AI/App/aiSystemPerformance.c **** #define _APP_ITER_       16  /* number of iteration for perf. test */
 118:X-CUBE-AI/App/aiSystemPerformance.c **** 
 119:X-CUBE-AI/App/aiSystemPerformance.c **** 
 120:X-CUBE-AI/App/aiSystemPerformance.c **** /* Global variables */
 121:X-CUBE-AI/App/aiSystemPerformance.c **** static bool observer_mode = true;
 122:X-CUBE-AI/App/aiSystemPerformance.c **** static bool profiling_mode = false;
 123:X-CUBE-AI/App/aiSystemPerformance.c **** static int  profiling_factor = 5;
 124:X-CUBE-AI/App/aiSystemPerformance.c **** 
 125:X-CUBE-AI/App/aiSystemPerformance.c **** 
 126:X-CUBE-AI/App/aiSystemPerformance.c **** /* -----------------------------------------------------------------------------
 127:X-CUBE-AI/App/aiSystemPerformance.c ****  * AI-related functions
 128:X-CUBE-AI/App/aiSystemPerformance.c ****  * -----------------------------------------------------------------------------
 129:X-CUBE-AI/App/aiSystemPerformance.c ****  */
 130:X-CUBE-AI/App/aiSystemPerformance.c **** 
 131:X-CUBE-AI/App/aiSystemPerformance.c **** DEF_DATA_IN;
 132:X-CUBE-AI/App/aiSystemPerformance.c **** 
 133:X-CUBE-AI/App/aiSystemPerformance.c **** DEF_DATA_OUT;
 134:X-CUBE-AI/App/aiSystemPerformance.c **** 
 135:X-CUBE-AI/App/aiSystemPerformance.c **** struct ai_network_exec_ctx {
 136:X-CUBE-AI/App/aiSystemPerformance.c ****   ai_handle handle;
 137:X-CUBE-AI/App/aiSystemPerformance.c ****   ai_network_report report;
 138:X-CUBE-AI/App/aiSystemPerformance.c **** } net_exec_ctx[AI_MNETWORK_NUMBER] = {0};
 139:X-CUBE-AI/App/aiSystemPerformance.c **** 
 140:X-CUBE-AI/App/aiSystemPerformance.c **** 
 141:X-CUBE-AI/App/aiSystemPerformance.c **** #if AI_MNETWORK_DATA_ACTIVATIONS_INT_SIZE != 0
 142:X-CUBE-AI/App/aiSystemPerformance.c **** AI_ALIGNED(32)
 143:X-CUBE-AI/App/aiSystemPerformance.c **** static ai_u8 activations[AI_MNETWORK_DATA_ACTIVATIONS_INT_SIZE];
 144:X-CUBE-AI/App/aiSystemPerformance.c **** #endif
ARM GAS  C:\Users\zacfi\AppData\Local\Temp\ccazi6oi.s 			page 4


 145:X-CUBE-AI/App/aiSystemPerformance.c **** 
 146:X-CUBE-AI/App/aiSystemPerformance.c **** static int aiBootstrap(struct ai_network_exec_ctx *ctx, const char *nn_name)
 147:X-CUBE-AI/App/aiSystemPerformance.c **** {
 148:X-CUBE-AI/App/aiSystemPerformance.c ****   ai_error err;
 149:X-CUBE-AI/App/aiSystemPerformance.c ****   ai_u32 ext_addr;
 150:X-CUBE-AI/App/aiSystemPerformance.c ****   ai_u32 sz;
 151:X-CUBE-AI/App/aiSystemPerformance.c **** 
 152:X-CUBE-AI/App/aiSystemPerformance.c ****   /* Creating the instance of the  network ------------------------- */
 153:X-CUBE-AI/App/aiSystemPerformance.c ****   printf("Creating the network \"%s\"..\r\n", nn_name);
 154:X-CUBE-AI/App/aiSystemPerformance.c **** 
 155:X-CUBE-AI/App/aiSystemPerformance.c ****   err = ai_mnetwork_create(nn_name, &ctx->handle, NULL);
 156:X-CUBE-AI/App/aiSystemPerformance.c ****   if (err.type) {
 157:X-CUBE-AI/App/aiSystemPerformance.c ****     aiLogErr(err, "ai_mnetwork_create");
 158:X-CUBE-AI/App/aiSystemPerformance.c ****     return -1;
 159:X-CUBE-AI/App/aiSystemPerformance.c ****   }
 160:X-CUBE-AI/App/aiSystemPerformance.c **** 
 161:X-CUBE-AI/App/aiSystemPerformance.c ****   /* Initialize the instance --------------------------------------- */
 162:X-CUBE-AI/App/aiSystemPerformance.c ****   printf("Initializing the network\r\n");
 163:X-CUBE-AI/App/aiSystemPerformance.c **** 
 164:X-CUBE-AI/App/aiSystemPerformance.c ****   if (ai_mnetwork_get_info(ctx->handle,
 165:X-CUBE-AI/App/aiSystemPerformance.c ****       &ctx->report)) {
 166:X-CUBE-AI/App/aiSystemPerformance.c ****   } else {
 167:X-CUBE-AI/App/aiSystemPerformance.c ****     err = ai_mnetwork_get_error(ctx->handle);
 168:X-CUBE-AI/App/aiSystemPerformance.c ****     aiLogErr(err, "ai_mnetwork_get_info");
 169:X-CUBE-AI/App/aiSystemPerformance.c ****     ai_mnetwork_destroy(ctx->handle);
 170:X-CUBE-AI/App/aiSystemPerformance.c ****     ctx->handle = AI_HANDLE_NULL;
 171:X-CUBE-AI/App/aiSystemPerformance.c ****     return -2;
 172:X-CUBE-AI/App/aiSystemPerformance.c ****   }
 173:X-CUBE-AI/App/aiSystemPerformance.c **** 
 174:X-CUBE-AI/App/aiSystemPerformance.c ****   /* Addresses of the weights and activations buffers
 175:X-CUBE-AI/App/aiSystemPerformance.c ****    *
 176:X-CUBE-AI/App/aiSystemPerformance.c ****    * - @ of the weights buffer is always provided by the multiple network wrapper
 177:X-CUBE-AI/App/aiSystemPerformance.c ****    *   thanks to the ai_<network>_data_weights_get() function (see app_x-cube-ai.c file
 178:X-CUBE-AI/App/aiSystemPerformance.c ****    *   generated by the X-CUBE-AI plug-in).
 179:X-CUBE-AI/App/aiSystemPerformance.c ****    * - @ of the activations buffer can be a local buffer (activations object) or a buffer
 180:X-CUBE-AI/App/aiSystemPerformance.c ****    *   located in the external memory (network dependent feature). For the last case,
 181:X-CUBE-AI/App/aiSystemPerformance.c ****    *   the address (hard-coded @) is defined by the X-CUBE-AI plug-in and stored in the
 182:X-CUBE-AI/App/aiSystemPerformance.c ****    *   multiple network structure (see app_x-cube-ai.c file, ai_network_entry_t definition).
 183:X-CUBE-AI/App/aiSystemPerformance.c ****    *   0xFFFFFFFF indicates that the local buffer should be used.
 184:X-CUBE-AI/App/aiSystemPerformance.c ****    */
 185:X-CUBE-AI/App/aiSystemPerformance.c ****   ai_network_params params = {
 186:X-CUBE-AI/App/aiSystemPerformance.c ****       AI_BUFFER_NULL(NULL),
 187:X-CUBE-AI/App/aiSystemPerformance.c ****       AI_BUFFER_NULL(NULL)
 188:X-CUBE-AI/App/aiSystemPerformance.c ****   };
 189:X-CUBE-AI/App/aiSystemPerformance.c **** 
 190:X-CUBE-AI/App/aiSystemPerformance.c ****   if (ai_mnetwork_get_ext_data_activations(ctx->handle, &ext_addr, &sz) == 0) {
 191:X-CUBE-AI/App/aiSystemPerformance.c ****     if (ext_addr == 0xFFFFFFFF) {
 192:X-CUBE-AI/App/aiSystemPerformance.c **** #if AI_MNETWORK_DATA_ACTIVATIONS_INT_SIZE != 0
 193:X-CUBE-AI/App/aiSystemPerformance.c ****       params.activations.data = (ai_handle)activations;
 194:X-CUBE-AI/App/aiSystemPerformance.c ****       if (sz > AI_MNETWORK_DATA_ACTIVATIONS_INT_SIZE) {
 195:X-CUBE-AI/App/aiSystemPerformance.c ****         printf("E: APP error (aiBootstrap for %s) - size of the local activations buffer is not eno
 196:X-CUBE-AI/App/aiSystemPerformance.c ****             nn_name);
 197:X-CUBE-AI/App/aiSystemPerformance.c ****         ai_mnetwork_destroy(ctx->handle);
 198:X-CUBE-AI/App/aiSystemPerformance.c ****         ctx->handle = AI_HANDLE_NULL;
 199:X-CUBE-AI/App/aiSystemPerformance.c ****         return -5;
 200:X-CUBE-AI/App/aiSystemPerformance.c ****       }
 201:X-CUBE-AI/App/aiSystemPerformance.c **** #else
ARM GAS  C:\Users\zacfi\AppData\Local\Temp\ccazi6oi.s 			page 5


 202:X-CUBE-AI/App/aiSystemPerformance.c ****       if (ctx->report.activations.channels != 0) {
 203:X-CUBE-AI/App/aiSystemPerformance.c ****         printf("E: APP error (aiBootstrap for %s) - a local activations buffer is requested\r\n",
 204:X-CUBE-AI/App/aiSystemPerformance.c ****             nn_name);
 205:X-CUBE-AI/App/aiSystemPerformance.c ****         ai_mnetwork_destroy(ctx->handle);
 206:X-CUBE-AI/App/aiSystemPerformance.c ****         ctx->handle = AI_HANDLE_NULL;
 207:X-CUBE-AI/App/aiSystemPerformance.c ****         return -5;
 208:X-CUBE-AI/App/aiSystemPerformance.c ****       } else {
 209:X-CUBE-AI/App/aiSystemPerformance.c ****         params.activations.data = AI_HANDLE_NULL;
 210:X-CUBE-AI/App/aiSystemPerformance.c ****       }
 211:X-CUBE-AI/App/aiSystemPerformance.c **** #endif
 212:X-CUBE-AI/App/aiSystemPerformance.c ****     }
 213:X-CUBE-AI/App/aiSystemPerformance.c ****     else {
 214:X-CUBE-AI/App/aiSystemPerformance.c ****       params.activations.data = (ai_handle)ext_addr;
 215:X-CUBE-AI/App/aiSystemPerformance.c ****     }
 216:X-CUBE-AI/App/aiSystemPerformance.c ****   }
 217:X-CUBE-AI/App/aiSystemPerformance.c **** 
 218:X-CUBE-AI/App/aiSystemPerformance.c ****   if (!ai_mnetwork_init(ctx->handle, &params)) {
 219:X-CUBE-AI/App/aiSystemPerformance.c ****     err = ai_mnetwork_get_error(ctx->handle);
 220:X-CUBE-AI/App/aiSystemPerformance.c ****     aiLogErr(err, "ai_mnetwork_init");
 221:X-CUBE-AI/App/aiSystemPerformance.c ****     ai_mnetwork_destroy(ctx->handle);
 222:X-CUBE-AI/App/aiSystemPerformance.c ****     ctx->handle = AI_HANDLE_NULL;
 223:X-CUBE-AI/App/aiSystemPerformance.c ****     return -4;
 224:X-CUBE-AI/App/aiSystemPerformance.c ****   }
 225:X-CUBE-AI/App/aiSystemPerformance.c **** 
 226:X-CUBE-AI/App/aiSystemPerformance.c ****   /* Display the network info -------------------------------------- */
 227:X-CUBE-AI/App/aiSystemPerformance.c ****   if (ai_mnetwork_get_info(ctx->handle,
 228:X-CUBE-AI/App/aiSystemPerformance.c ****       &ctx->report)) {
 229:X-CUBE-AI/App/aiSystemPerformance.c ****     aiPrintNetworkInfo(&ctx->report);
 230:X-CUBE-AI/App/aiSystemPerformance.c ****   } else {
 231:X-CUBE-AI/App/aiSystemPerformance.c ****     err = ai_mnetwork_get_error(ctx->handle);
 232:X-CUBE-AI/App/aiSystemPerformance.c ****     aiLogErr(err, "ai_mnetwork_get_info");
 233:X-CUBE-AI/App/aiSystemPerformance.c ****     ai_mnetwork_destroy(ctx->handle);
 234:X-CUBE-AI/App/aiSystemPerformance.c ****     ctx->handle = AI_HANDLE_NULL;
 235:X-CUBE-AI/App/aiSystemPerformance.c ****     return -2;
 236:X-CUBE-AI/App/aiSystemPerformance.c ****   }
 237:X-CUBE-AI/App/aiSystemPerformance.c **** 
 238:X-CUBE-AI/App/aiSystemPerformance.c ****   return 0;
 239:X-CUBE-AI/App/aiSystemPerformance.c **** }
 240:X-CUBE-AI/App/aiSystemPerformance.c **** 
 241:X-CUBE-AI/App/aiSystemPerformance.c **** static int aiInit(void)
 242:X-CUBE-AI/App/aiSystemPerformance.c **** {
 243:X-CUBE-AI/App/aiSystemPerformance.c ****   int res = -1;
 244:X-CUBE-AI/App/aiSystemPerformance.c ****   const char *nn_name;
 245:X-CUBE-AI/App/aiSystemPerformance.c ****   int idx;
 246:X-CUBE-AI/App/aiSystemPerformance.c **** 
 247:X-CUBE-AI/App/aiSystemPerformance.c ****   aiPlatformVersion();
 248:X-CUBE-AI/App/aiSystemPerformance.c **** 
 249:X-CUBE-AI/App/aiSystemPerformance.c ****   /* Reset the contexts -------------------------------------------- */
 250:X-CUBE-AI/App/aiSystemPerformance.c ****   for (idx=0; idx < AI_MNETWORK_NUMBER; idx++) {
 251:X-CUBE-AI/App/aiSystemPerformance.c ****     net_exec_ctx[idx].handle = AI_HANDLE_NULL;
 252:X-CUBE-AI/App/aiSystemPerformance.c ****   }
 253:X-CUBE-AI/App/aiSystemPerformance.c **** 
 254:X-CUBE-AI/App/aiSystemPerformance.c ****   /* Discover and initialize the network(s) ------------------------ */
 255:X-CUBE-AI/App/aiSystemPerformance.c ****   printf("Discovering the network(s)...\r\n");
 256:X-CUBE-AI/App/aiSystemPerformance.c **** 
 257:X-CUBE-AI/App/aiSystemPerformance.c ****   idx = 0;
 258:X-CUBE-AI/App/aiSystemPerformance.c ****   do {
ARM GAS  C:\Users\zacfi\AppData\Local\Temp\ccazi6oi.s 			page 6


 259:X-CUBE-AI/App/aiSystemPerformance.c ****     nn_name = ai_mnetwork_find(NULL, idx);
 260:X-CUBE-AI/App/aiSystemPerformance.c ****     if (nn_name) {
 261:X-CUBE-AI/App/aiSystemPerformance.c ****       printf("\r\nFound network \"%s\"\r\n", nn_name);
 262:X-CUBE-AI/App/aiSystemPerformance.c ****       res = aiBootstrap(&net_exec_ctx[idx], nn_name);
 263:X-CUBE-AI/App/aiSystemPerformance.c ****       if (res)
 264:X-CUBE-AI/App/aiSystemPerformance.c ****         nn_name = NULL;
 265:X-CUBE-AI/App/aiSystemPerformance.c ****     }
 266:X-CUBE-AI/App/aiSystemPerformance.c ****     idx++;
 267:X-CUBE-AI/App/aiSystemPerformance.c ****   } while (nn_name);
 268:X-CUBE-AI/App/aiSystemPerformance.c **** 
 269:X-CUBE-AI/App/aiSystemPerformance.c ****   return res;
 270:X-CUBE-AI/App/aiSystemPerformance.c **** }
 271:X-CUBE-AI/App/aiSystemPerformance.c **** 
 272:X-CUBE-AI/App/aiSystemPerformance.c **** static void aiDeInit(void)
 273:X-CUBE-AI/App/aiSystemPerformance.c **** {
 274:X-CUBE-AI/App/aiSystemPerformance.c ****   ai_error err;
 275:X-CUBE-AI/App/aiSystemPerformance.c ****   int idx;
 276:X-CUBE-AI/App/aiSystemPerformance.c **** 
 277:X-CUBE-AI/App/aiSystemPerformance.c ****   /* Releasing the instance(s) ------------------------------------- */
 278:X-CUBE-AI/App/aiSystemPerformance.c ****   printf("Releasing the instance(s)...\r\n");
 279:X-CUBE-AI/App/aiSystemPerformance.c **** 
 280:X-CUBE-AI/App/aiSystemPerformance.c ****   for (idx=0; idx<AI_MNETWORK_NUMBER; idx++) {
 281:X-CUBE-AI/App/aiSystemPerformance.c ****     if (net_exec_ctx[idx].handle != AI_HANDLE_NULL) {
 282:X-CUBE-AI/App/aiSystemPerformance.c ****       if (ai_mnetwork_destroy(net_exec_ctx[idx].handle)
 283:X-CUBE-AI/App/aiSystemPerformance.c ****           != AI_HANDLE_NULL) {
 284:X-CUBE-AI/App/aiSystemPerformance.c ****         err = ai_mnetwork_get_error(net_exec_ctx[idx].handle);
 285:X-CUBE-AI/App/aiSystemPerformance.c ****         aiLogErr(err, "ai_mnetwork_destroy");
 286:X-CUBE-AI/App/aiSystemPerformance.c ****       }
 287:X-CUBE-AI/App/aiSystemPerformance.c ****       net_exec_ctx[idx].handle = AI_HANDLE_NULL;
 288:X-CUBE-AI/App/aiSystemPerformance.c ****     }
 289:X-CUBE-AI/App/aiSystemPerformance.c ****   }
 290:X-CUBE-AI/App/aiSystemPerformance.c **** }
 291:X-CUBE-AI/App/aiSystemPerformance.c **** 
 292:X-CUBE-AI/App/aiSystemPerformance.c **** 
 293:X-CUBE-AI/App/aiSystemPerformance.c **** #if defined(USE_OBSERVER) && USE_OBSERVER == 1
 294:X-CUBE-AI/App/aiSystemPerformance.c **** 
 295:X-CUBE-AI/App/aiSystemPerformance.c **** struct u_node_stat {
 296:X-CUBE-AI/App/aiSystemPerformance.c ****   uint64_t dur;
 297:X-CUBE-AI/App/aiSystemPerformance.c ****   uint32_t n_runs;
 298:X-CUBE-AI/App/aiSystemPerformance.c **** };
 299:X-CUBE-AI/App/aiSystemPerformance.c **** 
 300:X-CUBE-AI/App/aiSystemPerformance.c **** struct u_observer_ctx {
 301:X-CUBE-AI/App/aiSystemPerformance.c ****   uint64_t n_cb;
 302:X-CUBE-AI/App/aiSystemPerformance.c ****   uint64_t start_t;
 303:X-CUBE-AI/App/aiSystemPerformance.c ****   uint64_t u_dur_t;
 304:X-CUBE-AI/App/aiSystemPerformance.c ****   uint64_t k_dur_t;
 305:X-CUBE-AI/App/aiSystemPerformance.c ****   struct u_node_stat *nodes;
 306:X-CUBE-AI/App/aiSystemPerformance.c **** };
 307:X-CUBE-AI/App/aiSystemPerformance.c **** 
 308:X-CUBE-AI/App/aiSystemPerformance.c **** static struct u_observer_ctx u_observer_ctx;
 309:X-CUBE-AI/App/aiSystemPerformance.c **** 
 310:X-CUBE-AI/App/aiSystemPerformance.c **** /* User callback */
 311:X-CUBE-AI/App/aiSystemPerformance.c **** static ai_u32 user_observer_cb(const ai_handle cookie,
 312:X-CUBE-AI/App/aiSystemPerformance.c ****     const ai_u32 flags,
 313:X-CUBE-AI/App/aiSystemPerformance.c ****     const ai_observer_node *node) {
  29              		.loc 1 313 35 view -0
  30              		.cfi_startproc
ARM GAS  C:\Users\zacfi\AppData\Local\Temp\ccazi6oi.s 			page 7


  31              		@ args = 0, pretend = 0, frame = 8
  32              		@ frame_needed = 0, uses_anonymous_args = 0
  33              		@ link register save eliminated.
  34              		.loc 1 313 35 is_stmt 0 view .LVU1
  35 0000 70B4     		push	{r4, r5, r6}
  36              	.LCFI0:
  37              		.cfi_def_cfa_offset 12
  38              		.cfi_offset 4, -12
  39              		.cfi_offset 5, -8
  40              		.cfi_offset 6, -4
  41 0002 83B0     		sub	sp, sp, #12
  42              	.LCFI1:
  43              		.cfi_def_cfa_offset 24
  44 0004 0346     		mov	r3, r0
  45 0006 0D46     		mov	r5, r1
 314:X-CUBE-AI/App/aiSystemPerformance.c **** 
 315:X-CUBE-AI/App/aiSystemPerformance.c ****   struct u_observer_ctx *u_obs;
  46              		.loc 1 315 3 is_stmt 1 view .LVU2
 316:X-CUBE-AI/App/aiSystemPerformance.c **** 
 317:X-CUBE-AI/App/aiSystemPerformance.c ****   volatile uint64_t ts = dwtGetCycles(); /* time stamp entry */
  47              		.loc 1 317 3 view .LVU3
  48              	.LBB42:
  49              	.LBI42:
  50              		.file 2 "X-CUBE-AI/App/aiTestUtility.h"
   1:X-CUBE-AI/App/aiTestUtility.h **** /**
   2:X-CUBE-AI/App/aiTestUtility.h ****  ******************************************************************************
   3:X-CUBE-AI/App/aiTestUtility.h ****  * @file    aiTestUtility.h
   4:X-CUBE-AI/App/aiTestUtility.h ****  * @author  MCD Vertical Application Team
   5:X-CUBE-AI/App/aiTestUtility.h ****  * @brief   STM32 Utility functions for STM32 AI test application
   6:X-CUBE-AI/App/aiTestUtility.h ****  ******************************************************************************
   7:X-CUBE-AI/App/aiTestUtility.h ****  * @attention
   8:X-CUBE-AI/App/aiTestUtility.h ****  *
   9:X-CUBE-AI/App/aiTestUtility.h ****  * <h2><center>&copy; Copyright (c) 2020 STMicroelectronics.
  10:X-CUBE-AI/App/aiTestUtility.h ****  * All rights reserved.</center></h2>
  11:X-CUBE-AI/App/aiTestUtility.h ****  *
  12:X-CUBE-AI/App/aiTestUtility.h ****  * This software component is licensed by ST under Ultimate Liberty license
  13:X-CUBE-AI/App/aiTestUtility.h ****  * SLA0044, the "License"; You may not use this file except in compliance with
  14:X-CUBE-AI/App/aiTestUtility.h ****  * the License. You may obtain a copy of the License at:
  15:X-CUBE-AI/App/aiTestUtility.h ****  *                             www.st.com/SLA0044
  16:X-CUBE-AI/App/aiTestUtility.h ****  *
  17:X-CUBE-AI/App/aiTestUtility.h ****  ******************************************************************************
  18:X-CUBE-AI/App/aiTestUtility.h ****  */
  19:X-CUBE-AI/App/aiTestUtility.h **** 
  20:X-CUBE-AI/App/aiTestUtility.h **** #ifndef __AI_TEST_UTILITY_H__
  21:X-CUBE-AI/App/aiTestUtility.h **** #define __AI_TEST_UTILITY_H__
  22:X-CUBE-AI/App/aiTestUtility.h **** 
  23:X-CUBE-AI/App/aiTestUtility.h **** #include <stdint.h>
  24:X-CUBE-AI/App/aiTestUtility.h **** #include <stdbool.h>
  25:X-CUBE-AI/App/aiTestUtility.h **** 
  26:X-CUBE-AI/App/aiTestUtility.h **** #include <bsp_ai.h>  /* generated STM32 platform file to import the HAL and the UART definition */
  27:X-CUBE-AI/App/aiTestUtility.h **** 
  28:X-CUBE-AI/App/aiTestUtility.h **** 
  29:X-CUBE-AI/App/aiTestUtility.h **** #ifdef __cplusplus
  30:X-CUBE-AI/App/aiTestUtility.h **** extern "C" {
  31:X-CUBE-AI/App/aiTestUtility.h **** #endif
  32:X-CUBE-AI/App/aiTestUtility.h **** 
  33:X-CUBE-AI/App/aiTestUtility.h **** #if defined (__ARMCC_VERSION) && (__ARMCC_VERSION >= 6010050) /* Keil ARM Compiler 6 toolchain */
ARM GAS  C:\Users\zacfi\AppData\Local\Temp\ccazi6oi.s 			page 8


  34:X-CUBE-AI/App/aiTestUtility.h **** #define _APP_STACK_MONITOR_ 0   /* not yet supported */
  35:X-CUBE-AI/App/aiTestUtility.h **** #define _APP_HEAP_MONITOR_  0   /* not yet supported */	
  36:X-CUBE-AI/App/aiTestUtility.h **** #elif defined(__GNUC__) && !defined (__ARMCC_VERSION) /* GNU GCC toolchain */
  37:X-CUBE-AI/App/aiTestUtility.h **** #define _APP_STACK_MONITOR_ 1
  38:X-CUBE-AI/App/aiTestUtility.h **** #define _APP_HEAP_MONITOR_  1
  39:X-CUBE-AI/App/aiTestUtility.h **** #elif defined (__ICCARM__) /* IAR toolchain */
  40:X-CUBE-AI/App/aiTestUtility.h **** #define _APP_STACK_MONITOR_ 1
  41:X-CUBE-AI/App/aiTestUtility.h **** #define _APP_HEAP_MONITOR_  0   /* not yet supported */
  42:X-CUBE-AI/App/aiTestUtility.h **** #else
  43:X-CUBE-AI/App/aiTestUtility.h **** #define _APP_STACK_MONITOR_ 0   /* not yet supported */
  44:X-CUBE-AI/App/aiTestUtility.h **** #define _APP_HEAP_MONITOR_  0   /* not yet supported */
  45:X-CUBE-AI/App/aiTestUtility.h **** #endif
  46:X-CUBE-AI/App/aiTestUtility.h **** 
  47:X-CUBE-AI/App/aiTestUtility.h **** 
  48:X-CUBE-AI/App/aiTestUtility.h **** #if defined(CHECK_STM32_FAMILY)
  49:X-CUBE-AI/App/aiTestUtility.h **** #if !defined(STM32F7) && !defined(STM32L4) && !defined(STM32L5) && !defined(STM32F4) && !defined(ST
  50:X-CUBE-AI/App/aiTestUtility.h **** #error Only STM32H7, STM32F7, STM32F4, STM32L4, STM32L5 or STM32F3 device are supported
  51:X-CUBE-AI/App/aiTestUtility.h **** #endif
  52:X-CUBE-AI/App/aiTestUtility.h **** #endif
  53:X-CUBE-AI/App/aiTestUtility.h **** 
  54:X-CUBE-AI/App/aiTestUtility.h **** /* -----------------------------------------------------------------------------
  55:X-CUBE-AI/App/aiTestUtility.h ****  * MISC definitions
  56:X-CUBE-AI/App/aiTestUtility.h ****  * -----------------------------------------------------------------------------
  57:X-CUBE-AI/App/aiTestUtility.h ****  */
  58:X-CUBE-AI/App/aiTestUtility.h **** 
  59:X-CUBE-AI/App/aiTestUtility.h **** #define _CONCAT_ARG(a, b)     a ## b
  60:X-CUBE-AI/App/aiTestUtility.h **** #define _CONCAT(a, b)         _CONCAT_ARG(a, b)
  61:X-CUBE-AI/App/aiTestUtility.h **** 
  62:X-CUBE-AI/App/aiTestUtility.h **** #if defined(_MSC_VER)
  63:X-CUBE-AI/App/aiTestUtility.h ****   #define MEM_ALIGNED(x)
  64:X-CUBE-AI/App/aiTestUtility.h **** #elif defined(__ICCARM__) || defined (__IAR_SYSTEMS_ICC__)
  65:X-CUBE-AI/App/aiTestUtility.h ****   #define MEM_ALIGNED(x)         _CONCAT(MEM_ALIGNED_,x)
  66:X-CUBE-AI/App/aiTestUtility.h ****   #define MEM_ALIGNED_1          _Pragma("data_alignment = 1")
  67:X-CUBE-AI/App/aiTestUtility.h ****   #define MEM_ALIGNED_2          _Pragma("data_alignment = 2")
  68:X-CUBE-AI/App/aiTestUtility.h ****   #define MEM_ALIGNED_4          _Pragma("data_alignment = 4")
  69:X-CUBE-AI/App/aiTestUtility.h ****   #define MEM_ALIGNED_8          _Pragma("data_alignment = 8")
  70:X-CUBE-AI/App/aiTestUtility.h ****   #define MEM_ALIGNED_16         _Pragma("data_alignment = 16")
  71:X-CUBE-AI/App/aiTestUtility.h **** #elif defined(__CC_ARM)
  72:X-CUBE-AI/App/aiTestUtility.h ****   #define MEM_ALIGNED(x)         __attribute__((aligned (x)))
  73:X-CUBE-AI/App/aiTestUtility.h **** #elif defined(__GNUC__)
  74:X-CUBE-AI/App/aiTestUtility.h ****   #define MEM_ALIGNED(x)         __attribute__((aligned(x)))
  75:X-CUBE-AI/App/aiTestUtility.h **** #else
  76:X-CUBE-AI/App/aiTestUtility.h ****   #define MEM_ALIGNED(x)
  77:X-CUBE-AI/App/aiTestUtility.h **** #endif
  78:X-CUBE-AI/App/aiTestUtility.h **** 
  79:X-CUBE-AI/App/aiTestUtility.h **** /* -----------------------------------------------------------------------------
  80:X-CUBE-AI/App/aiTestUtility.h ****  * HEAP monitor functions
  81:X-CUBE-AI/App/aiTestUtility.h ****  * -----------------------------------------------------------------------------
  82:X-CUBE-AI/App/aiTestUtility.h ****  */
  83:X-CUBE-AI/App/aiTestUtility.h **** 
  84:X-CUBE-AI/App/aiTestUtility.h **** #define _IO_MALLOC_TRACK_MODE 0  /* allows to track the allocated/released @/s */
  85:X-CUBE-AI/App/aiTestUtility.h **** #define _IO_MALLOC_TRACK_DEPTH_SIZE (16)
  86:X-CUBE-AI/App/aiTestUtility.h **** 
  87:X-CUBE-AI/App/aiTestUtility.h **** struct io_malloc {
  88:X-CUBE-AI/App/aiTestUtility.h ****   uint32_t cfg;           /* configuration and state */
  89:X-CUBE-AI/App/aiTestUtility.h ****   uint32_t alloc;         /* accumulated size of allocated memory */
  90:X-CUBE-AI/App/aiTestUtility.h ****   uint32_t free;          /* accumulated size of freed memory */
ARM GAS  C:\Users\zacfi\AppData\Local\Temp\ccazi6oi.s 			page 9


  91:X-CUBE-AI/App/aiTestUtility.h ****   uint32_t alloc_req;     /* number of requested alloc */
  92:X-CUBE-AI/App/aiTestUtility.h ****   uint32_t free_req;      /* number of requested free */
  93:X-CUBE-AI/App/aiTestUtility.h ****   uint32_t max;           /* maximum allocated memory */
  94:X-CUBE-AI/App/aiTestUtility.h ****   uint32_t used;          /* current allocated memory */
  95:X-CUBE-AI/App/aiTestUtility.h **** #if _IO_MALLOC_TRACK_MODE == 1
  96:X-CUBE-AI/App/aiTestUtility.h ****   void* a_ptr[_IO_MALLOC_TRACK_DEPTH_SIZE];
  97:X-CUBE-AI/App/aiTestUtility.h ****   size_t a_s[_IO_MALLOC_TRACK_DEPTH_SIZE];
  98:X-CUBE-AI/App/aiTestUtility.h ****   int a_idx;
  99:X-CUBE-AI/App/aiTestUtility.h ****   void *f_ptr[_IO_MALLOC_TRACK_DEPTH_SIZE];
 100:X-CUBE-AI/App/aiTestUtility.h ****   size_t f_s[_IO_MALLOC_TRACK_DEPTH_SIZE];
 101:X-CUBE-AI/App/aiTestUtility.h ****   int f_idx;
 102:X-CUBE-AI/App/aiTestUtility.h **** #endif
 103:X-CUBE-AI/App/aiTestUtility.h **** };
 104:X-CUBE-AI/App/aiTestUtility.h **** 
 105:X-CUBE-AI/App/aiTestUtility.h **** extern struct io_malloc io_malloc;
 106:X-CUBE-AI/App/aiTestUtility.h **** 
 107:X-CUBE-AI/App/aiTestUtility.h **** 
 108:X-CUBE-AI/App/aiTestUtility.h **** #if defined(__GNUC__) && !defined(__ARMCC_VERSION)
 109:X-CUBE-AI/App/aiTestUtility.h **** #define MON_ALLOC_RESET()\
 110:X-CUBE-AI/App/aiTestUtility.h ****     memset(&io_malloc, 0, sizeof(struct io_malloc));\
 111:X-CUBE-AI/App/aiTestUtility.h ****     /* force a call of wrap functions */\
 112:X-CUBE-AI/App/aiTestUtility.h ****     free(malloc(10))
 113:X-CUBE-AI/App/aiTestUtility.h **** #else
 114:X-CUBE-AI/App/aiTestUtility.h **** #define MON_ALLOC_RESET()
 115:X-CUBE-AI/App/aiTestUtility.h **** #endif
 116:X-CUBE-AI/App/aiTestUtility.h **** 
 117:X-CUBE-AI/App/aiTestUtility.h **** #if defined(_APP_HEAP_MONITOR_) && _APP_HEAP_MONITOR_ == 1
 118:X-CUBE-AI/App/aiTestUtility.h **** 
 119:X-CUBE-AI/App/aiTestUtility.h **** #define MON_ALLOC_ENABLE() io_malloc.cfg |= 1UL
 120:X-CUBE-AI/App/aiTestUtility.h **** 
 121:X-CUBE-AI/App/aiTestUtility.h **** #define MON_ALLOC_DISABLE() io_malloc.cfg &= ~1UL
 122:X-CUBE-AI/App/aiTestUtility.h **** 
 123:X-CUBE-AI/App/aiTestUtility.h **** #define MON_ALLOC_REPORT() \
 124:X-CUBE-AI/App/aiTestUtility.h ****     printf(" used heap    : %ld:%ld %ld:%ld (req:allocated,req:released) max=%ld cur=%ld (cfg=%ld)\
 125:X-CUBE-AI/App/aiTestUtility.h ****         io_malloc.alloc_req, io_malloc.alloc, \
 126:X-CUBE-AI/App/aiTestUtility.h ****         io_malloc.free_req, io_malloc.free, \
 127:X-CUBE-AI/App/aiTestUtility.h ****         io_malloc.max, io_malloc.used, \
 128:X-CUBE-AI/App/aiTestUtility.h ****         (io_malloc.cfg & (3 << 1)) >> 1)
 129:X-CUBE-AI/App/aiTestUtility.h **** 
 130:X-CUBE-AI/App/aiTestUtility.h **** #define MON_ALLOC_MAX_USED() (int)io_malloc.max
 131:X-CUBE-AI/App/aiTestUtility.h **** #define MON_ALLOC_USED() (int)io_malloc.used
 132:X-CUBE-AI/App/aiTestUtility.h **** 
 133:X-CUBE-AI/App/aiTestUtility.h **** #else
 134:X-CUBE-AI/App/aiTestUtility.h **** 
 135:X-CUBE-AI/App/aiTestUtility.h **** #define MON_ALLOC_ENABLE()
 136:X-CUBE-AI/App/aiTestUtility.h **** #define MON_ALLOC_DISABLE()
 137:X-CUBE-AI/App/aiTestUtility.h **** 
 138:X-CUBE-AI/App/aiTestUtility.h **** #define MON_ALLOC_REPORT() \
 139:X-CUBE-AI/App/aiTestUtility.h ****     printf(" used heap    : DISABLED or NOT YET SUPPORTED\r\n")
 140:X-CUBE-AI/App/aiTestUtility.h **** 
 141:X-CUBE-AI/App/aiTestUtility.h **** #define MON_ALLOC_MAX_USED() (-1)
 142:X-CUBE-AI/App/aiTestUtility.h **** #define MON_ALLOC_USED() (-1)
 143:X-CUBE-AI/App/aiTestUtility.h **** 
 144:X-CUBE-AI/App/aiTestUtility.h **** #endif
 145:X-CUBE-AI/App/aiTestUtility.h **** 
 146:X-CUBE-AI/App/aiTestUtility.h **** 
 147:X-CUBE-AI/App/aiTestUtility.h **** /* -----------------------------------------------------------------------------
ARM GAS  C:\Users\zacfi\AppData\Local\Temp\ccazi6oi.s 			page 10


 148:X-CUBE-AI/App/aiTestUtility.h ****  * STACK monitor functions
 149:X-CUBE-AI/App/aiTestUtility.h ****  * -----------------------------------------------------------------------------
 150:X-CUBE-AI/App/aiTestUtility.h ****  */
 151:X-CUBE-AI/App/aiTestUtility.h **** 
 152:X-CUBE-AI/App/aiTestUtility.h **** struct io_stack {
 153:X-CUBE-AI/App/aiTestUtility.h ****   uint32_t ctrl;
 154:X-CUBE-AI/App/aiTestUtility.h ****   bool stack_mon;
 155:X-CUBE-AI/App/aiTestUtility.h ****   int32_t  susage;
 156:X-CUBE-AI/App/aiTestUtility.h **** 
 157:X-CUBE-AI/App/aiTestUtility.h ****   uint32_t ustack_size; /* used stack before test */
 158:X-CUBE-AI/App/aiTestUtility.h ****   uint32_t estack;      /* end of stack @ */
 159:X-CUBE-AI/App/aiTestUtility.h ****   uint32_t mstack_size; /* minimal master stack size */
 160:X-CUBE-AI/App/aiTestUtility.h ****   uint32_t cstack;      /* current stack @ */
 161:X-CUBE-AI/App/aiTestUtility.h ****   uint32_t bstack;      /* base stack @ */
 162:X-CUBE-AI/App/aiTestUtility.h **** };
 163:X-CUBE-AI/App/aiTestUtility.h **** 
 164:X-CUBE-AI/App/aiTestUtility.h **** extern struct io_stack io_stack;
 165:X-CUBE-AI/App/aiTestUtility.h **** 
 166:X-CUBE-AI/App/aiTestUtility.h **** void stackMonInit(uint32_t ctrl, uint32_t cstack, uint32_t msize);
 167:X-CUBE-AI/App/aiTestUtility.h **** 
 168:X-CUBE-AI/App/aiTestUtility.h **** #if defined(_APP_STACK_MONITOR_) && _APP_STACK_MONITOR_ == 1
 169:X-CUBE-AI/App/aiTestUtility.h **** 
 170:X-CUBE-AI/App/aiTestUtility.h **** #define MON_STACK_INIT() stackMonInit(__get_CONTROL(), __get_MSP(), MIN_STACK_SIZE)
 171:X-CUBE-AI/App/aiTestUtility.h **** 
 172:X-CUBE-AI/App/aiTestUtility.h **** #define MON_STACK_MARK()\
 173:X-CUBE-AI/App/aiTestUtility.h ****     if (io_stack.stack_mon) {\
 174:X-CUBE-AI/App/aiTestUtility.h ****       uint32_t *pw =  (uint32_t*)((io_stack.bstack + 3) & (~3));\
 175:X-CUBE-AI/App/aiTestUtility.h ****       while ((uint32_t)pw < io_stack.cstack) {\
 176:X-CUBE-AI/App/aiTestUtility.h ****         *pw = 0xDEDEDEDE;\
 177:X-CUBE-AI/App/aiTestUtility.h ****         pw++;\
 178:X-CUBE-AI/App/aiTestUtility.h ****       }\
 179:X-CUBE-AI/App/aiTestUtility.h ****     }
 180:X-CUBE-AI/App/aiTestUtility.h **** 
 181:X-CUBE-AI/App/aiTestUtility.h **** #define MON_STACK_CHECK0()\
 182:X-CUBE-AI/App/aiTestUtility.h ****     if (__get_MSP() != io_stack.cstack) {\
 183:X-CUBE-AI/App/aiTestUtility.h ****       printf("E: !current stack address is not coherent 0x%08lx instead 0x%08lx\r\n",\
 184:X-CUBE-AI/App/aiTestUtility.h ****           __get_MSP(), io_stack.cstack);\
 185:X-CUBE-AI/App/aiTestUtility.h ****     }
 186:X-CUBE-AI/App/aiTestUtility.h **** 
 187:X-CUBE-AI/App/aiTestUtility.h **** #define MON_STACK_EVALUATE()\
 188:X-CUBE-AI/App/aiTestUtility.h ****     /* Calculating the used stack */\
 189:X-CUBE-AI/App/aiTestUtility.h ****     io_stack.susage = 0UL;\
 190:X-CUBE-AI/App/aiTestUtility.h ****     if (io_stack.stack_mon) {\
 191:X-CUBE-AI/App/aiTestUtility.h ****       uint32_t rstack = io_stack.mstack_size - io_stack.ustack_size;\
 192:X-CUBE-AI/App/aiTestUtility.h ****       uint32_t *pr =  (uint32_t*)((io_stack.bstack + 3) & (~3));\
 193:X-CUBE-AI/App/aiTestUtility.h ****       bool overflow = false;\
 194:X-CUBE-AI/App/aiTestUtility.h ****       \
 195:X-CUBE-AI/App/aiTestUtility.h ****       /* check potential stack overflow with 8 last words*/\
 196:X-CUBE-AI/App/aiTestUtility.h ****     for (int i = 0; i < 8; i++) {\
 197:X-CUBE-AI/App/aiTestUtility.h ****       if (*pr != 0xDEDEDEDE)\
 198:X-CUBE-AI/App/aiTestUtility.h ****       overflow = true;\
 199:X-CUBE-AI/App/aiTestUtility.h ****       pr++;\
 200:X-CUBE-AI/App/aiTestUtility.h ****     }\
 201:X-CUBE-AI/App/aiTestUtility.h ****     if (!overflow) {\
 202:X-CUBE-AI/App/aiTestUtility.h ****       io_stack.susage = 8*4;\
 203:X-CUBE-AI/App/aiTestUtility.h ****       while ((*pr == 0xDEDEDEDE) && ((uint32_t)pr < io_stack.cstack)) { pr++; io_stack.susage += 4;
 204:X-CUBE-AI/App/aiTestUtility.h ****       io_stack.susage = rstack - io_stack.susage;\
ARM GAS  C:\Users\zacfi\AppData\Local\Temp\ccazi6oi.s 			page 11


 205:X-CUBE-AI/App/aiTestUtility.h ****     } else {\
 206:X-CUBE-AI/App/aiTestUtility.h ****       io_stack.susage = -1;\
 207:X-CUBE-AI/App/aiTestUtility.h ****       printf("E: !stack overflow detected > %ld\r\n", rstack);\
 208:X-CUBE-AI/App/aiTestUtility.h ****       printf("note: MIN_STACK_SIZE value/definition should be verified (app_x-cube-ai.h & linker fi
 209:X-CUBE-AI/App/aiTestUtility.h ****     }\
 210:X-CUBE-AI/App/aiTestUtility.h ****     }
 211:X-CUBE-AI/App/aiTestUtility.h **** 
 212:X-CUBE-AI/App/aiTestUtility.h **** #define MON_STACK_REPORT()\
 213:X-CUBE-AI/App/aiTestUtility.h ****     if (io_stack.stack_mon)\
 214:X-CUBE-AI/App/aiTestUtility.h ****     printf(" used stack   : %ld bytes\r\n", io_stack.susage);\
 215:X-CUBE-AI/App/aiTestUtility.h ****     else\
 216:X-CUBE-AI/App/aiTestUtility.h ****     printf(" used stack   : NOT CALCULATED\r\n")
 217:X-CUBE-AI/App/aiTestUtility.h **** 
 218:X-CUBE-AI/App/aiTestUtility.h **** #define MON_STACK_STATE(msg)\
 219:X-CUBE-AI/App/aiTestUtility.h ****     printf("D: %s (0x%08lx-0x%08lx %ld/%ld ctrl=0x%08lx\r\n",msg,\
 220:X-CUBE-AI/App/aiTestUtility.h ****         io_stack.estack, io_stack.cstack, io_stack.ustack_size, io_stack.mstack_size, io_stack.ctrl
 221:X-CUBE-AI/App/aiTestUtility.h **** 
 222:X-CUBE-AI/App/aiTestUtility.h **** #else
 223:X-CUBE-AI/App/aiTestUtility.h **** 
 224:X-CUBE-AI/App/aiTestUtility.h **** #define MON_STACK_INIT()
 225:X-CUBE-AI/App/aiTestUtility.h **** #define MON_STACK_MARK()
 226:X-CUBE-AI/App/aiTestUtility.h **** #define MON_STACK_CHECK0()
 227:X-CUBE-AI/App/aiTestUtility.h **** #define MON_STACK_EVALUATE()
 228:X-CUBE-AI/App/aiTestUtility.h **** 
 229:X-CUBE-AI/App/aiTestUtility.h **** #define MON_STACK_REPORT()\
 230:X-CUBE-AI/App/aiTestUtility.h ****     printf(" used stack   : DISABLED\r\n");
 231:X-CUBE-AI/App/aiTestUtility.h **** 
 232:X-CUBE-AI/App/aiTestUtility.h **** #define MON_STACK_STATE(msg);
 233:X-CUBE-AI/App/aiTestUtility.h **** 
 234:X-CUBE-AI/App/aiTestUtility.h **** #endif
 235:X-CUBE-AI/App/aiTestUtility.h **** 
 236:X-CUBE-AI/App/aiTestUtility.h **** 
 237:X-CUBE-AI/App/aiTestUtility.h **** /* -----------------------------------------------------------------------------
 238:X-CUBE-AI/App/aiTestUtility.h ****  * Timer/clock count services
 239:X-CUBE-AI/App/aiTestUtility.h ****  * -----------------------------------------------------------------------------
 240:X-CUBE-AI/App/aiTestUtility.h ****  */
 241:X-CUBE-AI/App/aiTestUtility.h **** 
 242:X-CUBE-AI/App/aiTestUtility.h **** struct dwtTime {
 243:X-CUBE-AI/App/aiTestUtility.h ****   uint32_t fcpu;
 244:X-CUBE-AI/App/aiTestUtility.h ****   int s;
 245:X-CUBE-AI/App/aiTestUtility.h ****   int ms;
 246:X-CUBE-AI/App/aiTestUtility.h ****   int us;
 247:X-CUBE-AI/App/aiTestUtility.h **** };
 248:X-CUBE-AI/App/aiTestUtility.h **** 
 249:X-CUBE-AI/App/aiTestUtility.h **** void dwtIpInit(void);
 250:X-CUBE-AI/App/aiTestUtility.h **** 
 251:X-CUBE-AI/App/aiTestUtility.h **** __STATIC_INLINE void dwtReset(void) {
 252:X-CUBE-AI/App/aiTestUtility.h ****   DWT->CYCCNT = 0; /* Clear DWT cycle counter */
 253:X-CUBE-AI/App/aiTestUtility.h **** }
 254:X-CUBE-AI/App/aiTestUtility.h **** 
 255:X-CUBE-AI/App/aiTestUtility.h **** __STATIC_INLINE  uint32_t dwtGetCycles(void) {
  51              		.loc 2 255 27 view .LVU4
  52              	.LBB43:
 256:X-CUBE-AI/App/aiTestUtility.h ****   return DWT->CYCCNT;
  53              		.loc 2 256 3 view .LVU5
  54              		.loc 2 256 13 is_stmt 0 view .LVU6
  55 0008 2349     		ldr	r1, .L4
ARM GAS  C:\Users\zacfi\AppData\Local\Temp\ccazi6oi.s 			page 12


  56              	.LVL1:
  57              		.loc 2 256 13 view .LVU7
  58 000a 4C68     		ldr	r4, [r1, #4]
  59              	.LBE43:
  60              	.LBE42:
  61              		.loc 1 317 26 view .LVU8
  62 000c 2046     		mov	r0, r4
  63              	.LVL2:
  64              		.loc 1 317 26 view .LVU9
  65 000e 0021     		movs	r1, #0
  66              		.loc 1 317 21 view .LVU10
  67 0010 CDE90001 		strd	r0, [sp]
 318:X-CUBE-AI/App/aiSystemPerformance.c **** 
 319:X-CUBE-AI/App/aiSystemPerformance.c ****   u_obs = (struct u_observer_ctx *)cookie;
  68              		.loc 1 319 3 is_stmt 1 view .LVU11
  69              	.LVL3:
 320:X-CUBE-AI/App/aiSystemPerformance.c ****   u_obs->n_cb += 1;
  70              		.loc 1 320 3 view .LVU12
  71              		.loc 1 320 15 is_stmt 0 view .LVU13
  72 0014 1868     		ldr	r0, [r3]
  73 0016 5C68     		ldr	r4, [r3, #4]
  74 0018 0130     		adds	r0, r0, #1
  75 001a 44F10004 		adc	r4, r4, #0
  76 001e 1860     		str	r0, [r3]
  77 0020 5C60     		str	r4, [r3, #4]
 321:X-CUBE-AI/App/aiSystemPerformance.c **** 
 322:X-CUBE-AI/App/aiSystemPerformance.c ****   if (flags & AI_OBSERVER_POST_EVT) {
  78              		.loc 1 322 3 is_stmt 1 view .LVU14
  79              		.loc 1 322 6 is_stmt 0 view .LVU15
  80 0022 15F0040F 		tst	r5, #4
  81 0026 23D0     		beq	.L2
  82              	.LBB44:
 323:X-CUBE-AI/App/aiSystemPerformance.c ****     const uint64_t end_t = ts - u_obs->start_t;
  83              		.loc 1 323 5 is_stmt 1 view .LVU16
  84              		.loc 1 323 31 is_stmt 0 view .LVU17
  85 0028 DDE90045 		ldrd	r4, [sp]
  86              		.loc 1 323 38 view .LVU18
  87 002c 9968     		ldr	r1, [r3, #8]
  88 002e D868     		ldr	r0, [r3, #12]
  89              		.loc 1 323 20 view .LVU19
  90 0030 611A     		subs	r1, r4, r1
  91 0032 65EB0000 		sbc	r0, r5, r0
  92              	.LVL4:
 324:X-CUBE-AI/App/aiSystemPerformance.c ****     u_obs->k_dur_t += end_t;
  93              		.loc 1 324 5 is_stmt 1 view .LVU20
  94              		.loc 1 324 20 is_stmt 0 view .LVU21
  95 0036 9C69     		ldr	r4, [r3, #24]
  96 0038 DD69     		ldr	r5, [r3, #28]
  97              	.LVL5:
  98              		.loc 1 324 20 view .LVU22
  99 003a 6418     		adds	r4, r4, r1
 100 003c 40EB0505 		adc	r5, r0, r5
 101 0040 9C61     		str	r4, [r3, #24]
 102 0042 DD61     		str	r5, [r3, #28]
 325:X-CUBE-AI/App/aiSystemPerformance.c ****     u_obs->nodes[node->c_idx].dur += end_t;
 103              		.loc 1 325 5 is_stmt 1 view .LVU23
 104              		.loc 1 325 10 is_stmt 0 view .LVU24
ARM GAS  C:\Users\zacfi\AppData\Local\Temp\ccazi6oi.s 			page 13


 105 0044 1E6A     		ldr	r6, [r3, #32]
 106              		.loc 1 325 22 view .LVU25
 107 0046 1488     		ldrh	r4, [r2]
 108              		.loc 1 325 17 view .LVU26
 109 0048 4FEA041C 		lsl	ip, r4, #4
 110              		.loc 1 325 35 view .LVU27
 111 004c 06EB0414 		add	r4, r6, r4, lsl #4
 112 0050 56F80C50 		ldr	r5, [r6, ip]
 113 0054 6918     		adds	r1, r5, r1
 114              	.LVL6:
 115              		.loc 1 325 35 view .LVU28
 116 0056 6568     		ldr	r5, [r4, #4]
 117 0058 40EB0500 		adc	r0, r0, r5
 118 005c 46F80C10 		str	r1, [r6, ip]
 119 0060 6060     		str	r0, [r4, #4]
 326:X-CUBE-AI/App/aiSystemPerformance.c ****     u_obs->nodes[node->c_idx].n_runs += 1;
 120              		.loc 1 326 5 is_stmt 1 view .LVU29
 121              		.loc 1 326 10 is_stmt 0 view .LVU30
 122 0062 196A     		ldr	r1, [r3, #32]
 123              		.loc 1 326 22 view .LVU31
 124 0064 1288     		ldrh	r2, [r2]
 125              	.LVL7:
 126              		.loc 1 326 38 view .LVU32
 127 0066 01EB0212 		add	r2, r1, r2, lsl #4
 128 006a 9168     		ldr	r1, [r2, #8]
 129 006c 0131     		adds	r1, r1, #1
 130 006e 9160     		str	r1, [r2, #8]
 131              	.L2:
 132              		.loc 1 326 38 view .LVU33
 133              	.LBE44:
 327:X-CUBE-AI/App/aiSystemPerformance.c ****   }
 328:X-CUBE-AI/App/aiSystemPerformance.c **** 
 329:X-CUBE-AI/App/aiSystemPerformance.c ****   u_obs->start_t = dwtGetCycles(); /* time stamp exit */
 134              		.loc 1 329 3 is_stmt 1 view .LVU34
 135              	.LBB45:
 136              	.LBI45:
 255:X-CUBE-AI/App/aiTestUtility.h ****   return DWT->CYCCNT;
 137              		.loc 2 255 27 view .LVU35
 138              	.LBB46:
 139              		.loc 2 256 3 view .LVU36
 140              		.loc 2 256 13 is_stmt 0 view .LVU37
 141 0070 094A     		ldr	r2, .L4
 142 0072 5268     		ldr	r2, [r2, #4]
 143              	.LBE46:
 144              	.LBE45:
 145              		.loc 1 329 20 view .LVU38
 146 0074 0020     		movs	r0, #0
 147              		.loc 1 329 18 view .LVU39
 148 0076 9A60     		str	r2, [r3, #8]
 149 0078 D860     		str	r0, [r3, #12]
 330:X-CUBE-AI/App/aiSystemPerformance.c ****   u_obs->u_dur_t += u_obs->start_t  - ts; /* accumulate cycles used by the CB */
 150              		.loc 1 330 3 is_stmt 1 view .LVU40
 151              		.loc 1 330 37 is_stmt 0 view .LVU41
 152 007a DDE90045 		ldrd	r4, [sp]
 153 007e 121B     		subs	r2, r2, r4
 154 0080 65EB450C 		sbc	ip, r5, r5, lsl #1
 155              		.loc 1 330 18 view .LVU42
ARM GAS  C:\Users\zacfi\AppData\Local\Temp\ccazi6oi.s 			page 14


 156 0084 1969     		ldr	r1, [r3, #16]
 157 0086 5C69     		ldr	r4, [r3, #20]
 158 0088 8A18     		adds	r2, r1, r2
 159 008a 4CEB0404 		adc	r4, ip, r4
 160 008e 1A61     		str	r2, [r3, #16]
 161 0090 5C61     		str	r4, [r3, #20]
 331:X-CUBE-AI/App/aiSystemPerformance.c ****   return 0;
 162              		.loc 1 331 3 is_stmt 1 view .LVU43
 332:X-CUBE-AI/App/aiSystemPerformance.c **** }
 163              		.loc 1 332 1 is_stmt 0 view .LVU44
 164 0092 03B0     		add	sp, sp, #12
 165              	.LCFI2:
 166              		.cfi_def_cfa_offset 12
 167              		@ sp needed
 168 0094 70BC     		pop	{r4, r5, r6}
 169              	.LCFI3:
 170              		.cfi_restore 6
 171              		.cfi_restore 5
 172              		.cfi_restore 4
 173              		.cfi_def_cfa_offset 0
 174 0096 7047     		bx	lr
 175              	.L5:
 176              		.align	2
 177              	.L4:
 178 0098 001000E0 		.word	-536866816
 179              		.cfi_endproc
 180              	.LFE143:
 182              		.section	.rodata.aiDeInit.str1.4,"aMS",%progbits,1
 183              		.align	2
 184              	.LC0:
 185 0000 52656C65 		.ascii	"Releasing the instance(s)...\015\000"
 185      6173696E 
 185      67207468 
 185      6520696E 
 185      7374616E 
 186 001e 0000     		.align	2
 187              	.LC1:
 188 0020 61695F6D 		.ascii	"ai_mnetwork_destroy\000"
 188      6E657477 
 188      6F726B5F 
 188      64657374 
 188      726F7900 
 189              		.section	.text.aiDeInit,"ax",%progbits
 190              		.align	1
 191              		.syntax unified
 192              		.thumb
 193              		.thumb_func
 194              		.fpu fpv4-sp-d16
 196              	aiDeInit:
 197              	.LFB142:
 273:X-CUBE-AI/App/aiSystemPerformance.c ****   ai_error err;
 198              		.loc 1 273 1 is_stmt 1 view -0
 199              		.cfi_startproc
 200              		@ args = 0, pretend = 0, frame = 0
 201              		@ frame_needed = 0, uses_anonymous_args = 0
 202 0000 10B5     		push	{r4, lr}
 203              	.LCFI4:
ARM GAS  C:\Users\zacfi\AppData\Local\Temp\ccazi6oi.s 			page 15


 204              		.cfi_def_cfa_offset 8
 205              		.cfi_offset 4, -8
 206              		.cfi_offset 14, -4
 274:X-CUBE-AI/App/aiSystemPerformance.c ****   int idx;
 207              		.loc 1 274 3 view .LVU46
 275:X-CUBE-AI/App/aiSystemPerformance.c **** 
 208              		.loc 1 275 3 view .LVU47
 278:X-CUBE-AI/App/aiSystemPerformance.c **** 
 209              		.loc 1 278 3 view .LVU48
 210 0002 1148     		ldr	r0, .L12
 211 0004 FFF7FEFF 		bl	puts
 212              	.LVL8:
 280:X-CUBE-AI/App/aiSystemPerformance.c ****     if (net_exec_ctx[idx].handle != AI_HANDLE_NULL) {
 213              		.loc 1 280 3 view .LVU49
 280:X-CUBE-AI/App/aiSystemPerformance.c ****     if (net_exec_ctx[idx].handle != AI_HANDLE_NULL) {
 214              		.loc 1 280 11 is_stmt 0 view .LVU50
 215 0008 0024     		movs	r4, #0
 216              	.LVL9:
 217              	.L7:
 280:X-CUBE-AI/App/aiSystemPerformance.c ****     if (net_exec_ctx[idx].handle != AI_HANDLE_NULL) {
 218              		.loc 1 280 15 is_stmt 1 discriminator 1 view .LVU51
 280:X-CUBE-AI/App/aiSystemPerformance.c ****     if (net_exec_ctx[idx].handle != AI_HANDLE_NULL) {
 219              		.loc 1 280 3 is_stmt 0 discriminator 1 view .LVU52
 220 000a 002C     		cmp	r4, #0
 221 000c 00DD     		ble	.L10
 290:X-CUBE-AI/App/aiSystemPerformance.c **** 
 222              		.loc 1 290 1 view .LVU53
 223 000e 10BD     		pop	{r4, pc}
 224              	.LVL10:
 225              	.L10:
 281:X-CUBE-AI/App/aiSystemPerformance.c ****       if (ai_mnetwork_destroy(net_exec_ctx[idx].handle)
 226              		.loc 1 281 5 is_stmt 1 view .LVU54
 281:X-CUBE-AI/App/aiSystemPerformance.c ****       if (ai_mnetwork_destroy(net_exec_ctx[idx].handle)
 227              		.loc 1 281 26 is_stmt 0 view .LVU55
 228 0010 C4EB0413 		rsb	r3, r4, r4, lsl #4
 229 0014 0D4A     		ldr	r2, .L12+4
 230 0016 52F83300 		ldr	r0, [r2, r3, lsl #3]
 281:X-CUBE-AI/App/aiSystemPerformance.c ****       if (ai_mnetwork_destroy(net_exec_ctx[idx].handle)
 231              		.loc 1 281 8 view .LVU56
 232 001a 90B1     		cbz	r0, .L8
 282:X-CUBE-AI/App/aiSystemPerformance.c ****           != AI_HANDLE_NULL) {
 233              		.loc 1 282 7 is_stmt 1 view .LVU57
 282:X-CUBE-AI/App/aiSystemPerformance.c ****           != AI_HANDLE_NULL) {
 234              		.loc 1 282 11 is_stmt 0 view .LVU58
 235 001c FFF7FEFF 		bl	ai_mnetwork_destroy
 236              	.LVL11:
 282:X-CUBE-AI/App/aiSystemPerformance.c ****           != AI_HANDLE_NULL) {
 237              		.loc 1 282 10 view .LVU59
 238 0020 48B1     		cbz	r0, .L9
 284:X-CUBE-AI/App/aiSystemPerformance.c ****         aiLogErr(err, "ai_mnetwork_destroy");
 239              		.loc 1 284 9 is_stmt 1 view .LVU60
 284:X-CUBE-AI/App/aiSystemPerformance.c ****         aiLogErr(err, "ai_mnetwork_destroy");
 240              		.loc 1 284 15 is_stmt 0 view .LVU61
 241 0022 C4EB0413 		rsb	r3, r4, r4, lsl #4
 242 0026 094A     		ldr	r2, .L12+4
 243 0028 52F83300 		ldr	r0, [r2, r3, lsl #3]
 244 002c FFF7FEFF 		bl	ai_mnetwork_get_error
ARM GAS  C:\Users\zacfi\AppData\Local\Temp\ccazi6oi.s 			page 16


 245              	.LVL12:
 285:X-CUBE-AI/App/aiSystemPerformance.c ****       }
 246              		.loc 1 285 9 is_stmt 1 view .LVU62
 247 0030 0749     		ldr	r1, .L12+8
 248 0032 FFF7FEFF 		bl	aiLogErr
 249              	.LVL13:
 250              	.L9:
 287:X-CUBE-AI/App/aiSystemPerformance.c ****     }
 251              		.loc 1 287 7 view .LVU63
 287:X-CUBE-AI/App/aiSystemPerformance.c ****     }
 252              		.loc 1 287 32 is_stmt 0 view .LVU64
 253 0036 C4EB0413 		rsb	r3, r4, r4, lsl #4
 254 003a DB00     		lsls	r3, r3, #3
 255 003c 034A     		ldr	r2, .L12+4
 256 003e 0021     		movs	r1, #0
 257 0040 D150     		str	r1, [r2, r3]
 258              	.L8:
 280:X-CUBE-AI/App/aiSystemPerformance.c ****     if (net_exec_ctx[idx].handle != AI_HANDLE_NULL) {
 259              		.loc 1 280 39 is_stmt 1 discriminator 2 view .LVU65
 280:X-CUBE-AI/App/aiSystemPerformance.c ****     if (net_exec_ctx[idx].handle != AI_HANDLE_NULL) {
 260              		.loc 1 280 42 is_stmt 0 discriminator 2 view .LVU66
 261 0042 0134     		adds	r4, r4, #1
 262              	.LVL14:
 280:X-CUBE-AI/App/aiSystemPerformance.c ****     if (net_exec_ctx[idx].handle != AI_HANDLE_NULL) {
 263              		.loc 1 280 42 discriminator 2 view .LVU67
 264 0044 E1E7     		b	.L7
 265              	.L13:
 266 0046 00BF     		.align	2
 267              	.L12:
 268 0048 00000000 		.word	.LC0
 269 004c 00000000 		.word	.LANCHOR0
 270 0050 20000000 		.word	.LC1
 271              		.cfi_endproc
 272              	.LFE142:
 274              		.section	.rodata.aiBootstrap.str1.4,"aMS",%progbits,1
 275              		.align	2
 276              	.LC2:
 277 0000 43726561 		.ascii	"Creating the network \"%s\"..\015\012\000"
 277      74696E67 
 277      20746865 
 277      206E6574 
 277      776F726B 
 278 001e 0000     		.align	2
 279              	.LC3:
 280 0020 61695F6D 		.ascii	"ai_mnetwork_create\000"
 280      6E657477 
 280      6F726B5F 
 280      63726561 
 280      746500
 281 0033 00       		.align	2
 282              	.LC4:
 283 0034 496E6974 		.ascii	"Initializing the network\015\000"
 283      69616C69 
 283      7A696E67 
 283      20746865 
 283      206E6574 
 284 004e 0000     		.align	2
ARM GAS  C:\Users\zacfi\AppData\Local\Temp\ccazi6oi.s 			page 17


 285              	.LC5:
 286 0050 61695F6D 		.ascii	"ai_mnetwork_get_info\000"
 286      6E657477 
 286      6F726B5F 
 286      6765745F 
 286      696E666F 
 287 0065 000000   		.align	2
 288              	.LC6:
 289 0068 453A2041 		.ascii	"E: APP error (aiBootstrap for %s) - size of the loc"
 289      50502065 
 289      72726F72 
 289      20286169 
 289      426F6F74 
 290 009b 616C2061 		.ascii	"al activations buffer is not enough\015\012\000"
 290      63746976 
 290      6174696F 
 290      6E732062 
 290      75666665 
 291 00c1 000000   		.align	2
 292              	.LC7:
 293 00c4 61695F6D 		.ascii	"ai_mnetwork_init\000"
 293      6E657477 
 293      6F726B5F 
 293      696E6974 
 293      00
 294              		.section	.text.aiBootstrap,"ax",%progbits
 295              		.align	1
 296              		.syntax unified
 297              		.thumb
 298              		.thumb_func
 299              		.fpu fpv4-sp-d16
 301              	aiBootstrap:
 302              	.LVL15:
 303              	.LFB140:
 147:X-CUBE-AI/App/aiSystemPerformance.c ****   ai_error err;
 304              		.loc 1 147 1 is_stmt 1 view -0
 305              		.cfi_startproc
 306              		@ args = 0, pretend = 0, frame = 56
 307              		@ frame_needed = 0, uses_anonymous_args = 0
 147:X-CUBE-AI/App/aiSystemPerformance.c ****   ai_error err;
 308              		.loc 1 147 1 is_stmt 0 view .LVU69
 309 0000 70B5     		push	{r4, r5, r6, lr}
 310              	.LCFI5:
 311              		.cfi_def_cfa_offset 16
 312              		.cfi_offset 4, -16
 313              		.cfi_offset 5, -12
 314              		.cfi_offset 6, -8
 315              		.cfi_offset 14, -4
 316 0002 8EB0     		sub	sp, sp, #56
 317              	.LCFI6:
 318              		.cfi_def_cfa_offset 72
 319 0004 0446     		mov	r4, r0
 320 0006 0E46     		mov	r6, r1
 148:X-CUBE-AI/App/aiSystemPerformance.c ****   ai_u32 ext_addr;
 321              		.loc 1 148 3 is_stmt 1 view .LVU70
 149:X-CUBE-AI/App/aiSystemPerformance.c ****   ai_u32 sz;
 322              		.loc 1 149 3 view .LVU71
ARM GAS  C:\Users\zacfi\AppData\Local\Temp\ccazi6oi.s 			page 18


 150:X-CUBE-AI/App/aiSystemPerformance.c **** 
 323              		.loc 1 150 3 view .LVU72
 153:X-CUBE-AI/App/aiSystemPerformance.c **** 
 324              		.loc 1 153 3 view .LVU73
 325 0008 3D48     		ldr	r0, .L27
 326              	.LVL16:
 153:X-CUBE-AI/App/aiSystemPerformance.c **** 
 327              		.loc 1 153 3 is_stmt 0 view .LVU74
 328 000a FFF7FEFF 		bl	printf
 329              	.LVL17:
 155:X-CUBE-AI/App/aiSystemPerformance.c ****   if (err.type) {
 330              		.loc 1 155 3 is_stmt 1 view .LVU75
 155:X-CUBE-AI/App/aiSystemPerformance.c ****   if (err.type) {
 331              		.loc 1 155 9 is_stmt 0 view .LVU76
 332 000e 0022     		movs	r2, #0
 333 0010 2146     		mov	r1, r4
 334 0012 3046     		mov	r0, r6
 335 0014 FFF7FEFF 		bl	ai_mnetwork_create
 336              	.LVL18:
 156:X-CUBE-AI/App/aiSystemPerformance.c ****     aiLogErr(err, "ai_mnetwork_create");
 337              		.loc 1 156 3 is_stmt 1 view .LVU77
 156:X-CUBE-AI/App/aiSystemPerformance.c ****     aiLogErr(err, "ai_mnetwork_create");
 338              		.loc 1 156 6 is_stmt 0 view .LVU78
 339 0018 10F0FF0F 		tst	r0, #255
 340 001c 2ED1     		bne	.L23
 162:X-CUBE-AI/App/aiSystemPerformance.c **** 
 341              		.loc 1 162 3 is_stmt 1 view .LVU79
 342 001e 3948     		ldr	r0, .L27+4
 343              	.LVL19:
 162:X-CUBE-AI/App/aiSystemPerformance.c **** 
 344              		.loc 1 162 3 is_stmt 0 view .LVU80
 345 0020 FFF7FEFF 		bl	puts
 346              	.LVL20:
 164:X-CUBE-AI/App/aiSystemPerformance.c ****       &ctx->report)) {
 347              		.loc 1 164 3 is_stmt 1 view .LVU81
 164:X-CUBE-AI/App/aiSystemPerformance.c ****       &ctx->report)) {
 348              		.loc 1 164 7 is_stmt 0 view .LVU82
 349 0024 2546     		mov	r5, r4
 350 0026 55F8040B 		ldr	r0, [r5], #4
 351 002a 2946     		mov	r1, r5
 352 002c FFF7FEFF 		bl	ai_mnetwork_get_info
 353              	.LVL21:
 164:X-CUBE-AI/App/aiSystemPerformance.c ****       &ctx->report)) {
 354              		.loc 1 164 6 view .LVU83
 355 0030 50B3     		cbz	r0, .L24
 166:X-CUBE-AI/App/aiSystemPerformance.c ****     err = ai_mnetwork_get_error(ctx->handle);
 356              		.loc 1 166 3 is_stmt 1 view .LVU84
 185:X-CUBE-AI/App/aiSystemPerformance.c ****       AI_BUFFER_NULL(NULL),
 357              		.loc 1 185 3 view .LVU85
 185:X-CUBE-AI/App/aiSystemPerformance.c ****       AI_BUFFER_NULL(NULL),
 358              		.loc 1 185 21 is_stmt 0 view .LVU86
 359 0032 3022     		movs	r2, #48
 360 0034 0021     		movs	r1, #0
 361 0036 6846     		mov	r0, sp
 362 0038 FFF7FEFF 		bl	memset
 363              	.LVL22:
 364 003c 324B     		ldr	r3, .L27+8
ARM GAS  C:\Users\zacfi\AppData\Local\Temp\ccazi6oi.s 			page 19


 365 003e 0093     		str	r3, [sp]
 366 0040 0693     		str	r3, [sp, #24]
 190:X-CUBE-AI/App/aiSystemPerformance.c ****     if (ext_addr == 0xFFFFFFFF) {
 367              		.loc 1 190 3 is_stmt 1 view .LVU87
 190:X-CUBE-AI/App/aiSystemPerformance.c ****     if (ext_addr == 0xFFFFFFFF) {
 368              		.loc 1 190 7 is_stmt 0 view .LVU88
 369 0042 0CAA     		add	r2, sp, #48
 370 0044 0DA9     		add	r1, sp, #52
 371 0046 2068     		ldr	r0, [r4]
 372 0048 FFF7FEFF 		bl	ai_mnetwork_get_ext_data_activations
 373              	.LVL23:
 190:X-CUBE-AI/App/aiSystemPerformance.c ****     if (ext_addr == 0xFFFFFFFF) {
 374              		.loc 1 190 6 view .LVU89
 375 004c 20B9     		cbnz	r0, .L18
 191:X-CUBE-AI/App/aiSystemPerformance.c **** #if AI_MNETWORK_DATA_ACTIVATIONS_INT_SIZE != 0
 376              		.loc 1 191 5 is_stmt 1 view .LVU90
 191:X-CUBE-AI/App/aiSystemPerformance.c **** #if AI_MNETWORK_DATA_ACTIVATIONS_INT_SIZE != 0
 377              		.loc 1 191 18 is_stmt 0 view .LVU91
 378 004e 0D9B     		ldr	r3, [sp, #52]
 191:X-CUBE-AI/App/aiSystemPerformance.c **** #if AI_MNETWORK_DATA_ACTIVATIONS_INT_SIZE != 0
 379              		.loc 1 191 8 view .LVU92
 380 0050 B3F1FF3F 		cmp	r3, #-1
 381 0054 26D0     		beq	.L25
 214:X-CUBE-AI/App/aiSystemPerformance.c ****     }
 382              		.loc 1 214 7 is_stmt 1 view .LVU93
 214:X-CUBE-AI/App/aiSystemPerformance.c ****     }
 383              		.loc 1 214 31 is_stmt 0 view .LVU94
 384 0056 0A93     		str	r3, [sp, #40]
 385              	.L18:
 218:X-CUBE-AI/App/aiSystemPerformance.c ****     err = ai_mnetwork_get_error(ctx->handle);
 386              		.loc 1 218 3 is_stmt 1 view .LVU95
 218:X-CUBE-AI/App/aiSystemPerformance.c ****     err = ai_mnetwork_get_error(ctx->handle);
 387              		.loc 1 218 8 is_stmt 0 view .LVU96
 388 0058 6946     		mov	r1, sp
 389 005a 2068     		ldr	r0, [r4]
 390 005c FFF7FEFF 		bl	ai_mnetwork_init
 391              	.LVL24:
 218:X-CUBE-AI/App/aiSystemPerformance.c ****     err = ai_mnetwork_get_error(ctx->handle);
 392              		.loc 1 218 6 view .LVU97
 393 0060 0028     		cmp	r0, #0
 394 0062 31D0     		beq	.L26
 227:X-CUBE-AI/App/aiSystemPerformance.c ****       &ctx->report)) {
 395              		.loc 1 227 3 is_stmt 1 view .LVU98
 227:X-CUBE-AI/App/aiSystemPerformance.c ****       &ctx->report)) {
 396              		.loc 1 227 7 is_stmt 0 view .LVU99
 397 0064 2946     		mov	r1, r5
 398 0066 2068     		ldr	r0, [r4]
 399 0068 FFF7FEFF 		bl	ai_mnetwork_get_info
 400              	.LVL25:
 227:X-CUBE-AI/App/aiSystemPerformance.c ****       &ctx->report)) {
 401              		.loc 1 227 6 view .LVU100
 402 006c 0028     		cmp	r0, #0
 403 006e 39D0     		beq	.L21
 229:X-CUBE-AI/App/aiSystemPerformance.c ****   } else {
 404              		.loc 1 229 5 is_stmt 1 view .LVU101
 405 0070 2846     		mov	r0, r5
 406 0072 FFF7FEFF 		bl	aiPrintNetworkInfo
ARM GAS  C:\Users\zacfi\AppData\Local\Temp\ccazi6oi.s 			page 20


 407              	.LVL26:
 238:X-CUBE-AI/App/aiSystemPerformance.c **** }
 408              		.loc 1 238 3 view .LVU102
 238:X-CUBE-AI/App/aiSystemPerformance.c **** }
 409              		.loc 1 238 10 is_stmt 0 view .LVU103
 410 0076 0020     		movs	r0, #0
 411              	.L14:
 239:X-CUBE-AI/App/aiSystemPerformance.c **** 
 412              		.loc 1 239 1 view .LVU104
 413 0078 0EB0     		add	sp, sp, #56
 414              	.LCFI7:
 415              		.cfi_remember_state
 416              		.cfi_def_cfa_offset 16
 417              		@ sp needed
 418 007a 70BD     		pop	{r4, r5, r6, pc}
 419              	.LVL27:
 420              	.L23:
 421              	.LCFI8:
 422              		.cfi_restore_state
 157:X-CUBE-AI/App/aiSystemPerformance.c ****     return -1;
 423              		.loc 1 157 5 is_stmt 1 view .LVU105
 424 007c 2349     		ldr	r1, .L27+12
 425 007e FFF7FEFF 		bl	aiLogErr
 426              	.LVL28:
 158:X-CUBE-AI/App/aiSystemPerformance.c ****   }
 427              		.loc 1 158 5 view .LVU106
 158:X-CUBE-AI/App/aiSystemPerformance.c ****   }
 428              		.loc 1 158 12 is_stmt 0 view .LVU107
 429 0082 4FF0FF30 		mov	r0, #-1
 430 0086 F7E7     		b	.L14
 431              	.L24:
 167:X-CUBE-AI/App/aiSystemPerformance.c ****     aiLogErr(err, "ai_mnetwork_get_info");
 432              		.loc 1 167 5 is_stmt 1 view .LVU108
 167:X-CUBE-AI/App/aiSystemPerformance.c ****     aiLogErr(err, "ai_mnetwork_get_info");
 433              		.loc 1 167 11 is_stmt 0 view .LVU109
 434 0088 2068     		ldr	r0, [r4]
 435 008a FFF7FEFF 		bl	ai_mnetwork_get_error
 436              	.LVL29:
 168:X-CUBE-AI/App/aiSystemPerformance.c ****     ai_mnetwork_destroy(ctx->handle);
 437              		.loc 1 168 5 is_stmt 1 view .LVU110
 438 008e 2049     		ldr	r1, .L27+16
 439 0090 FFF7FEFF 		bl	aiLogErr
 440              	.LVL30:
 169:X-CUBE-AI/App/aiSystemPerformance.c ****     ctx->handle = AI_HANDLE_NULL;
 441              		.loc 1 169 5 view .LVU111
 442 0094 2068     		ldr	r0, [r4]
 443 0096 FFF7FEFF 		bl	ai_mnetwork_destroy
 444              	.LVL31:
 170:X-CUBE-AI/App/aiSystemPerformance.c ****     return -2;
 445              		.loc 1 170 5 view .LVU112
 170:X-CUBE-AI/App/aiSystemPerformance.c ****     return -2;
 446              		.loc 1 170 17 is_stmt 0 view .LVU113
 447 009a 0023     		movs	r3, #0
 448 009c 2360     		str	r3, [r4]
 171:X-CUBE-AI/App/aiSystemPerformance.c ****   }
 449              		.loc 1 171 5 is_stmt 1 view .LVU114
 171:X-CUBE-AI/App/aiSystemPerformance.c ****   }
ARM GAS  C:\Users\zacfi\AppData\Local\Temp\ccazi6oi.s 			page 21


 450              		.loc 1 171 12 is_stmt 0 view .LVU115
 451 009e 6FF00100 		mvn	r0, #1
 452 00a2 E9E7     		b	.L14
 453              	.L25:
 193:X-CUBE-AI/App/aiSystemPerformance.c ****       if (sz > AI_MNETWORK_DATA_ACTIVATIONS_INT_SIZE) {
 454              		.loc 1 193 7 is_stmt 1 view .LVU116
 193:X-CUBE-AI/App/aiSystemPerformance.c ****       if (sz > AI_MNETWORK_DATA_ACTIVATIONS_INT_SIZE) {
 455              		.loc 1 193 31 is_stmt 0 view .LVU117
 456 00a4 1B4B     		ldr	r3, .L27+20
 457 00a6 0A93     		str	r3, [sp, #40]
 194:X-CUBE-AI/App/aiSystemPerformance.c ****         printf("E: APP error (aiBootstrap for %s) - size of the local activations buffer is not eno
 458              		.loc 1 194 7 is_stmt 1 view .LVU118
 194:X-CUBE-AI/App/aiSystemPerformance.c ****         printf("E: APP error (aiBootstrap for %s) - size of the local activations buffer is not eno
 459              		.loc 1 194 14 is_stmt 0 view .LVU119
 460 00a8 0C9B     		ldr	r3, [sp, #48]
 194:X-CUBE-AI/App/aiSystemPerformance.c ****         printf("E: APP error (aiBootstrap for %s) - size of the local activations buffer is not eno
 461              		.loc 1 194 10 view .LVU120
 462 00aa B3F5A26F 		cmp	r3, #1296
 463 00ae D3D9     		bls	.L18
 195:X-CUBE-AI/App/aiSystemPerformance.c ****             nn_name);
 464              		.loc 1 195 9 is_stmt 1 view .LVU121
 465 00b0 3146     		mov	r1, r6
 466 00b2 1948     		ldr	r0, .L27+24
 467 00b4 FFF7FEFF 		bl	printf
 468              	.LVL32:
 197:X-CUBE-AI/App/aiSystemPerformance.c ****         ctx->handle = AI_HANDLE_NULL;
 469              		.loc 1 197 9 view .LVU122
 470 00b8 2068     		ldr	r0, [r4]
 471 00ba FFF7FEFF 		bl	ai_mnetwork_destroy
 472              	.LVL33:
 198:X-CUBE-AI/App/aiSystemPerformance.c ****         return -5;
 473              		.loc 1 198 9 view .LVU123
 198:X-CUBE-AI/App/aiSystemPerformance.c ****         return -5;
 474              		.loc 1 198 21 is_stmt 0 view .LVU124
 475 00be 0023     		movs	r3, #0
 476 00c0 2360     		str	r3, [r4]
 199:X-CUBE-AI/App/aiSystemPerformance.c ****       }
 477              		.loc 1 199 9 is_stmt 1 view .LVU125
 199:X-CUBE-AI/App/aiSystemPerformance.c ****       }
 478              		.loc 1 199 16 is_stmt 0 view .LVU126
 479 00c2 6FF00400 		mvn	r0, #4
 480 00c6 D7E7     		b	.L14
 481              	.L26:
 219:X-CUBE-AI/App/aiSystemPerformance.c ****     aiLogErr(err, "ai_mnetwork_init");
 482              		.loc 1 219 5 is_stmt 1 view .LVU127
 219:X-CUBE-AI/App/aiSystemPerformance.c ****     aiLogErr(err, "ai_mnetwork_init");
 483              		.loc 1 219 11 is_stmt 0 view .LVU128
 484 00c8 2068     		ldr	r0, [r4]
 485 00ca FFF7FEFF 		bl	ai_mnetwork_get_error
 486              	.LVL34:
 220:X-CUBE-AI/App/aiSystemPerformance.c ****     ai_mnetwork_destroy(ctx->handle);
 487              		.loc 1 220 5 is_stmt 1 view .LVU129
 488 00ce 1349     		ldr	r1, .L27+28
 489 00d0 FFF7FEFF 		bl	aiLogErr
 490              	.LVL35:
 221:X-CUBE-AI/App/aiSystemPerformance.c ****     ctx->handle = AI_HANDLE_NULL;
 491              		.loc 1 221 5 view .LVU130
ARM GAS  C:\Users\zacfi\AppData\Local\Temp\ccazi6oi.s 			page 22


 492 00d4 2068     		ldr	r0, [r4]
 493 00d6 FFF7FEFF 		bl	ai_mnetwork_destroy
 494              	.LVL36:
 222:X-CUBE-AI/App/aiSystemPerformance.c ****     return -4;
 495              		.loc 1 222 5 view .LVU131
 222:X-CUBE-AI/App/aiSystemPerformance.c ****     return -4;
 496              		.loc 1 222 17 is_stmt 0 view .LVU132
 497 00da 0023     		movs	r3, #0
 498 00dc 2360     		str	r3, [r4]
 223:X-CUBE-AI/App/aiSystemPerformance.c ****   }
 499              		.loc 1 223 5 is_stmt 1 view .LVU133
 223:X-CUBE-AI/App/aiSystemPerformance.c ****   }
 500              		.loc 1 223 12 is_stmt 0 view .LVU134
 501 00de 6FF00300 		mvn	r0, #3
 502 00e2 C9E7     		b	.L14
 503              	.L21:
 231:X-CUBE-AI/App/aiSystemPerformance.c ****     aiLogErr(err, "ai_mnetwork_get_info");
 504              		.loc 1 231 5 is_stmt 1 view .LVU135
 231:X-CUBE-AI/App/aiSystemPerformance.c ****     aiLogErr(err, "ai_mnetwork_get_info");
 505              		.loc 1 231 11 is_stmt 0 view .LVU136
 506 00e4 2068     		ldr	r0, [r4]
 507 00e6 FFF7FEFF 		bl	ai_mnetwork_get_error
 508              	.LVL37:
 232:X-CUBE-AI/App/aiSystemPerformance.c ****     ai_mnetwork_destroy(ctx->handle);
 509              		.loc 1 232 5 is_stmt 1 view .LVU137
 510 00ea 0949     		ldr	r1, .L27+16
 511 00ec FFF7FEFF 		bl	aiLogErr
 512              	.LVL38:
 233:X-CUBE-AI/App/aiSystemPerformance.c ****     ctx->handle = AI_HANDLE_NULL;
 513              		.loc 1 233 5 view .LVU138
 514 00f0 2068     		ldr	r0, [r4]
 515 00f2 FFF7FEFF 		bl	ai_mnetwork_destroy
 516              	.LVL39:
 234:X-CUBE-AI/App/aiSystemPerformance.c ****     return -2;
 517              		.loc 1 234 5 view .LVU139
 234:X-CUBE-AI/App/aiSystemPerformance.c ****     return -2;
 518              		.loc 1 234 17 is_stmt 0 view .LVU140
 519 00f6 0023     		movs	r3, #0
 520 00f8 2360     		str	r3, [r4]
 235:X-CUBE-AI/App/aiSystemPerformance.c ****   }
 521              		.loc 1 235 5 is_stmt 1 view .LVU141
 235:X-CUBE-AI/App/aiSystemPerformance.c ****   }
 522              		.loc 1 235 12 is_stmt 0 view .LVU142
 523 00fa 6FF00100 		mvn	r0, #1
 524 00fe BBE7     		b	.L14
 525              	.L28:
 526              		.align	2
 527              	.L27:
 528 0100 00000000 		.word	.LC2
 529 0104 34000000 		.word	.LC4
 530 0108 40000040 		.word	1073741888
 531 010c 20000000 		.word	.LC3
 532 0110 50000000 		.word	.LC5
 533 0114 00000000 		.word	.LANCHOR1
 534 0118 68000000 		.word	.LC6
 535 011c C4000000 		.word	.LC7
 536              		.cfi_endproc
ARM GAS  C:\Users\zacfi\AppData\Local\Temp\ccazi6oi.s 			page 23


 537              	.LFE140:
 539              		.section	.rodata.aiInit.str1.4,"aMS",%progbits,1
 540              		.align	2
 541              	.LC8:
 542 0000 44697363 		.ascii	"Discovering the network(s)...\015\000"
 542      6F766572 
 542      696E6720 
 542      74686520 
 542      6E657477 
 543 001f 00       		.align	2
 544              	.LC9:
 545 0020 0D0A466F 		.ascii	"\015\012Found network \"%s\"\015\012\000"
 545      756E6420 
 545      6E657477 
 545      6F726B20 
 545      22257322 
 546              		.section	.text.aiInit,"ax",%progbits
 547              		.align	1
 548              		.syntax unified
 549              		.thumb
 550              		.thumb_func
 551              		.fpu fpv4-sp-d16
 553              	aiInit:
 554              	.LFB141:
 242:X-CUBE-AI/App/aiSystemPerformance.c ****   int res = -1;
 555              		.loc 1 242 1 is_stmt 1 view -0
 556              		.cfi_startproc
 557              		@ args = 0, pretend = 0, frame = 0
 558              		@ frame_needed = 0, uses_anonymous_args = 0
 559 0000 70B5     		push	{r4, r5, r6, lr}
 560              	.LCFI9:
 561              		.cfi_def_cfa_offset 16
 562              		.cfi_offset 4, -16
 563              		.cfi_offset 5, -12
 564              		.cfi_offset 6, -8
 565              		.cfi_offset 14, -4
 243:X-CUBE-AI/App/aiSystemPerformance.c ****   const char *nn_name;
 566              		.loc 1 243 3 view .LVU144
 567              	.LVL40:
 244:X-CUBE-AI/App/aiSystemPerformance.c ****   int idx;
 568              		.loc 1 244 3 view .LVU145
 245:X-CUBE-AI/App/aiSystemPerformance.c **** 
 569              		.loc 1 245 3 view .LVU146
 247:X-CUBE-AI/App/aiSystemPerformance.c **** 
 570              		.loc 1 247 3 view .LVU147
 571 0002 FFF7FEFF 		bl	aiPlatformVersion
 572              	.LVL41:
 250:X-CUBE-AI/App/aiSystemPerformance.c ****     net_exec_ctx[idx].handle = AI_HANDLE_NULL;
 573              		.loc 1 250 3 view .LVU148
 250:X-CUBE-AI/App/aiSystemPerformance.c ****     net_exec_ctx[idx].handle = AI_HANDLE_NULL;
 574              		.loc 1 250 11 is_stmt 0 view .LVU149
 575 0006 0023     		movs	r3, #0
 576              	.LVL42:
 577              	.L30:
 250:X-CUBE-AI/App/aiSystemPerformance.c ****     net_exec_ctx[idx].handle = AI_HANDLE_NULL;
 578              		.loc 1 250 15 is_stmt 1 discriminator 1 view .LVU150
 250:X-CUBE-AI/App/aiSystemPerformance.c ****     net_exec_ctx[idx].handle = AI_HANDLE_NULL;
ARM GAS  C:\Users\zacfi\AppData\Local\Temp\ccazi6oi.s 			page 24


 579              		.loc 1 250 3 is_stmt 0 discriminator 1 view .LVU151
 580 0008 002B     		cmp	r3, #0
 581 000a 06DD     		ble	.L31
 255:X-CUBE-AI/App/aiSystemPerformance.c **** 
 582              		.loc 1 255 3 is_stmt 1 view .LVU152
 583 000c 1548     		ldr	r0, .L37
 584 000e FFF7FEFF 		bl	puts
 585              	.LVL43:
 257:X-CUBE-AI/App/aiSystemPerformance.c ****   do {
 586              		.loc 1 257 3 view .LVU153
 257:X-CUBE-AI/App/aiSystemPerformance.c ****   do {
 587              		.loc 1 257 7 is_stmt 0 view .LVU154
 588 0012 0024     		movs	r4, #0
 243:X-CUBE-AI/App/aiSystemPerformance.c ****   const char *nn_name;
 589              		.loc 1 243 7 view .LVU155
 590 0014 4FF0FF36 		mov	r6, #-1
 591 0018 09E0     		b	.L33
 592              	.LVL44:
 593              	.L31:
 251:X-CUBE-AI/App/aiSystemPerformance.c ****   }
 594              		.loc 1 251 5 is_stmt 1 discriminator 3 view .LVU156
 251:X-CUBE-AI/App/aiSystemPerformance.c ****   }
 595              		.loc 1 251 30 is_stmt 0 discriminator 3 view .LVU157
 596 001a C3EB0312 		rsb	r2, r3, r3, lsl #4
 597 001e D200     		lsls	r2, r2, #3
 598 0020 1149     		ldr	r1, .L37+4
 599 0022 0020     		movs	r0, #0
 600 0024 8850     		str	r0, [r1, r2]
 250:X-CUBE-AI/App/aiSystemPerformance.c ****     net_exec_ctx[idx].handle = AI_HANDLE_NULL;
 601              		.loc 1 250 41 is_stmt 1 discriminator 3 view .LVU158
 250:X-CUBE-AI/App/aiSystemPerformance.c ****     net_exec_ctx[idx].handle = AI_HANDLE_NULL;
 602              		.loc 1 250 44 is_stmt 0 discriminator 3 view .LVU159
 603 0026 0133     		adds	r3, r3, #1
 604              	.LVL45:
 250:X-CUBE-AI/App/aiSystemPerformance.c ****     net_exec_ctx[idx].handle = AI_HANDLE_NULL;
 605              		.loc 1 250 44 discriminator 3 view .LVU160
 606 0028 EEE7     		b	.L30
 607              	.LVL46:
 608              	.L32:
 266:X-CUBE-AI/App/aiSystemPerformance.c ****   } while (nn_name);
 609              		.loc 1 266 5 is_stmt 1 view .LVU161
 266:X-CUBE-AI/App/aiSystemPerformance.c ****   } while (nn_name);
 610              		.loc 1 266 8 is_stmt 0 view .LVU162
 611 002a 0134     		adds	r4, r4, #1
 612              	.LVL47:
 267:X-CUBE-AI/App/aiSystemPerformance.c **** 
 613              		.loc 1 267 11 is_stmt 1 view .LVU163
 267:X-CUBE-AI/App/aiSystemPerformance.c **** 
 614              		.loc 1 267 3 is_stmt 0 view .LVU164
 615 002c BDB1     		cbz	r5, .L36
 616              	.LVL48:
 617              	.L33:
 258:X-CUBE-AI/App/aiSystemPerformance.c ****     nn_name = ai_mnetwork_find(NULL, idx);
 618              		.loc 1 258 3 is_stmt 1 view .LVU165
 259:X-CUBE-AI/App/aiSystemPerformance.c ****     if (nn_name) {
 619              		.loc 1 259 5 view .LVU166
 259:X-CUBE-AI/App/aiSystemPerformance.c ****     if (nn_name) {
ARM GAS  C:\Users\zacfi\AppData\Local\Temp\ccazi6oi.s 			page 25


 620              		.loc 1 259 15 is_stmt 0 view .LVU167
 621 002e 2146     		mov	r1, r4
 622 0030 0020     		movs	r0, #0
 623 0032 FFF7FEFF 		bl	ai_mnetwork_find
 624              	.LVL49:
 260:X-CUBE-AI/App/aiSystemPerformance.c ****       printf("\r\nFound network \"%s\"\r\n", nn_name);
 625              		.loc 1 260 5 is_stmt 1 view .LVU168
 260:X-CUBE-AI/App/aiSystemPerformance.c ****       printf("\r\nFound network \"%s\"\r\n", nn_name);
 626              		.loc 1 260 8 is_stmt 0 view .LVU169
 627 0036 0546     		mov	r5, r0
 628 0038 0028     		cmp	r0, #0
 629 003a F6D0     		beq	.L32
 261:X-CUBE-AI/App/aiSystemPerformance.c ****       res = aiBootstrap(&net_exec_ctx[idx], nn_name);
 630              		.loc 1 261 7 is_stmt 1 view .LVU170
 631 003c 0146     		mov	r1, r0
 632 003e 0B48     		ldr	r0, .L37+8
 633              	.LVL50:
 261:X-CUBE-AI/App/aiSystemPerformance.c ****       res = aiBootstrap(&net_exec_ctx[idx], nn_name);
 634              		.loc 1 261 7 is_stmt 0 view .LVU171
 635 0040 FFF7FEFF 		bl	printf
 636              	.LVL51:
 262:X-CUBE-AI/App/aiSystemPerformance.c ****       if (res)
 637              		.loc 1 262 7 is_stmt 1 view .LVU172
 262:X-CUBE-AI/App/aiSystemPerformance.c ****       if (res)
 638              		.loc 1 262 13 is_stmt 0 view .LVU173
 639 0044 C4EB0413 		rsb	r3, r4, r4, lsl #4
 640 0048 2946     		mov	r1, r5
 641 004a 0748     		ldr	r0, .L37+4
 642 004c 00EBC300 		add	r0, r0, r3, lsl #3
 643 0050 FFF7FEFF 		bl	aiBootstrap
 644              	.LVL52:
 263:X-CUBE-AI/App/aiSystemPerformance.c ****         nn_name = NULL;
 645              		.loc 1 263 7 is_stmt 1 view .LVU174
 263:X-CUBE-AI/App/aiSystemPerformance.c ****         nn_name = NULL;
 646              		.loc 1 263 10 is_stmt 0 view .LVU175
 647 0054 0646     		mov	r6, r0
 648 0056 0028     		cmp	r0, #0
 649 0058 E7D0     		beq	.L32
 264:X-CUBE-AI/App/aiSystemPerformance.c ****     }
 650              		.loc 1 264 17 view .LVU176
 651 005a 0025     		movs	r5, #0
 652              	.LVL53:
 264:X-CUBE-AI/App/aiSystemPerformance.c ****     }
 653              		.loc 1 264 17 view .LVU177
 654 005c E5E7     		b	.L32
 655              	.LVL54:
 656              	.L36:
 269:X-CUBE-AI/App/aiSystemPerformance.c **** }
 657              		.loc 1 269 3 is_stmt 1 view .LVU178
 270:X-CUBE-AI/App/aiSystemPerformance.c **** 
 658              		.loc 1 270 1 is_stmt 0 view .LVU179
 659 005e 3046     		mov	r0, r6
 660 0060 70BD     		pop	{r4, r5, r6, pc}
 661              	.LVL55:
 662              	.L38:
 270:X-CUBE-AI/App/aiSystemPerformance.c **** 
 663              		.loc 1 270 1 view .LVU180
ARM GAS  C:\Users\zacfi\AppData\Local\Temp\ccazi6oi.s 			page 26


 664 0062 00BF     		.align	2
 665              	.L37:
 666 0064 00000000 		.word	.LC8
 667 0068 00000000 		.word	.LANCHOR0
 668 006c 20000000 		.word	.LC9
 669              		.cfi_endproc
 670              	.LFE141:
 672              		.section	.text.aiTestConsole,"ax",%progbits
 673              		.align	1
 674              		.syntax unified
 675              		.thumb
 676              		.thumb_func
 677              		.fpu fpv4-sp-d16
 679              	aiTestConsole:
 680              	.LFB147:
 333:X-CUBE-AI/App/aiSystemPerformance.c **** 
 334:X-CUBE-AI/App/aiSystemPerformance.c **** 
 335:X-CUBE-AI/App/aiSystemPerformance.c **** void aiObserverInit(struct ai_network_exec_ctx *net_ctx)
 336:X-CUBE-AI/App/aiSystemPerformance.c **** {
 337:X-CUBE-AI/App/aiSystemPerformance.c ****   ai_handle  net_hdl;
 338:X-CUBE-AI/App/aiSystemPerformance.c ****   ai_network_params net_params;
 339:X-CUBE-AI/App/aiSystemPerformance.c ****   ai_bool res;
 340:X-CUBE-AI/App/aiSystemPerformance.c ****   int sz;
 341:X-CUBE-AI/App/aiSystemPerformance.c **** 
 342:X-CUBE-AI/App/aiSystemPerformance.c ****   if (!net_ctx || (net_ctx->handle == AI_HANDLE_NULL) || !net_ctx->report.n_nodes)
 343:X-CUBE-AI/App/aiSystemPerformance.c ****     return;
 344:X-CUBE-AI/App/aiSystemPerformance.c **** 
 345:X-CUBE-AI/App/aiSystemPerformance.c **** 
 346:X-CUBE-AI/App/aiSystemPerformance.c ****   /* retrieve real handle */
 347:X-CUBE-AI/App/aiSystemPerformance.c ****   ai_mnetwork_get_private_handle(net_ctx->handle, &net_hdl, &net_params);
 348:X-CUBE-AI/App/aiSystemPerformance.c **** 
 349:X-CUBE-AI/App/aiSystemPerformance.c ****   memset((void *)&u_observer_ctx, 0, sizeof(struct u_observer_ctx));
 350:X-CUBE-AI/App/aiSystemPerformance.c **** 
 351:X-CUBE-AI/App/aiSystemPerformance.c ****   /* allocate resources to store the state of the nodes */
 352:X-CUBE-AI/App/aiSystemPerformance.c ****   sz = net_ctx->report.n_nodes * sizeof(struct u_node_stat);
 353:X-CUBE-AI/App/aiSystemPerformance.c ****   u_observer_ctx.nodes = (struct u_node_stat*)malloc(sz);
 354:X-CUBE-AI/App/aiSystemPerformance.c ****   if (!u_observer_ctx.nodes) {
 355:X-CUBE-AI/App/aiSystemPerformance.c ****     printf("W: enable to allocate the u_node_stats (sz=%d) ..\r\n", sz);
 356:X-CUBE-AI/App/aiSystemPerformance.c ****     return;
 357:X-CUBE-AI/App/aiSystemPerformance.c ****   }
 358:X-CUBE-AI/App/aiSystemPerformance.c **** 
 359:X-CUBE-AI/App/aiSystemPerformance.c ****   memset(u_observer_ctx.nodes, 0, sz);
 360:X-CUBE-AI/App/aiSystemPerformance.c **** 
 361:X-CUBE-AI/App/aiSystemPerformance.c ****   /* register the callback */
 362:X-CUBE-AI/App/aiSystemPerformance.c ****   res = ai_platform_observer_register(net_hdl, user_observer_cb,
 363:X-CUBE-AI/App/aiSystemPerformance.c ****       (ai_handle)&u_observer_ctx, AI_OBSERVER_PRE_EVT | AI_OBSERVER_POST_EVT);
 364:X-CUBE-AI/App/aiSystemPerformance.c ****   if (!res) {
 365:X-CUBE-AI/App/aiSystemPerformance.c ****     printf("W: unable to register the user CB\r\n");
 366:X-CUBE-AI/App/aiSystemPerformance.c ****     free(u_observer_ctx.nodes);
 367:X-CUBE-AI/App/aiSystemPerformance.c ****     u_observer_ctx.nodes = NULL;
 368:X-CUBE-AI/App/aiSystemPerformance.c ****     return;
 369:X-CUBE-AI/App/aiSystemPerformance.c ****   }
 370:X-CUBE-AI/App/aiSystemPerformance.c **** }
 371:X-CUBE-AI/App/aiSystemPerformance.c **** 
 372:X-CUBE-AI/App/aiSystemPerformance.c **** extern const char* ai_layer_type_name(const int type);
 373:X-CUBE-AI/App/aiSystemPerformance.c **** 
 374:X-CUBE-AI/App/aiSystemPerformance.c **** void aiObserverDone(struct ai_network_exec_ctx *net_ctx)
ARM GAS  C:\Users\zacfi\AppData\Local\Temp\ccazi6oi.s 			page 27


 375:X-CUBE-AI/App/aiSystemPerformance.c **** {
 376:X-CUBE-AI/App/aiSystemPerformance.c ****   ai_handle  net_hdl;
 377:X-CUBE-AI/App/aiSystemPerformance.c ****   ai_network_params net_params;
 378:X-CUBE-AI/App/aiSystemPerformance.c ****   struct dwtTime t;
 379:X-CUBE-AI/App/aiSystemPerformance.c ****   uint64_t cumul;
 380:X-CUBE-AI/App/aiSystemPerformance.c ****   ai_observer_node node_info;
 381:X-CUBE-AI/App/aiSystemPerformance.c **** 
 382:X-CUBE-AI/App/aiSystemPerformance.c ****   if (!net_ctx || (net_ctx->handle == AI_HANDLE_NULL) ||
 383:X-CUBE-AI/App/aiSystemPerformance.c ****       !net_ctx->report.n_nodes || !u_observer_ctx.nodes)
 384:X-CUBE-AI/App/aiSystemPerformance.c ****     return;
 385:X-CUBE-AI/App/aiSystemPerformance.c **** 
 386:X-CUBE-AI/App/aiSystemPerformance.c ****   /* retrieve real handle */
 387:X-CUBE-AI/App/aiSystemPerformance.c ****   ai_mnetwork_get_private_handle(net_ctx->handle, &net_hdl, &net_params);
 388:X-CUBE-AI/App/aiSystemPerformance.c **** 
 389:X-CUBE-AI/App/aiSystemPerformance.c ****   ai_platform_observer_unregister(net_hdl, user_observer_cb,
 390:X-CUBE-AI/App/aiSystemPerformance.c ****       (ai_handle)&u_observer_ctx);
 391:X-CUBE-AI/App/aiSystemPerformance.c **** 
 392:X-CUBE-AI/App/aiSystemPerformance.c ****   printf("\r\n Inference time by c-node\r\n");
 393:X-CUBE-AI/App/aiSystemPerformance.c ****   dwtCyclesToTime(u_observer_ctx.k_dur_t / u_observer_ctx.nodes[0].n_runs, &t);
 394:X-CUBE-AI/App/aiSystemPerformance.c ****   printf("  kernel  : %d.%03dms (time passed in the c-kernel fcts)\n", t.s * 1000 + t.ms, t.us);
 395:X-CUBE-AI/App/aiSystemPerformance.c ****   dwtCyclesToTime(u_observer_ctx.u_dur_t / u_observer_ctx.nodes[0].n_runs, &t);
 396:X-CUBE-AI/App/aiSystemPerformance.c ****   printf("  user    : %d.%03dms (time passed in the user cb)\n", t.s * 1000 + t.ms, t.us);
 397:X-CUBE-AI/App/aiSystemPerformance.c **** #if APP_DEBUG == 1
 398:X-CUBE-AI/App/aiSystemPerformance.c ****   printf("  cb #    : %d\n", (int)u_observer_ctx.n_cb);
 399:X-CUBE-AI/App/aiSystemPerformance.c **** #endif
 400:X-CUBE-AI/App/aiSystemPerformance.c **** 
 401:X-CUBE-AI/App/aiSystemPerformance.c ****   printf("\r\n %-6s%-20s%-7s %s\r\n", "c_id", "type", "id", "time (ms)");
 402:X-CUBE-AI/App/aiSystemPerformance.c ****   printf(" -------------------------------------------------\r\n");
 403:X-CUBE-AI/App/aiSystemPerformance.c **** 
 404:X-CUBE-AI/App/aiSystemPerformance.c ****   cumul = 0;
 405:X-CUBE-AI/App/aiSystemPerformance.c ****   node_info.c_idx = 0;
 406:X-CUBE-AI/App/aiSystemPerformance.c ****   while (ai_platform_observer_node_info(net_hdl, &node_info)) {
 407:X-CUBE-AI/App/aiSystemPerformance.c ****     struct u_node_stat *sn = &u_observer_ctx.nodes[node_info.c_idx];
 408:X-CUBE-AI/App/aiSystemPerformance.c ****     const char *fmt;
 409:X-CUBE-AI/App/aiSystemPerformance.c ****     cumul +=  sn->dur;
 410:X-CUBE-AI/App/aiSystemPerformance.c ****     dwtCyclesToTime(sn->dur / (uint64_t)sn->n_runs, &t);
 411:X-CUBE-AI/App/aiSystemPerformance.c ****     if ((node_info.type & (ai_u16)0x8000) >> 15)
 412:X-CUBE-AI/App/aiSystemPerformance.c ****       fmt = " %-6dTD-%-17s%-5d %4d.%03d %6.02f %c\r\n";
 413:X-CUBE-AI/App/aiSystemPerformance.c ****     else
 414:X-CUBE-AI/App/aiSystemPerformance.c ****       fmt = " %-6d%-20s%-5d %4d.%03d %6.02f %c\r\n";
 415:X-CUBE-AI/App/aiSystemPerformance.c **** 
 416:X-CUBE-AI/App/aiSystemPerformance.c ****     printf(fmt, node_info.c_idx,
 417:X-CUBE-AI/App/aiSystemPerformance.c ****         ai_layer_type_name(node_info.type  & (ai_u16)0x7FFF),
 418:X-CUBE-AI/App/aiSystemPerformance.c ****         (int)node_info.id,
 419:X-CUBE-AI/App/aiSystemPerformance.c ****         t.s * 1000 + t.ms, t.us,
 420:X-CUBE-AI/App/aiSystemPerformance.c ****         ((float)u_observer_ctx.nodes[node_info.c_idx].dur * 100.0f) / (float)u_observer_ctx.k_dur_t
 421:X-CUBE-AI/App/aiSystemPerformance.c ****         '%');
 422:X-CUBE-AI/App/aiSystemPerformance.c ****     node_info.c_idx++;
 423:X-CUBE-AI/App/aiSystemPerformance.c ****   }
 424:X-CUBE-AI/App/aiSystemPerformance.c **** 
 425:X-CUBE-AI/App/aiSystemPerformance.c ****   printf(" -------------------------------------------------\r\n");
 426:X-CUBE-AI/App/aiSystemPerformance.c ****   cumul /= u_observer_ctx.nodes[0].n_runs;
 427:X-CUBE-AI/App/aiSystemPerformance.c ****   dwtCyclesToTime(cumul, &t);
 428:X-CUBE-AI/App/aiSystemPerformance.c ****   printf(" %31s %4d.%03d ms\r\n", "", t.s * 1000 + t.ms, t.us);
 429:X-CUBE-AI/App/aiSystemPerformance.c **** 
 430:X-CUBE-AI/App/aiSystemPerformance.c ****   free(u_observer_ctx.nodes);
 431:X-CUBE-AI/App/aiSystemPerformance.c ****   memset((void *)&u_observer_ctx, 0, sizeof(struct u_observer_ctx));
ARM GAS  C:\Users\zacfi\AppData\Local\Temp\ccazi6oi.s 			page 28


 432:X-CUBE-AI/App/aiSystemPerformance.c **** 
 433:X-CUBE-AI/App/aiSystemPerformance.c ****   return;
 434:X-CUBE-AI/App/aiSystemPerformance.c **** }
 435:X-CUBE-AI/App/aiSystemPerformance.c **** #endif
 436:X-CUBE-AI/App/aiSystemPerformance.c **** 
 437:X-CUBE-AI/App/aiSystemPerformance.c **** 
 438:X-CUBE-AI/App/aiSystemPerformance.c **** /* -----------------------------------------------------------------------------
 439:X-CUBE-AI/App/aiSystemPerformance.c ****  * Specific APP/test functions
 440:X-CUBE-AI/App/aiSystemPerformance.c ****  * -----------------------------------------------------------------------------
 441:X-CUBE-AI/App/aiSystemPerformance.c ****  */
 442:X-CUBE-AI/App/aiSystemPerformance.c **** 
 443:X-CUBE-AI/App/aiSystemPerformance.c **** static int aiTestPerformance(int idx)
 444:X-CUBE-AI/App/aiSystemPerformance.c **** {
 445:X-CUBE-AI/App/aiSystemPerformance.c ****   int iter;
 446:X-CUBE-AI/App/aiSystemPerformance.c **** #if _APP_FIX_CLK_OVERFLOW == 0
 447:X-CUBE-AI/App/aiSystemPerformance.c ****   uint32_t irqs;
 448:X-CUBE-AI/App/aiSystemPerformance.c **** #endif
 449:X-CUBE-AI/App/aiSystemPerformance.c ****   ai_i32 batch;
 450:X-CUBE-AI/App/aiSystemPerformance.c ****   int niter;
 451:X-CUBE-AI/App/aiSystemPerformance.c **** 
 452:X-CUBE-AI/App/aiSystemPerformance.c ****   struct dwtTime t;
 453:X-CUBE-AI/App/aiSystemPerformance.c ****   uint64_t tcumul;
 454:X-CUBE-AI/App/aiSystemPerformance.c ****   uint64_t tend;
 455:X-CUBE-AI/App/aiSystemPerformance.c ****   uint64_t tmin;
 456:X-CUBE-AI/App/aiSystemPerformance.c ****   uint64_t tmax;
 457:X-CUBE-AI/App/aiSystemPerformance.c ****   uint32_t cmacc;
 458:X-CUBE-AI/App/aiSystemPerformance.c **** 
 459:X-CUBE-AI/App/aiSystemPerformance.c **** #if defined(USE_OBSERVER) && USE_OBSERVER == 1
 460:X-CUBE-AI/App/aiSystemPerformance.c ****   int observer_heap_sz = 0UL;
 461:X-CUBE-AI/App/aiSystemPerformance.c **** #endif
 462:X-CUBE-AI/App/aiSystemPerformance.c **** 
 463:X-CUBE-AI/App/aiSystemPerformance.c ****   ai_buffer ai_input[AI_MNETWORK_IN_NUM];
 464:X-CUBE-AI/App/aiSystemPerformance.c ****   ai_buffer ai_output[AI_MNETWORK_OUT_NUM];
 465:X-CUBE-AI/App/aiSystemPerformance.c **** 
 466:X-CUBE-AI/App/aiSystemPerformance.c ****   if (net_exec_ctx[idx].handle == AI_HANDLE_NULL) {
 467:X-CUBE-AI/App/aiSystemPerformance.c ****     printf("E: network handle is NULL\r\n");
 468:X-CUBE-AI/App/aiSystemPerformance.c ****     return -1;
 469:X-CUBE-AI/App/aiSystemPerformance.c ****   }
 470:X-CUBE-AI/App/aiSystemPerformance.c **** 
 471:X-CUBE-AI/App/aiSystemPerformance.c ****   MON_STACK_INIT();
 472:X-CUBE-AI/App/aiSystemPerformance.c **** 
 473:X-CUBE-AI/App/aiSystemPerformance.c ****   if (profiling_mode)
 474:X-CUBE-AI/App/aiSystemPerformance.c ****     niter = _APP_ITER_ * profiling_factor;
 475:X-CUBE-AI/App/aiSystemPerformance.c ****   else
 476:X-CUBE-AI/App/aiSystemPerformance.c ****     niter = _APP_ITER_;
 477:X-CUBE-AI/App/aiSystemPerformance.c **** 
 478:X-CUBE-AI/App/aiSystemPerformance.c ****   printf("\r\nRunning PerfTest on \"%s\" with random inputs (%d iterations)...\r\n",
 479:X-CUBE-AI/App/aiSystemPerformance.c ****       net_exec_ctx[idx].report.model_name, niter);
 480:X-CUBE-AI/App/aiSystemPerformance.c **** 
 481:X-CUBE-AI/App/aiSystemPerformance.c **** #if APP_DEBUG == 1
 482:X-CUBE-AI/App/aiSystemPerformance.c ****   MON_STACK_STATE("stack before test");
 483:X-CUBE-AI/App/aiSystemPerformance.c **** #endif
 484:X-CUBE-AI/App/aiSystemPerformance.c **** 
 485:X-CUBE-AI/App/aiSystemPerformance.c **** #if _APP_FIX_CLK_OVERFLOW == 0
 486:X-CUBE-AI/App/aiSystemPerformance.c ****   irqs = disableInts();
 487:X-CUBE-AI/App/aiSystemPerformance.c **** #endif
 488:X-CUBE-AI/App/aiSystemPerformance.c **** 
ARM GAS  C:\Users\zacfi\AppData\Local\Temp\ccazi6oi.s 			page 29


 489:X-CUBE-AI/App/aiSystemPerformance.c ****   MON_STACK_CHECK0();
 490:X-CUBE-AI/App/aiSystemPerformance.c **** 
 491:X-CUBE-AI/App/aiSystemPerformance.c ****   /* reset/init cpu clock counters */
 492:X-CUBE-AI/App/aiSystemPerformance.c ****   tcumul = 0ULL;
 493:X-CUBE-AI/App/aiSystemPerformance.c ****   tmin = UINT64_MAX;
 494:X-CUBE-AI/App/aiSystemPerformance.c ****   tmax = 0UL;
 495:X-CUBE-AI/App/aiSystemPerformance.c **** 
 496:X-CUBE-AI/App/aiSystemPerformance.c ****   MON_STACK_MARK();
 497:X-CUBE-AI/App/aiSystemPerformance.c **** 
 498:X-CUBE-AI/App/aiSystemPerformance.c ****   if ((net_exec_ctx[idx].report.n_inputs > AI_MNETWORK_IN_NUM) ||
 499:X-CUBE-AI/App/aiSystemPerformance.c ****       (net_exec_ctx[idx].report.n_outputs > AI_MNETWORK_OUT_NUM))
 500:X-CUBE-AI/App/aiSystemPerformance.c ****   {
 501:X-CUBE-AI/App/aiSystemPerformance.c ****     printf("E: AI_MNETWORK_IN/OUT_NUM definition are incoherent\r\n");
 502:X-CUBE-AI/App/aiSystemPerformance.c ****     HAL_Delay(100);
 503:X-CUBE-AI/App/aiSystemPerformance.c ****     return -1;
 504:X-CUBE-AI/App/aiSystemPerformance.c ****   }
 505:X-CUBE-AI/App/aiSystemPerformance.c **** 
 506:X-CUBE-AI/App/aiSystemPerformance.c ****   /* Fill the input tensor descriptors */
 507:X-CUBE-AI/App/aiSystemPerformance.c ****   for (int i = 0; i < net_exec_ctx[idx].report.n_inputs; i++) {
 508:X-CUBE-AI/App/aiSystemPerformance.c ****     ai_input[i] = net_exec_ctx[idx].report.inputs[i];
 509:X-CUBE-AI/App/aiSystemPerformance.c ****     ai_input[i].n_batches  = 1;
 510:X-CUBE-AI/App/aiSystemPerformance.c ****     if (net_exec_ctx[idx].report.inputs[i].data)
 511:X-CUBE-AI/App/aiSystemPerformance.c ****       ai_input[i].data = AI_HANDLE_PTR(net_exec_ctx[idx].report.inputs[i].data);
 512:X-CUBE-AI/App/aiSystemPerformance.c ****     else
 513:X-CUBE-AI/App/aiSystemPerformance.c ****       ai_input[i].data = AI_HANDLE_PTR(data_ins[i]);
 514:X-CUBE-AI/App/aiSystemPerformance.c ****   }
 515:X-CUBE-AI/App/aiSystemPerformance.c **** 
 516:X-CUBE-AI/App/aiSystemPerformance.c ****   /* Fill the output tensor descriptors */
 517:X-CUBE-AI/App/aiSystemPerformance.c ****   for (int i = 0; i < net_exec_ctx[idx].report.n_outputs; i++) {
 518:X-CUBE-AI/App/aiSystemPerformance.c ****     ai_output[i] = net_exec_ctx[idx].report.outputs[i];
 519:X-CUBE-AI/App/aiSystemPerformance.c ****     ai_output[i].n_batches = 1;
 520:X-CUBE-AI/App/aiSystemPerformance.c ****     if (net_exec_ctx[idx].report.outputs[i].data)
 521:X-CUBE-AI/App/aiSystemPerformance.c ****       ai_output[i].data = AI_HANDLE_PTR(net_exec_ctx[idx].report.outputs[i].data);
 522:X-CUBE-AI/App/aiSystemPerformance.c ****     else
 523:X-CUBE-AI/App/aiSystemPerformance.c ****       ai_output[i].data = AI_HANDLE_PTR(data_outs[i]);
 524:X-CUBE-AI/App/aiSystemPerformance.c ****   }
 525:X-CUBE-AI/App/aiSystemPerformance.c **** 
 526:X-CUBE-AI/App/aiSystemPerformance.c ****   if (profiling_mode) {
 527:X-CUBE-AI/App/aiSystemPerformance.c ****     printf("Profiling mode (%d)...\r\n", profiling_factor);
 528:X-CUBE-AI/App/aiSystemPerformance.c ****     fflush(stdout);
 529:X-CUBE-AI/App/aiSystemPerformance.c ****   }
 530:X-CUBE-AI/App/aiSystemPerformance.c **** 
 531:X-CUBE-AI/App/aiSystemPerformance.c **** #if defined(USE_OBSERVER) && USE_OBSERVER == 1
 532:X-CUBE-AI/App/aiSystemPerformance.c ****   /* Enable observer */
 533:X-CUBE-AI/App/aiSystemPerformance.c ****   if (observer_mode) {
 534:X-CUBE-AI/App/aiSystemPerformance.c ****     MON_ALLOC_RESET();
 535:X-CUBE-AI/App/aiSystemPerformance.c ****     MON_ALLOC_ENABLE();
 536:X-CUBE-AI/App/aiSystemPerformance.c ****     aiObserverInit(&net_exec_ctx[idx]);
 537:X-CUBE-AI/App/aiSystemPerformance.c ****     observer_heap_sz = MON_ALLOC_MAX_USED();
 538:X-CUBE-AI/App/aiSystemPerformance.c ****   }
 539:X-CUBE-AI/App/aiSystemPerformance.c **** #endif
 540:X-CUBE-AI/App/aiSystemPerformance.c **** 
 541:X-CUBE-AI/App/aiSystemPerformance.c ****   MON_ALLOC_RESET();
 542:X-CUBE-AI/App/aiSystemPerformance.c **** 
 543:X-CUBE-AI/App/aiSystemPerformance.c ****   /* Main inference loop */
 544:X-CUBE-AI/App/aiSystemPerformance.c ****   for (iter = 0; iter < niter; iter++) {
 545:X-CUBE-AI/App/aiSystemPerformance.c **** 
ARM GAS  C:\Users\zacfi\AppData\Local\Temp\ccazi6oi.s 			page 30


 546:X-CUBE-AI/App/aiSystemPerformance.c ****     /* Fill input tensors with random data */
 547:X-CUBE-AI/App/aiSystemPerformance.c ****     for (int i = 0; i < net_exec_ctx[idx].report.n_inputs; i++) {
 548:X-CUBE-AI/App/aiSystemPerformance.c ****       const ai_buffer_format fmt = AI_BUFFER_FORMAT(&ai_input[i]);
 549:X-CUBE-AI/App/aiSystemPerformance.c ****       ai_i8 *in_data = (ai_i8 *)ai_input[i].data;
 550:X-CUBE-AI/App/aiSystemPerformance.c ****       for (ai_size j = 0; j < AI_BUFFER_SIZE(&ai_input[i]); ++j) {
 551:X-CUBE-AI/App/aiSystemPerformance.c ****         /* uniform distribution between -1.0 and 1.0 */
 552:X-CUBE-AI/App/aiSystemPerformance.c ****         const float v = 2.0f * (ai_float) rand() / (ai_float) RAND_MAX - 1.0f;
 553:X-CUBE-AI/App/aiSystemPerformance.c ****         if  (AI_BUFFER_FMT_GET_TYPE(fmt) == AI_BUFFER_FMT_TYPE_FLOAT) {
 554:X-CUBE-AI/App/aiSystemPerformance.c ****           *(ai_float *)(in_data + j * 4) = v;
 555:X-CUBE-AI/App/aiSystemPerformance.c ****         }
 556:X-CUBE-AI/App/aiSystemPerformance.c ****         else {
 557:X-CUBE-AI/App/aiSystemPerformance.c ****           in_data[j] = (ai_i8)(v * 127);
 558:X-CUBE-AI/App/aiSystemPerformance.c ****           if (AI_BUFFER_FMT_GET_TYPE(fmt) == AI_BUFFER_FMT_TYPE_BOOL) {
 559:X-CUBE-AI/App/aiSystemPerformance.c ****             in_data[j] = (in_data[j] > 0)?(ai_i8)1:(ai_i8)0;
 560:X-CUBE-AI/App/aiSystemPerformance.c ****           }
 561:X-CUBE-AI/App/aiSystemPerformance.c ****         }
 562:X-CUBE-AI/App/aiSystemPerformance.c ****       }
 563:X-CUBE-AI/App/aiSystemPerformance.c ****     }
 564:X-CUBE-AI/App/aiSystemPerformance.c **** 
 565:X-CUBE-AI/App/aiSystemPerformance.c ****     MON_ALLOC_ENABLE();
 566:X-CUBE-AI/App/aiSystemPerformance.c **** 
 567:X-CUBE-AI/App/aiSystemPerformance.c ****     // free(malloc(20));
 568:X-CUBE-AI/App/aiSystemPerformance.c **** 
 569:X-CUBE-AI/App/aiSystemPerformance.c ****     cyclesCounterStart();
 570:X-CUBE-AI/App/aiSystemPerformance.c ****     batch = ai_mnetwork_run(net_exec_ctx[idx].handle, ai_input, ai_output);
 571:X-CUBE-AI/App/aiSystemPerformance.c ****     if (batch != 1) {
 572:X-CUBE-AI/App/aiSystemPerformance.c ****       aiLogErr(ai_mnetwork_get_error(net_exec_ctx[idx].handle),
 573:X-CUBE-AI/App/aiSystemPerformance.c ****           "ai_mnetwork_run");
 574:X-CUBE-AI/App/aiSystemPerformance.c ****       break;
 575:X-CUBE-AI/App/aiSystemPerformance.c ****     }
 576:X-CUBE-AI/App/aiSystemPerformance.c ****     tend = cyclesCounterEnd();
 577:X-CUBE-AI/App/aiSystemPerformance.c **** 
 578:X-CUBE-AI/App/aiSystemPerformance.c ****     MON_ALLOC_DISABLE();
 579:X-CUBE-AI/App/aiSystemPerformance.c **** 
 580:X-CUBE-AI/App/aiSystemPerformance.c ****     if (tend < tmin)
 581:X-CUBE-AI/App/aiSystemPerformance.c ****       tmin = tend;
 582:X-CUBE-AI/App/aiSystemPerformance.c **** 
 583:X-CUBE-AI/App/aiSystemPerformance.c ****     if (tend > tmax)
 584:X-CUBE-AI/App/aiSystemPerformance.c ****       tmax = tend;
 585:X-CUBE-AI/App/aiSystemPerformance.c **** 
 586:X-CUBE-AI/App/aiSystemPerformance.c ****     tcumul += tend;
 587:X-CUBE-AI/App/aiSystemPerformance.c **** 
 588:X-CUBE-AI/App/aiSystemPerformance.c ****     dwtCyclesToTime(tend, &t);
 589:X-CUBE-AI/App/aiSystemPerformance.c **** 
 590:X-CUBE-AI/App/aiSystemPerformance.c **** #if APP_DEBUG == 1
 591:X-CUBE-AI/App/aiSystemPerformance.c ****     printf(" #%02d %8d.%03dms (%ld cycles)\r\n", iter,
 592:X-CUBE-AI/App/aiSystemPerformance.c ****         t.ms, t.us, (long)tend);
 593:X-CUBE-AI/App/aiSystemPerformance.c **** #else
 594:X-CUBE-AI/App/aiSystemPerformance.c ****     if (!profiling_mode) {
 595:X-CUBE-AI/App/aiSystemPerformance.c ****       if (t.s > 10)
 596:X-CUBE-AI/App/aiSystemPerformance.c ****         niter = iter;
 597:X-CUBE-AI/App/aiSystemPerformance.c ****       printf(".");
 598:X-CUBE-AI/App/aiSystemPerformance.c ****       fflush(stdout);
 599:X-CUBE-AI/App/aiSystemPerformance.c ****     }
 600:X-CUBE-AI/App/aiSystemPerformance.c **** #endif
 601:X-CUBE-AI/App/aiSystemPerformance.c ****   } /* end of the main loop */
 602:X-CUBE-AI/App/aiSystemPerformance.c **** 
ARM GAS  C:\Users\zacfi\AppData\Local\Temp\ccazi6oi.s 			page 31


 603:X-CUBE-AI/App/aiSystemPerformance.c **** #if APP_DEBUG != 1
 604:X-CUBE-AI/App/aiSystemPerformance.c ****   printf("\r\n");
 605:X-CUBE-AI/App/aiSystemPerformance.c **** #endif
 606:X-CUBE-AI/App/aiSystemPerformance.c **** 
 607:X-CUBE-AI/App/aiSystemPerformance.c ****   MON_STACK_EVALUATE();
 608:X-CUBE-AI/App/aiSystemPerformance.c **** 
 609:X-CUBE-AI/App/aiSystemPerformance.c **** #if _APP_FIX_CLK_OVERFLOW == 0
 610:X-CUBE-AI/App/aiSystemPerformance.c ****   restoreInts(irqs);
 611:X-CUBE-AI/App/aiSystemPerformance.c **** #endif
 612:X-CUBE-AI/App/aiSystemPerformance.c **** 
 613:X-CUBE-AI/App/aiSystemPerformance.c ****   printf("\r\n");
 614:X-CUBE-AI/App/aiSystemPerformance.c **** 
 615:X-CUBE-AI/App/aiSystemPerformance.c **** #if defined(USE_OBSERVER) && USE_OBSERVER == 1
 616:X-CUBE-AI/App/aiSystemPerformance.c ****   /* remove the user cb time */
 617:X-CUBE-AI/App/aiSystemPerformance.c ****   tmin = tmin - u_observer_ctx.u_dur_t / (uint64_t)iter;
 618:X-CUBE-AI/App/aiSystemPerformance.c ****   tmax = tmax - u_observer_ctx.u_dur_t / (uint64_t)iter;
 619:X-CUBE-AI/App/aiSystemPerformance.c ****   tcumul -= u_observer_ctx.u_dur_t;
 620:X-CUBE-AI/App/aiSystemPerformance.c **** #endif
 621:X-CUBE-AI/App/aiSystemPerformance.c **** 
 622:X-CUBE-AI/App/aiSystemPerformance.c ****   tcumul /= (uint64_t)iter;
 623:X-CUBE-AI/App/aiSystemPerformance.c **** 
 624:X-CUBE-AI/App/aiSystemPerformance.c ****   dwtCyclesToTime(tcumul, &t);
 625:X-CUBE-AI/App/aiSystemPerformance.c **** 
 626:X-CUBE-AI/App/aiSystemPerformance.c ****   printf("Results for \"%s\", %d inferences @%dMHz/%dMHz (complexity: %d MACC)\r\n",
 627:X-CUBE-AI/App/aiSystemPerformance.c ****       net_exec_ctx[idx].report.model_name, (int)iter,
 628:X-CUBE-AI/App/aiSystemPerformance.c ****       (int)(HAL_RCC_GetSysClockFreq() / 1000000),
 629:X-CUBE-AI/App/aiSystemPerformance.c ****       (int)(HAL_RCC_GetHCLKFreq() / 1000000),
 630:X-CUBE-AI/App/aiSystemPerformance.c ****       (int)net_exec_ctx[idx].report.n_macc);
 631:X-CUBE-AI/App/aiSystemPerformance.c **** 
 632:X-CUBE-AI/App/aiSystemPerformance.c ****   printf(" duration     : %d.%03d ms (average)\r\n", t.s * 1000 + t.ms, t.us);
 633:X-CUBE-AI/App/aiSystemPerformance.c ****   printf(" CPU cycles   : %d -%d/+%d (average,-/+)\r\n",
 634:X-CUBE-AI/App/aiSystemPerformance.c ****       (int)(tcumul), (int)(tcumul - tmin),
 635:X-CUBE-AI/App/aiSystemPerformance.c ****       (int)(tmax - tcumul));
 636:X-CUBE-AI/App/aiSystemPerformance.c ****   printf(" CPU Workload : %d%c (duty cycle = 1s)\r\n", (int)((tcumul * 100) / t.fcpu), '%');
 637:X-CUBE-AI/App/aiSystemPerformance.c ****   cmacc = (uint32_t)((tcumul * 100)/ net_exec_ctx[idx].report.n_macc);
 638:X-CUBE-AI/App/aiSystemPerformance.c ****   printf(" cycles/MACC  : %d.%02d (average for all layers)\r\n",
 639:X-CUBE-AI/App/aiSystemPerformance.c ****       (int)(cmacc / 100), (int)(cmacc - ((cmacc / 100) * 100)));
 640:X-CUBE-AI/App/aiSystemPerformance.c **** 
 641:X-CUBE-AI/App/aiSystemPerformance.c ****   MON_STACK_REPORT();
 642:X-CUBE-AI/App/aiSystemPerformance.c ****   MON_ALLOC_REPORT();
 643:X-CUBE-AI/App/aiSystemPerformance.c **** 
 644:X-CUBE-AI/App/aiSystemPerformance.c **** #if defined(USE_OBSERVER) && USE_OBSERVER == 1
 645:X-CUBE-AI/App/aiSystemPerformance.c ****   printf(" observer res : %d bytes used from the heap (%d c-nodes)\r\n", observer_heap_sz,
 646:X-CUBE-AI/App/aiSystemPerformance.c **** 			(int)net_exec_ctx[idx].report.n_nodes);
 647:X-CUBE-AI/App/aiSystemPerformance.c ****   aiObserverDone(&net_exec_ctx[idx]);
 648:X-CUBE-AI/App/aiSystemPerformance.c **** #endif
 649:X-CUBE-AI/App/aiSystemPerformance.c **** 
 650:X-CUBE-AI/App/aiSystemPerformance.c ****   return 0;
 651:X-CUBE-AI/App/aiSystemPerformance.c **** }
 652:X-CUBE-AI/App/aiSystemPerformance.c **** 
 653:X-CUBE-AI/App/aiSystemPerformance.c **** #define CONS_EVT_TIMEOUT    (0)
 654:X-CUBE-AI/App/aiSystemPerformance.c **** #define CONS_EVT_QUIT       (1)
 655:X-CUBE-AI/App/aiSystemPerformance.c **** #define CONS_EVT_RESTART    (2)
 656:X-CUBE-AI/App/aiSystemPerformance.c **** #define CONS_EVT_HELP       (3)
 657:X-CUBE-AI/App/aiSystemPerformance.c **** #define CONS_EVT_PAUSE      (4)
 658:X-CUBE-AI/App/aiSystemPerformance.c **** #define CONS_EVT_PROF       (5)
 659:X-CUBE-AI/App/aiSystemPerformance.c **** #define CONS_EVT_HIDE       (6)
ARM GAS  C:\Users\zacfi\AppData\Local\Temp\ccazi6oi.s 			page 32


 660:X-CUBE-AI/App/aiSystemPerformance.c **** 
 661:X-CUBE-AI/App/aiSystemPerformance.c **** #define CONS_EVT_UNDEFINED  (100)
 662:X-CUBE-AI/App/aiSystemPerformance.c **** 
 663:X-CUBE-AI/App/aiSystemPerformance.c **** static int aiTestConsole(void)
 664:X-CUBE-AI/App/aiSystemPerformance.c **** {
 681              		.loc 1 664 1 is_stmt 1 view -0
 682              		.cfi_startproc
 683              		@ args = 0, pretend = 0, frame = 8
 684              		@ frame_needed = 0, uses_anonymous_args = 0
 685 0000 00B5     		push	{lr}
 686              	.LCFI10:
 687              		.cfi_def_cfa_offset 4
 688              		.cfi_offset 14, -4
 689 0002 83B0     		sub	sp, sp, #12
 690              	.LCFI11:
 691              		.cfi_def_cfa_offset 16
 665:X-CUBE-AI/App/aiSystemPerformance.c ****   uint8_t c = 0;
 692              		.loc 1 665 3 view .LVU182
 693              		.loc 1 665 11 is_stmt 0 view .LVU183
 694 0004 0023     		movs	r3, #0
 695 0006 8DF80730 		strb	r3, [sp, #7]
 666:X-CUBE-AI/App/aiSystemPerformance.c **** 
 667:X-CUBE-AI/App/aiSystemPerformance.c ****   if (ioRawGetUint8(&c, 5000) == -1) /* Timeout */
 696              		.loc 1 667 3 is_stmt 1 view .LVU184
 697              		.loc 1 667 7 is_stmt 0 view .LVU185
 698 000a 41F28831 		movw	r1, #5000
 699 000e 0DF10700 		add	r0, sp, #7
 700 0012 FFF7FEFF 		bl	ioRawGetUint8
 701              	.LVL56:
 702              		.loc 1 667 6 view .LVU186
 703 0016 B0F1FF3F 		cmp	r0, #-1
 704 001a 1DD0     		beq	.L41
 668:X-CUBE-AI/App/aiSystemPerformance.c ****     return CONS_EVT_TIMEOUT;
 669:X-CUBE-AI/App/aiSystemPerformance.c **** 
 670:X-CUBE-AI/App/aiSystemPerformance.c ****   if ((c == 'q') || (c == 'Q'))
 705              		.loc 1 670 3 is_stmt 1 view .LVU187
 706              		.loc 1 670 10 is_stmt 0 view .LVU188
 707 001c 9DF80730 		ldrb	r3, [sp, #7]	@ zero_extendqisi2
 708              		.loc 1 670 6 view .LVU189
 709 0020 712B     		cmp	r3, #113
 710 0022 1DD0     		beq	.L42
 711              		.loc 1 670 18 discriminator 1 view .LVU190
 712 0024 512B     		cmp	r3, #81
 713 0026 1DD0     		beq	.L43
 671:X-CUBE-AI/App/aiSystemPerformance.c ****     return CONS_EVT_QUIT;
 672:X-CUBE-AI/App/aiSystemPerformance.c **** 
 673:X-CUBE-AI/App/aiSystemPerformance.c ****   if ((c == 'd') || (c == 'D'))
 714              		.loc 1 673 3 is_stmt 1 view .LVU191
 715              		.loc 1 673 6 is_stmt 0 view .LVU192
 716 0028 642B     		cmp	r3, #100
 717 002a 1DD0     		beq	.L44
 718              		.loc 1 673 18 discriminator 1 view .LVU193
 719 002c 442B     		cmp	r3, #68
 720 002e 1DD0     		beq	.L45
 674:X-CUBE-AI/App/aiSystemPerformance.c ****     return CONS_EVT_HIDE;
 675:X-CUBE-AI/App/aiSystemPerformance.c **** 
 676:X-CUBE-AI/App/aiSystemPerformance.c ****   if ((c == 'r') || (c == 'R'))
ARM GAS  C:\Users\zacfi\AppData\Local\Temp\ccazi6oi.s 			page 33


 721              		.loc 1 676 3 is_stmt 1 view .LVU194
 722              		.loc 1 676 6 is_stmt 0 view .LVU195
 723 0030 722B     		cmp	r3, #114
 724 0032 1DD0     		beq	.L46
 725              		.loc 1 676 18 discriminator 1 view .LVU196
 726 0034 522B     		cmp	r3, #82
 727 0036 1DD0     		beq	.L47
 677:X-CUBE-AI/App/aiSystemPerformance.c ****     return CONS_EVT_RESTART;
 678:X-CUBE-AI/App/aiSystemPerformance.c **** 
 679:X-CUBE-AI/App/aiSystemPerformance.c ****   if ((c == 'h') || (c == 'H') || (c == '?'))
 728              		.loc 1 679 3 is_stmt 1 view .LVU197
 729              		.loc 1 679 6 is_stmt 0 view .LVU198
 730 0038 682B     		cmp	r3, #104
 731 003a 1DD0     		beq	.L48
 732              		.loc 1 679 18 discriminator 1 view .LVU199
 733 003c 482B     		cmp	r3, #72
 734 003e 1DD0     		beq	.L49
 735              		.loc 1 679 32 discriminator 2 view .LVU200
 736 0040 3F2B     		cmp	r3, #63
 737 0042 1DD0     		beq	.L50
 680:X-CUBE-AI/App/aiSystemPerformance.c ****     return CONS_EVT_HELP;
 681:X-CUBE-AI/App/aiSystemPerformance.c **** 
 682:X-CUBE-AI/App/aiSystemPerformance.c ****   if ((c == 'p') || (c == 'P'))
 738              		.loc 1 682 3 is_stmt 1 view .LVU201
 739              		.loc 1 682 6 is_stmt 0 view .LVU202
 740 0044 702B     		cmp	r3, #112
 741 0046 1DD0     		beq	.L51
 742              		.loc 1 682 18 discriminator 1 view .LVU203
 743 0048 502B     		cmp	r3, #80
 744 004a 1DD0     		beq	.L52
 683:X-CUBE-AI/App/aiSystemPerformance.c ****     return CONS_EVT_PAUSE;
 684:X-CUBE-AI/App/aiSystemPerformance.c **** 
 685:X-CUBE-AI/App/aiSystemPerformance.c ****   if ((c == 'x') || (c == 'X'))
 745              		.loc 1 685 3 is_stmt 1 view .LVU204
 746              		.loc 1 685 6 is_stmt 0 view .LVU205
 747 004c 782B     		cmp	r3, #120
 748 004e 1DD0     		beq	.L53
 749              		.loc 1 685 18 discriminator 1 view .LVU206
 750 0050 582B     		cmp	r3, #88
 751 0052 1DD0     		beq	.L54
 686:X-CUBE-AI/App/aiSystemPerformance.c ****     return CONS_EVT_PROF;
 687:X-CUBE-AI/App/aiSystemPerformance.c **** 
 688:X-CUBE-AI/App/aiSystemPerformance.c ****   return CONS_EVT_UNDEFINED;
 752              		.loc 1 688 10 view .LVU207
 753 0054 6420     		movs	r0, #100
 754 0056 00E0     		b	.L39
 755              	.L41:
 668:X-CUBE-AI/App/aiSystemPerformance.c **** 
 756              		.loc 1 668 12 view .LVU208
 757 0058 0020     		movs	r0, #0
 758              	.L39:
 689:X-CUBE-AI/App/aiSystemPerformance.c **** }
 759              		.loc 1 689 1 view .LVU209
 760 005a 03B0     		add	sp, sp, #12
 761              	.LCFI12:
 762              		.cfi_remember_state
 763              		.cfi_def_cfa_offset 4
ARM GAS  C:\Users\zacfi\AppData\Local\Temp\ccazi6oi.s 			page 34


 764              		@ sp needed
 765 005c 5DF804FB 		ldr	pc, [sp], #4
 766              	.L42:
 767              	.LCFI13:
 768              		.cfi_restore_state
 671:X-CUBE-AI/App/aiSystemPerformance.c **** 
 769              		.loc 1 671 12 view .LVU210
 770 0060 0120     		movs	r0, #1
 771 0062 FAE7     		b	.L39
 772              	.L43:
 773 0064 0120     		movs	r0, #1
 774 0066 F8E7     		b	.L39
 775              	.L44:
 674:X-CUBE-AI/App/aiSystemPerformance.c **** 
 776              		.loc 1 674 12 view .LVU211
 777 0068 0620     		movs	r0, #6
 778 006a F6E7     		b	.L39
 779              	.L45:
 780 006c 0620     		movs	r0, #6
 781 006e F4E7     		b	.L39
 782              	.L46:
 677:X-CUBE-AI/App/aiSystemPerformance.c **** 
 783              		.loc 1 677 12 view .LVU212
 784 0070 0220     		movs	r0, #2
 785 0072 F2E7     		b	.L39
 786              	.L47:
 787 0074 0220     		movs	r0, #2
 788 0076 F0E7     		b	.L39
 789              	.L48:
 680:X-CUBE-AI/App/aiSystemPerformance.c **** 
 790              		.loc 1 680 12 view .LVU213
 791 0078 0320     		movs	r0, #3
 792 007a EEE7     		b	.L39
 793              	.L49:
 794 007c 0320     		movs	r0, #3
 795 007e ECE7     		b	.L39
 796              	.L50:
 797 0080 0320     		movs	r0, #3
 798 0082 EAE7     		b	.L39
 799              	.L51:
 683:X-CUBE-AI/App/aiSystemPerformance.c **** 
 800              		.loc 1 683 12 view .LVU214
 801 0084 0420     		movs	r0, #4
 802 0086 E8E7     		b	.L39
 803              	.L52:
 804 0088 0420     		movs	r0, #4
 805 008a E6E7     		b	.L39
 806              	.L53:
 686:X-CUBE-AI/App/aiSystemPerformance.c **** 
 807              		.loc 1 686 12 view .LVU215
 808 008c 0520     		movs	r0, #5
 809 008e E4E7     		b	.L39
 810              	.L54:
 811 0090 0520     		movs	r0, #5
 812 0092 E2E7     		b	.L39
 813              		.cfi_endproc
 814              	.LFE147:
ARM GAS  C:\Users\zacfi\AppData\Local\Temp\ccazi6oi.s 			page 35


 816              		.section	.rodata.aiObserverInit.str1.4,"aMS",%progbits,1
 817              		.align	2
 818              	.LC10:
 819 0000 573A2065 		.ascii	"W: enable to allocate the u_node_stats (sz=%d) ..\015"
 819      6E61626C 
 819      6520746F 
 819      20616C6C 
 819      6F636174 
 820 0032 0A00     		.ascii	"\012\000"
 821              		.align	2
 822              	.LC11:
 823 0034 573A2075 		.ascii	"W: unable to register the user CB\015\000"
 823      6E61626C 
 823      6520746F 
 823      20726567 
 823      69737465 
 824              		.section	.text.aiObserverInit,"ax",%progbits
 825              		.align	1
 826              		.global	aiObserverInit
 827              		.syntax unified
 828              		.thumb
 829              		.thumb_func
 830              		.fpu fpv4-sp-d16
 832              	aiObserverInit:
 833              	.LVL57:
 834              	.LFB144:
 336:X-CUBE-AI/App/aiSystemPerformance.c ****   ai_handle  net_hdl;
 835              		.loc 1 336 1 is_stmt 1 view -0
 836              		.cfi_startproc
 837              		@ args = 0, pretend = 0, frame = 56
 838              		@ frame_needed = 0, uses_anonymous_args = 0
 337:X-CUBE-AI/App/aiSystemPerformance.c ****   ai_network_params net_params;
 839              		.loc 1 337 3 view .LVU217
 338:X-CUBE-AI/App/aiSystemPerformance.c ****   ai_bool res;
 840              		.loc 1 338 3 view .LVU218
 339:X-CUBE-AI/App/aiSystemPerformance.c ****   int sz;
 841              		.loc 1 339 3 view .LVU219
 340:X-CUBE-AI/App/aiSystemPerformance.c **** 
 842              		.loc 1 340 3 view .LVU220
 342:X-CUBE-AI/App/aiSystemPerformance.c ****     return;
 843              		.loc 1 342 3 view .LVU221
 342:X-CUBE-AI/App/aiSystemPerformance.c ****     return;
 844              		.loc 1 342 6 is_stmt 0 view .LVU222
 845 0000 0028     		cmp	r0, #0
 846 0002 34D0     		beq	.L62
 336:X-CUBE-AI/App/aiSystemPerformance.c ****   ai_handle  net_hdl;
 847              		.loc 1 336 1 discriminator 1 view .LVU223
 848 0004 30B5     		push	{r4, r5, lr}
 849              	.LCFI14:
 850              		.cfi_def_cfa_offset 12
 851              		.cfi_offset 4, -12
 852              		.cfi_offset 5, -8
 853              		.cfi_offset 14, -4
 854 0006 8FB0     		sub	sp, sp, #60
 855              	.LCFI15:
 856              		.cfi_def_cfa_offset 72
 857 0008 0446     		mov	r4, r0
ARM GAS  C:\Users\zacfi\AppData\Local\Temp\ccazi6oi.s 			page 36


 342:X-CUBE-AI/App/aiSystemPerformance.c ****     return;
 858              		.loc 1 342 27 discriminator 1 view .LVU224
 859 000a 0068     		ldr	r0, [r0]
 860              	.LVL58:
 342:X-CUBE-AI/App/aiSystemPerformance.c ****     return;
 861              		.loc 1 342 16 discriminator 1 view .LVU225
 862 000c 08B1     		cbz	r0, .L56
 342:X-CUBE-AI/App/aiSystemPerformance.c ****     return;
 863              		.loc 1 342 74 discriminator 2 view .LVU226
 864 000e 236F     		ldr	r3, [r4, #112]
 342:X-CUBE-AI/App/aiSystemPerformance.c ****     return;
 865              		.loc 1 342 55 discriminator 2 view .LVU227
 866 0010 0BB9     		cbnz	r3, .L65
 867              	.LVL59:
 868              	.L56:
 370:X-CUBE-AI/App/aiSystemPerformance.c **** 
 869              		.loc 1 370 1 view .LVU228
 870 0012 0FB0     		add	sp, sp, #60
 871              	.LCFI16:
 872              		.cfi_remember_state
 873              		.cfi_def_cfa_offset 12
 874              		@ sp needed
 875 0014 30BD     		pop	{r4, r5, pc}
 876              	.LVL60:
 877              	.L65:
 878              	.LCFI17:
 879              		.cfi_restore_state
 347:X-CUBE-AI/App/aiSystemPerformance.c **** 
 880              		.loc 1 347 3 is_stmt 1 view .LVU229
 881 0016 01AA     		add	r2, sp, #4
 882 0018 0DA9     		add	r1, sp, #52
 883 001a FFF7FEFF 		bl	ai_mnetwork_get_private_handle
 884              	.LVL61:
 349:X-CUBE-AI/App/aiSystemPerformance.c **** 
 885              		.loc 1 349 3 view .LVU230
 886 001e 144D     		ldr	r5, .L67
 887 0020 2822     		movs	r2, #40
 888 0022 0021     		movs	r1, #0
 889 0024 2846     		mov	r0, r5
 890 0026 FFF7FEFF 		bl	memset
 891              	.LVL62:
 352:X-CUBE-AI/App/aiSystemPerformance.c ****   u_observer_ctx.nodes = (struct u_node_stat*)malloc(sz);
 892              		.loc 1 352 3 view .LVU231
 352:X-CUBE-AI/App/aiSystemPerformance.c ****   u_observer_ctx.nodes = (struct u_node_stat*)malloc(sz);
 893              		.loc 1 352 23 is_stmt 0 view .LVU232
 894 002a 246F     		ldr	r4, [r4, #112]
 895              	.LVL63:
 352:X-CUBE-AI/App/aiSystemPerformance.c ****   u_observer_ctx.nodes = (struct u_node_stat*)malloc(sz);
 896              		.loc 1 352 32 view .LVU233
 897 002c 2401     		lsls	r4, r4, #4
 898              	.LVL64:
 353:X-CUBE-AI/App/aiSystemPerformance.c ****   if (!u_observer_ctx.nodes) {
 899              		.loc 1 353 3 is_stmt 1 view .LVU234
 353:X-CUBE-AI/App/aiSystemPerformance.c ****   if (!u_observer_ctx.nodes) {
 900              		.loc 1 353 47 is_stmt 0 view .LVU235
 901 002e 2046     		mov	r0, r4
 902 0030 FFF7FEFF 		bl	malloc
ARM GAS  C:\Users\zacfi\AppData\Local\Temp\ccazi6oi.s 			page 37


 903              	.LVL65:
 353:X-CUBE-AI/App/aiSystemPerformance.c ****   if (!u_observer_ctx.nodes) {
 904              		.loc 1 353 24 view .LVU236
 905 0034 2862     		str	r0, [r5, #32]
 354:X-CUBE-AI/App/aiSystemPerformance.c ****     printf("W: enable to allocate the u_node_stats (sz=%d) ..\r\n", sz);
 906              		.loc 1 354 3 is_stmt 1 view .LVU237
 354:X-CUBE-AI/App/aiSystemPerformance.c ****     printf("W: enable to allocate the u_node_stats (sz=%d) ..\r\n", sz);
 907              		.loc 1 354 6 is_stmt 0 view .LVU238
 908 0036 A8B1     		cbz	r0, .L66
 359:X-CUBE-AI/App/aiSystemPerformance.c **** 
 909              		.loc 1 359 3 is_stmt 1 view .LVU239
 910 0038 2246     		mov	r2, r4
 911 003a 0021     		movs	r1, #0
 912 003c FFF7FEFF 		bl	memset
 913              	.LVL66:
 362:X-CUBE-AI/App/aiSystemPerformance.c ****       (ai_handle)&u_observer_ctx, AI_OBSERVER_PRE_EVT | AI_OBSERVER_POST_EVT);
 914              		.loc 1 362 3 view .LVU240
 362:X-CUBE-AI/App/aiSystemPerformance.c ****       (ai_handle)&u_observer_ctx, AI_OBSERVER_PRE_EVT | AI_OBSERVER_POST_EVT);
 915              		.loc 1 362 9 is_stmt 0 view .LVU241
 916 0040 0623     		movs	r3, #6
 917 0042 0B4A     		ldr	r2, .L67
 918 0044 0B49     		ldr	r1, .L67+4
 919 0046 0D98     		ldr	r0, [sp, #52]
 920 0048 FFF7FEFF 		bl	ai_platform_observer_register
 921              	.LVL67:
 364:X-CUBE-AI/App/aiSystemPerformance.c ****     printf("W: unable to register the user CB\r\n");
 922              		.loc 1 364 3 is_stmt 1 view .LVU242
 364:X-CUBE-AI/App/aiSystemPerformance.c ****     printf("W: unable to register the user CB\r\n");
 923              		.loc 1 364 6 is_stmt 0 view .LVU243
 924 004c 0028     		cmp	r0, #0
 925 004e E0D1     		bne	.L56
 365:X-CUBE-AI/App/aiSystemPerformance.c ****     free(u_observer_ctx.nodes);
 926              		.loc 1 365 5 is_stmt 1 view .LVU244
 927 0050 0948     		ldr	r0, .L67+8
 928              	.LVL68:
 365:X-CUBE-AI/App/aiSystemPerformance.c ****     free(u_observer_ctx.nodes);
 929              		.loc 1 365 5 is_stmt 0 view .LVU245
 930 0052 FFF7FEFF 		bl	puts
 931              	.LVL69:
 366:X-CUBE-AI/App/aiSystemPerformance.c ****     u_observer_ctx.nodes = NULL;
 932              		.loc 1 366 5 is_stmt 1 view .LVU246
 366:X-CUBE-AI/App/aiSystemPerformance.c ****     u_observer_ctx.nodes = NULL;
 933              		.loc 1 366 24 is_stmt 0 view .LVU247
 934 0056 064C     		ldr	r4, .L67
 935              	.LVL70:
 366:X-CUBE-AI/App/aiSystemPerformance.c ****     u_observer_ctx.nodes = NULL;
 936              		.loc 1 366 5 view .LVU248
 937 0058 206A     		ldr	r0, [r4, #32]
 938 005a FFF7FEFF 		bl	free
 939              	.LVL71:
 367:X-CUBE-AI/App/aiSystemPerformance.c ****     return;
 940              		.loc 1 367 5 is_stmt 1 view .LVU249
 367:X-CUBE-AI/App/aiSystemPerformance.c ****     return;
 941              		.loc 1 367 26 is_stmt 0 view .LVU250
 942 005e 0023     		movs	r3, #0
 943 0060 2362     		str	r3, [r4, #32]
 368:X-CUBE-AI/App/aiSystemPerformance.c ****   }
ARM GAS  C:\Users\zacfi\AppData\Local\Temp\ccazi6oi.s 			page 38


 944              		.loc 1 368 5 is_stmt 1 view .LVU251
 945 0062 D6E7     		b	.L56
 946              	.LVL72:
 947              	.L66:
 355:X-CUBE-AI/App/aiSystemPerformance.c ****     return;
 948              		.loc 1 355 5 view .LVU252
 949 0064 2146     		mov	r1, r4
 950 0066 0548     		ldr	r0, .L67+12
 951 0068 FFF7FEFF 		bl	printf
 952              	.LVL73:
 356:X-CUBE-AI/App/aiSystemPerformance.c ****   }
 953              		.loc 1 356 5 view .LVU253
 954 006c D1E7     		b	.L56
 955              	.LVL74:
 956              	.L62:
 957              	.LCFI18:
 958              		.cfi_def_cfa_offset 0
 959              		.cfi_restore 4
 960              		.cfi_restore 5
 961              		.cfi_restore 14
 356:X-CUBE-AI/App/aiSystemPerformance.c ****   }
 962              		.loc 1 356 5 is_stmt 0 view .LVU254
 963 006e 7047     		bx	lr
 964              	.L68:
 965              		.align	2
 966              	.L67:
 967 0070 00000000 		.word	.LANCHOR2
 968 0074 00000000 		.word	user_observer_cb
 969 0078 34000000 		.word	.LC11
 970 007c 00000000 		.word	.LC10
 971              		.cfi_endproc
 972              	.LFE144:
 974              		.section	.rodata.aiObserverDone.str1.4,"aMS",%progbits,1
 975              		.align	2
 976              	.LC12:
 977 0000 20252D36 		.ascii	" %-6d%-20s%-5d %4d.%03d %6.02f %c\015\012\000"
 977      64252D32 
 977      3073252D 
 977      35642025 
 977      34642E25 
 978              		.align	2
 979              	.LC13:
 980 0024 20252D36 		.ascii	" %-6dTD-%-17s%-5d %4d.%03d %6.02f %c\015\012\000"
 980      6454442D 
 980      252D3137 
 980      73252D35 
 980      64202534 
 981 004b 00       		.align	2
 982              	.LC14:
 983 004c 0D0A2049 		.ascii	"\015\012 Inference time by c-node\015\000"
 983      6E666572 
 983      656E6365 
 983      2074696D 
 983      65206279 
 984              		.global	__aeabi_uldivmod
 985 0069 000000   		.align	2
 986              	.LC15:
ARM GAS  C:\Users\zacfi\AppData\Local\Temp\ccazi6oi.s 			page 39


 987 006c 20206B65 		.ascii	"  kernel  : %d.%03dms (time passed in the c-kernel "
 987      726E656C 
 987      20203A20 
 987      25642E25 
 987      3033646D 
 988 009f 66637473 		.ascii	"fcts)\012\000"
 988      290A00
 989 00a6 0000     		.align	2
 990              	.LC16:
 991 00a8 20207573 		.ascii	"  user    : %d.%03dms (time passed in the user cb)\012"
 991      65722020 
 991      20203A20 
 991      25642E25 
 991      3033646D 
 992 00db 00       		.ascii	"\000"
 993              		.align	2
 994              	.LC17:
 995 00dc 696400   		.ascii	"id\000"
 996 00df 00       		.align	2
 997              	.LC18:
 998 00e0 74797065 		.ascii	"type\000"
 998      00
 999 00e5 000000   		.align	2
 1000              	.LC19:
 1001 00e8 635F6964 		.ascii	"c_id\000"
 1001      00
 1002 00ed 000000   		.align	2
 1003              	.LC20:
 1004 00f0 0D0A2025 		.ascii	"\015\012 %-6s%-20s%-7s %s\015\012\000"
 1004      2D367325 
 1004      2D323073 
 1004      252D3773 
 1004      2025730D 
 1005 0106 0000     		.align	2
 1006              	.LC21:
 1007 0108 74696D65 		.ascii	"time (ms)\000"
 1007      20286D73 
 1007      2900
 1008 0112 0000     		.align	2
 1009              	.LC22:
 1010 0114 202D2D2D 		.ascii	" -------------------------------------------------\015"
 1010      2D2D2D2D 
 1010      2D2D2D2D 
 1010      2D2D2D2D 
 1010      2D2D2D2D 
 1011 0147 00       		.ascii	"\000"
 1012              		.global	__aeabi_ul2f
 1013              		.global	__aeabi_f2d
 1014              		.align	2
 1015              	.LC23:
 1016 0148 00       		.ascii	"\000"
 1017 0149 000000   		.align	2
 1018              	.LC24:
 1019 014c 20253331 		.ascii	" %31s %4d.%03d ms\015\012\000"
 1019      73202534 
 1019      642E2530 
 1019      3364206D 
ARM GAS  C:\Users\zacfi\AppData\Local\Temp\ccazi6oi.s 			page 40


 1019      730D0A00 
 1020              		.section	.text.aiObserverDone,"ax",%progbits
 1021              		.align	1
 1022              		.global	aiObserverDone
 1023              		.syntax unified
 1024              		.thumb
 1025              		.thumb_func
 1026              		.fpu fpv4-sp-d16
 1028              	aiObserverDone:
 1029              	.LVL75:
 1030              	.LFB145:
 375:X-CUBE-AI/App/aiSystemPerformance.c ****   ai_handle  net_hdl;
 1031              		.loc 1 375 1 is_stmt 1 view -0
 1032              		.cfi_startproc
 1033              		@ args = 0, pretend = 0, frame = 88
 1034              		@ frame_needed = 0, uses_anonymous_args = 0
 376:X-CUBE-AI/App/aiSystemPerformance.c ****   ai_network_params net_params;
 1035              		.loc 1 376 3 view .LVU256
 377:X-CUBE-AI/App/aiSystemPerformance.c ****   struct dwtTime t;
 1036              		.loc 1 377 3 view .LVU257
 378:X-CUBE-AI/App/aiSystemPerformance.c ****   uint64_t cumul;
 1037              		.loc 1 378 3 view .LVU258
 379:X-CUBE-AI/App/aiSystemPerformance.c ****   ai_observer_node node_info;
 1038              		.loc 1 379 3 view .LVU259
 380:X-CUBE-AI/App/aiSystemPerformance.c **** 
 1039              		.loc 1 380 3 view .LVU260
 382:X-CUBE-AI/App/aiSystemPerformance.c ****       !net_ctx->report.n_nodes || !u_observer_ctx.nodes)
 1040              		.loc 1 382 3 view .LVU261
 382:X-CUBE-AI/App/aiSystemPerformance.c ****       !net_ctx->report.n_nodes || !u_observer_ctx.nodes)
 1041              		.loc 1 382 6 is_stmt 0 view .LVU262
 1042 0000 0028     		cmp	r0, #0
 1043 0002 00F0E080 		beq	.L76
 1044 0006 0346     		mov	r3, r0
 382:X-CUBE-AI/App/aiSystemPerformance.c ****       !net_ctx->report.n_nodes || !u_observer_ctx.nodes)
 1045              		.loc 1 382 27 discriminator 1 view .LVU263
 1046 0008 0068     		ldr	r0, [r0]
 1047              	.LVL76:
 382:X-CUBE-AI/App/aiSystemPerformance.c ****       !net_ctx->report.n_nodes || !u_observer_ctx.nodes)
 1048              		.loc 1 382 16 discriminator 1 view .LVU264
 1049 000a 0028     		cmp	r0, #0
 1050 000c 00F0DB80 		beq	.L76
 383:X-CUBE-AI/App/aiSystemPerformance.c ****     return;
 1051              		.loc 1 383 23 discriminator 2 view .LVU265
 1052 0010 1B6F     		ldr	r3, [r3, #112]
 1053              	.LVL77:
 382:X-CUBE-AI/App/aiSystemPerformance.c ****       !net_ctx->report.n_nodes || !u_observer_ctx.nodes)
 1054              		.loc 1 382 55 discriminator 2 view .LVU266
 1055 0012 002B     		cmp	r3, #0
 1056 0014 00F0D780 		beq	.L76
 383:X-CUBE-AI/App/aiSystemPerformance.c ****     return;
 1057              		.loc 1 383 50 view .LVU267
 1058 0018 6B4B     		ldr	r3, .L81
 1059 001a 1B6A     		ldr	r3, [r3, #32]
 383:X-CUBE-AI/App/aiSystemPerformance.c ****     return;
 1060              		.loc 1 383 32 view .LVU268
 1061 001c 002B     		cmp	r3, #0
 1062 001e 00F0D280 		beq	.L76
ARM GAS  C:\Users\zacfi\AppData\Local\Temp\ccazi6oi.s 			page 41


 375:X-CUBE-AI/App/aiSystemPerformance.c ****   ai_handle  net_hdl;
 1063              		.loc 1 375 1 view .LVU269
 1064 0022 2DE9F04F 		push	{r4, r5, r6, r7, r8, r9, r10, fp, lr}
 1065              	.LCFI19:
 1066              		.cfi_def_cfa_offset 36
 1067              		.cfi_offset 4, -36
 1068              		.cfi_offset 5, -32
 1069              		.cfi_offset 6, -28
 1070              		.cfi_offset 7, -24
 1071              		.cfi_offset 8, -20
 1072              		.cfi_offset 9, -16
 1073              		.cfi_offset 10, -12
 1074              		.cfi_offset 11, -8
 1075              		.cfi_offset 14, -4
 1076 0026 2DED028B 		vpush.64	{d8}
 1077              	.LCFI20:
 1078              		.cfi_def_cfa_offset 44
 1079              		.cfi_offset 80, -44
 1080              		.cfi_offset 81, -40
 1081 002a 9DB0     		sub	sp, sp, #116
 1082              	.LCFI21:
 1083              		.cfi_def_cfa_offset 160
 387:X-CUBE-AI/App/aiSystemPerformance.c **** 
 1084              		.loc 1 387 3 is_stmt 1 view .LVU270
 1085 002c 0FAA     		add	r2, sp, #60
 1086 002e 1BA9     		add	r1, sp, #108
 1087 0030 FFF7FEFF 		bl	ai_mnetwork_get_private_handle
 1088              	.LVL78:
 389:X-CUBE-AI/App/aiSystemPerformance.c ****       (ai_handle)&u_observer_ctx);
 1089              		.loc 1 389 3 view .LVU271
 1090 0034 644C     		ldr	r4, .L81
 1091 0036 2246     		mov	r2, r4
 1092 0038 6449     		ldr	r1, .L81+4
 1093 003a 1B98     		ldr	r0, [sp, #108]
 1094 003c FFF7FEFF 		bl	ai_platform_observer_unregister
 1095              	.LVL79:
 392:X-CUBE-AI/App/aiSystemPerformance.c ****   dwtCyclesToTime(u_observer_ctx.k_dur_t / u_observer_ctx.nodes[0].n_runs, &t);
 1096              		.loc 1 392 3 view .LVU272
 1097 0040 6348     		ldr	r0, .L81+8
 1098 0042 FFF7FEFF 		bl	puts
 1099              	.LVL80:
 393:X-CUBE-AI/App/aiSystemPerformance.c ****   printf("  kernel  : %d.%03dms (time passed in the c-kernel fcts)\n", t.s * 1000 + t.ms, t.us);
 1100              		.loc 1 393 3 view .LVU273
 393:X-CUBE-AI/App/aiSystemPerformance.c ****   printf("  kernel  : %d.%03dms (time passed in the c-kernel fcts)\n", t.s * 1000 + t.ms, t.us);
 1101              		.loc 1 393 58 is_stmt 0 view .LVU274
 1102 0046 236A     		ldr	r3, [r4, #32]
 393:X-CUBE-AI/App/aiSystemPerformance.c ****   printf("  kernel  : %d.%03dms (time passed in the c-kernel fcts)\n", t.s * 1000 + t.ms, t.us);
 1103              		.loc 1 393 67 view .LVU275
 1104 0048 0026     		movs	r6, #0
 393:X-CUBE-AI/App/aiSystemPerformance.c ****   printf("  kernel  : %d.%03dms (time passed in the c-kernel fcts)\n", t.s * 1000 + t.ms, t.us);
 1105              		.loc 1 393 3 view .LVU276
 1106 004a 9A68     		ldr	r2, [r3, #8]
 1107 004c 3346     		mov	r3, r6
 1108 004e D4E90601 		ldrd	r0, [r4, #24]
 1109 0052 FFF7FEFF 		bl	__aeabi_uldivmod
 1110              	.LVL81:
 1111 0056 0BAA     		add	r2, sp, #44
ARM GAS  C:\Users\zacfi\AppData\Local\Temp\ccazi6oi.s 			page 42


 1112 0058 FFF7FEFF 		bl	dwtCyclesToTime
 1113              	.LVL82:
 394:X-CUBE-AI/App/aiSystemPerformance.c ****   dwtCyclesToTime(u_observer_ctx.u_dur_t / u_observer_ctx.nodes[0].n_runs, &t);
 1114              		.loc 1 394 3 is_stmt 1 view .LVU277
 394:X-CUBE-AI/App/aiSystemPerformance.c ****   dwtCyclesToTime(u_observer_ctx.u_dur_t / u_observer_ctx.nodes[0].n_runs, &t);
 1115              		.loc 1 394 76 is_stmt 0 view .LVU278
 1116 005c 4FF47A75 		mov	r5, #1000
 394:X-CUBE-AI/App/aiSystemPerformance.c ****   dwtCyclesToTime(u_observer_ctx.u_dur_t / u_observer_ctx.nodes[0].n_runs, &t);
 1117              		.loc 1 394 3 view .LVU279
 1118 0060 0E9A     		ldr	r2, [sp, #56]
 1119 0062 0C99     		ldr	r1, [sp, #48]
 1120 0064 0D9B     		ldr	r3, [sp, #52]
 1121 0066 05FB0131 		mla	r1, r5, r1, r3
 1122 006a 5A48     		ldr	r0, .L81+12
 1123 006c FFF7FEFF 		bl	printf
 1124              	.LVL83:
 395:X-CUBE-AI/App/aiSystemPerformance.c ****   printf("  user    : %d.%03dms (time passed in the user cb)\n", t.s * 1000 + t.ms, t.us);
 1125              		.loc 1 395 3 is_stmt 1 view .LVU280
 395:X-CUBE-AI/App/aiSystemPerformance.c ****   printf("  user    : %d.%03dms (time passed in the user cb)\n", t.s * 1000 + t.ms, t.us);
 1126              		.loc 1 395 58 is_stmt 0 view .LVU281
 1127 0070 236A     		ldr	r3, [r4, #32]
 395:X-CUBE-AI/App/aiSystemPerformance.c ****   printf("  user    : %d.%03dms (time passed in the user cb)\n", t.s * 1000 + t.ms, t.us);
 1128              		.loc 1 395 3 view .LVU282
 1129 0072 9A68     		ldr	r2, [r3, #8]
 1130 0074 3346     		mov	r3, r6
 1131 0076 D4E90401 		ldrd	r0, [r4, #16]
 1132 007a FFF7FEFF 		bl	__aeabi_uldivmod
 1133              	.LVL84:
 1134 007e 0BAA     		add	r2, sp, #44
 1135 0080 FFF7FEFF 		bl	dwtCyclesToTime
 1136              	.LVL85:
 396:X-CUBE-AI/App/aiSystemPerformance.c **** #if APP_DEBUG == 1
 1137              		.loc 1 396 3 is_stmt 1 view .LVU283
 1138 0084 0E9A     		ldr	r2, [sp, #56]
 1139 0086 0C99     		ldr	r1, [sp, #48]
 1140 0088 0D9B     		ldr	r3, [sp, #52]
 1141 008a 05FB0131 		mla	r1, r5, r1, r3
 1142 008e 5248     		ldr	r0, .L81+16
 1143 0090 FFF7FEFF 		bl	printf
 1144              	.LVL86:
 401:X-CUBE-AI/App/aiSystemPerformance.c ****   printf(" -------------------------------------------------\r\n");
 1145              		.loc 1 401 3 view .LVU284
 1146 0094 514B     		ldr	r3, .L81+20
 1147 0096 0093     		str	r3, [sp]
 1148 0098 514B     		ldr	r3, .L81+24
 1149 009a 524A     		ldr	r2, .L81+28
 1150 009c 5249     		ldr	r1, .L81+32
 1151 009e 5348     		ldr	r0, .L81+36
 1152 00a0 FFF7FEFF 		bl	printf
 1153              	.LVL87:
 402:X-CUBE-AI/App/aiSystemPerformance.c **** 
 1154              		.loc 1 402 3 view .LVU285
 1155 00a4 5248     		ldr	r0, .L81+40
 1156 00a6 FFF7FEFF 		bl	puts
 1157              	.LVL88:
 404:X-CUBE-AI/App/aiSystemPerformance.c ****   node_info.c_idx = 0;
 1158              		.loc 1 404 3 view .LVU286
ARM GAS  C:\Users\zacfi\AppData\Local\Temp\ccazi6oi.s 			page 43


 405:X-CUBE-AI/App/aiSystemPerformance.c ****   while (ai_platform_observer_node_info(net_hdl, &node_info)) {
 1159              		.loc 1 405 3 view .LVU287
 405:X-CUBE-AI/App/aiSystemPerformance.c ****   while (ai_platform_observer_node_info(net_hdl, &node_info)) {
 1160              		.loc 1 405 19 is_stmt 0 view .LVU288
 1161 00aa ADF81C60 		strh	r6, [sp, #28]	@ movhi
 406:X-CUBE-AI/App/aiSystemPerformance.c ****     struct u_node_stat *sn = &u_observer_ctx.nodes[node_info.c_idx];
 1162              		.loc 1 406 3 is_stmt 1 view .LVU289
 404:X-CUBE-AI/App/aiSystemPerformance.c ****   node_info.c_idx = 0;
 1163              		.loc 1 404 9 is_stmt 0 view .LVU290
 1164 00ae 3546     		mov	r5, r6
 406:X-CUBE-AI/App/aiSystemPerformance.c ****     struct u_node_stat *sn = &u_observer_ctx.nodes[node_info.c_idx];
 1165              		.loc 1 406 9 view .LVU291
 1166 00b0 41E0     		b	.L71
 1167              	.LVL89:
 1168              	.L80:
 1169              	.LBB47:
 412:X-CUBE-AI/App/aiSystemPerformance.c ****     else
 1170              		.loc 1 412 11 view .LVU292
 1171 00b2 DFF84CA1 		ldr	r10, .L81+56
 1172              	.L72:
 1173              	.LVL90:
 416:X-CUBE-AI/App/aiSystemPerformance.c ****         ai_layer_type_name(node_info.type  & (ai_u16)0x7FFF),
 1174              		.loc 1 416 5 is_stmt 1 view .LVU293
 416:X-CUBE-AI/App/aiSystemPerformance.c ****         ai_layer_type_name(node_info.type  & (ai_u16)0x7FFF),
 1175              		.loc 1 416 26 is_stmt 0 view .LVU294
 1176 00b6 BDF81C80 		ldrh	r8, [sp, #28]
 416:X-CUBE-AI/App/aiSystemPerformance.c ****         ai_layer_type_name(node_info.type  & (ai_u16)0x7FFF),
 1177              		.loc 1 416 5 view .LVU295
 1178 00ba C0F30E00 		ubfx	r0, r0, #0, #15
 1179 00be FFF7FEFF 		bl	ai_layer_type_name
 1180              	.LVL91:
 1181 00c2 0746     		mov	r7, r0
 418:X-CUBE-AI/App/aiSystemPerformance.c ****         t.s * 1000 + t.ms, t.us,
 1182              		.loc 1 418 23 view .LVU296
 1183 00c4 BDF82090 		ldrh	r9, [sp, #32]
 419:X-CUBE-AI/App/aiSystemPerformance.c ****         ((float)u_observer_ctx.nodes[node_info.c_idx].dur * 100.0f) / (float)u_observer_ctx.k_dur_t
 1184              		.loc 1 419 13 view .LVU297
 1185 00c8 0C9C     		ldr	r4, [sp, #48]
 1186 00ca 4FF47A73 		mov	r3, #1000
 1187 00ce 03FB04F4 		mul	r4, r3, r4
 420:X-CUBE-AI/App/aiSystemPerformance.c ****         '%');
 1188              		.loc 1 420 31 view .LVU298
 1189 00d2 DFF8F4B0 		ldr	fp, .L81
 1190 00d6 DBF82030 		ldr	r3, [fp, #32]
 420:X-CUBE-AI/App/aiSystemPerformance.c ****         '%');
 1191              		.loc 1 420 47 view .LVU299
 1192 00da BDF81C20 		ldrh	r2, [sp, #28]
 420:X-CUBE-AI/App/aiSystemPerformance.c ****         '%');
 1193              		.loc 1 420 37 view .LVU300
 1194 00de 03EB0213 		add	r3, r3, r2, lsl #4
 420:X-CUBE-AI/App/aiSystemPerformance.c ****         '%');
 1195              		.loc 1 420 10 view .LVU301
 1196 00e2 D3E90001 		ldrd	r0, [r3]
 1197 00e6 FFF7FEFF 		bl	__aeabi_ul2f
 1198              	.LVL92:
 1199 00ea 08EE100A 		vmov	s16, r0
 420:X-CUBE-AI/App/aiSystemPerformance.c ****         '%');
ARM GAS  C:\Users\zacfi\AppData\Local\Temp\ccazi6oi.s 			page 44


 1200              		.loc 1 420 59 view .LVU302
 1201 00ee DFED417A 		vldr.32	s15, .L81+44
 1202 00f2 28EE278A 		vmul.f32	s16, s16, s15
 420:X-CUBE-AI/App/aiSystemPerformance.c ****         '%');
 1203              		.loc 1 420 71 view .LVU303
 1204 00f6 DBE90601 		ldrd	r0, [fp, #24]
 1205 00fa FFF7FEFF 		bl	__aeabi_ul2f
 1206              	.LVL93:
 1207 00fe 07EE900A 		vmov	s15, r0
 416:X-CUBE-AI/App/aiSystemPerformance.c ****         ai_layer_type_name(node_info.type  & (ai_u16)0x7FFF),
 1208              		.loc 1 416 5 view .LVU304
 1209 0102 2523     		movs	r3, #37
 1210 0104 0493     		str	r3, [sp, #16]
 1211 0106 C8EE277A 		vdiv.f32	s15, s16, s15
 1212 010a 17EE900A 		vmov	r0, s15
 1213 010e FFF7FEFF 		bl	__aeabi_f2d
 1214              	.LVL94:
 1215 0112 CDE90201 		strd	r0, [sp, #8]
 1216 0116 0E9B     		ldr	r3, [sp, #56]
 1217 0118 0193     		str	r3, [sp, #4]
 1218 011a 0D9B     		ldr	r3, [sp, #52]
 1219 011c 1C44     		add	r4, r4, r3
 1220 011e 0094     		str	r4, [sp]
 1221 0120 4B46     		mov	r3, r9
 1222 0122 3A46     		mov	r2, r7
 1223 0124 4146     		mov	r1, r8
 1224 0126 5046     		mov	r0, r10
 1225 0128 FFF7FEFF 		bl	printf
 1226              	.LVL95:
 422:X-CUBE-AI/App/aiSystemPerformance.c ****   }
 1227              		.loc 1 422 5 is_stmt 1 view .LVU305
 422:X-CUBE-AI/App/aiSystemPerformance.c ****   }
 1228              		.loc 1 422 14 is_stmt 0 view .LVU306
 1229 012c BDF81C20 		ldrh	r2, [sp, #28]
 422:X-CUBE-AI/App/aiSystemPerformance.c ****   }
 1230              		.loc 1 422 20 view .LVU307
 1231 0130 0132     		adds	r2, r2, #1
 1232 0132 ADF81C20 		strh	r2, [sp, #28]	@ movhi
 1233              	.LVL96:
 1234              	.L71:
 422:X-CUBE-AI/App/aiSystemPerformance.c ****   }
 1235              		.loc 1 422 20 view .LVU308
 1236              	.LBE47:
 406:X-CUBE-AI/App/aiSystemPerformance.c ****     struct u_node_stat *sn = &u_observer_ctx.nodes[node_info.c_idx];
 1237              		.loc 1 406 9 is_stmt 1 view .LVU309
 406:X-CUBE-AI/App/aiSystemPerformance.c ****     struct u_node_stat *sn = &u_observer_ctx.nodes[node_info.c_idx];
 1238              		.loc 1 406 10 is_stmt 0 view .LVU310
 1239 0136 07A9     		add	r1, sp, #28
 1240 0138 1B98     		ldr	r0, [sp, #108]
 1241 013a FFF7FEFF 		bl	ai_platform_observer_node_info
 1242              	.LVL97:
 406:X-CUBE-AI/App/aiSystemPerformance.c ****     struct u_node_stat *sn = &u_observer_ctx.nodes[node_info.c_idx];
 1243              		.loc 1 406 9 view .LVU311
 1244 013e D8B1     		cbz	r0, .L79
 1245              	.LBB48:
 407:X-CUBE-AI/App/aiSystemPerformance.c ****     const char *fmt;
 1246              		.loc 1 407 5 is_stmt 1 view .LVU312
ARM GAS  C:\Users\zacfi\AppData\Local\Temp\ccazi6oi.s 			page 45


 407:X-CUBE-AI/App/aiSystemPerformance.c ****     const char *fmt;
 1247              		.loc 1 407 45 is_stmt 0 view .LVU313
 1248 0140 214B     		ldr	r3, .L81
 1249 0142 1B6A     		ldr	r3, [r3, #32]
 407:X-CUBE-AI/App/aiSystemPerformance.c ****     const char *fmt;
 1250              		.loc 1 407 61 view .LVU314
 1251 0144 BDF81C20 		ldrh	r2, [sp, #28]
 407:X-CUBE-AI/App/aiSystemPerformance.c ****     const char *fmt;
 1252              		.loc 1 407 51 view .LVU315
 1253 0148 1101     		lsls	r1, r2, #4
 407:X-CUBE-AI/App/aiSystemPerformance.c ****     const char *fmt;
 1254              		.loc 1 407 25 view .LVU316
 1255 014a 03EB0212 		add	r2, r3, r2, lsl #4
 1256              	.LVL98:
 408:X-CUBE-AI/App/aiSystemPerformance.c ****     cumul +=  sn->dur;
 1257              		.loc 1 408 5 is_stmt 1 view .LVU317
 409:X-CUBE-AI/App/aiSystemPerformance.c ****     dwtCyclesToTime(sn->dur / (uint64_t)sn->n_runs, &t);
 1258              		.loc 1 409 5 view .LVU318
 409:X-CUBE-AI/App/aiSystemPerformance.c ****     dwtCyclesToTime(sn->dur / (uint64_t)sn->n_runs, &t);
 1259              		.loc 1 409 17 is_stmt 0 view .LVU319
 1260 014e 5858     		ldr	r0, [r3, r1]
 1261 0150 5168     		ldr	r1, [r2, #4]
 409:X-CUBE-AI/App/aiSystemPerformance.c ****     dwtCyclesToTime(sn->dur / (uint64_t)sn->n_runs, &t);
 1262              		.loc 1 409 11 view .LVU320
 1263 0152 4519     		adds	r5, r0, r5
 1264              	.LVL99:
 409:X-CUBE-AI/App/aiSystemPerformance.c ****     dwtCyclesToTime(sn->dur / (uint64_t)sn->n_runs, &t);
 1265              		.loc 1 409 11 view .LVU321
 1266 0154 41EB0606 		adc	r6, r1, r6
 1267              	.LVL100:
 410:X-CUBE-AI/App/aiSystemPerformance.c ****     if ((node_info.type & (ai_u16)0x8000) >> 15)
 1268              		.loc 1 410 5 is_stmt 1 view .LVU322
 1269 0158 9268     		ldr	r2, [r2, #8]
 1270              	.LVL101:
 410:X-CUBE-AI/App/aiSystemPerformance.c ****     if ((node_info.type & (ai_u16)0x8000) >> 15)
 1271              		.loc 1 410 5 is_stmt 0 view .LVU323
 1272 015a 0023     		movs	r3, #0
 1273              	.LVL102:
 410:X-CUBE-AI/App/aiSystemPerformance.c ****     if ((node_info.type & (ai_u16)0x8000) >> 15)
 1274              		.loc 1 410 5 view .LVU324
 1275 015c FFF7FEFF 		bl	__aeabi_uldivmod
 1276              	.LVL103:
 410:X-CUBE-AI/App/aiSystemPerformance.c ****     if ((node_info.type & (ai_u16)0x8000) >> 15)
 1277              		.loc 1 410 5 view .LVU325
 1278 0160 0BAA     		add	r2, sp, #44
 1279 0162 FFF7FEFF 		bl	dwtCyclesToTime
 1280              	.LVL104:
 411:X-CUBE-AI/App/aiSystemPerformance.c ****       fmt = " %-6dTD-%-17s%-5d %4d.%03d %6.02f %c\r\n";
 1281              		.loc 1 411 5 is_stmt 1 view .LVU326
 411:X-CUBE-AI/App/aiSystemPerformance.c ****       fmt = " %-6dTD-%-17s%-5d %4d.%03d %6.02f %c\r\n";
 1282              		.loc 1 411 19 is_stmt 0 view .LVU327
 1283 0166 BDF81E00 		ldrh	r0, [sp, #30]
 411:X-CUBE-AI/App/aiSystemPerformance.c ****       fmt = " %-6dTD-%-17s%-5d %4d.%03d %6.02f %c\r\n";
 1284              		.loc 1 411 9 view .LVU328
 1285 016a BDF91E30 		ldrsh	r3, [sp, #30]
 411:X-CUBE-AI/App/aiSystemPerformance.c ****       fmt = " %-6dTD-%-17s%-5d %4d.%03d %6.02f %c\r\n";
 1286              		.loc 1 411 8 view .LVU329
ARM GAS  C:\Users\zacfi\AppData\Local\Temp\ccazi6oi.s 			page 46


 1287 016e 002B     		cmp	r3, #0
 1288 0170 9FDB     		blt	.L80
 414:X-CUBE-AI/App/aiSystemPerformance.c **** 
 1289              		.loc 1 414 11 view .LVU330
 1290 0172 DFF890A0 		ldr	r10, .L81+60
 1291 0176 9EE7     		b	.L72
 1292              	.L79:
 414:X-CUBE-AI/App/aiSystemPerformance.c **** 
 1293              		.loc 1 414 11 view .LVU331
 1294              	.LBE48:
 425:X-CUBE-AI/App/aiSystemPerformance.c ****   cumul /= u_observer_ctx.nodes[0].n_runs;
 1295              		.loc 1 425 3 is_stmt 1 view .LVU332
 1296 0178 1D48     		ldr	r0, .L81+40
 1297 017a FFF7FEFF 		bl	puts
 1298              	.LVL105:
 426:X-CUBE-AI/App/aiSystemPerformance.c ****   dwtCyclesToTime(cumul, &t);
 1299              		.loc 1 426 3 view .LVU333
 426:X-CUBE-AI/App/aiSystemPerformance.c ****   dwtCyclesToTime(cumul, &t);
 1300              		.loc 1 426 26 is_stmt 0 view .LVU334
 1301 017e 124C     		ldr	r4, .L81
 1302 0180 236A     		ldr	r3, [r4, #32]
 426:X-CUBE-AI/App/aiSystemPerformance.c ****   dwtCyclesToTime(cumul, &t);
 1303              		.loc 1 426 35 view .LVU335
 1304 0182 0027     		movs	r7, #0
 426:X-CUBE-AI/App/aiSystemPerformance.c ****   dwtCyclesToTime(cumul, &t);
 1305              		.loc 1 426 9 view .LVU336
 1306 0184 9A68     		ldr	r2, [r3, #8]
 1307 0186 3B46     		mov	r3, r7
 1308 0188 2846     		mov	r0, r5
 1309 018a 3146     		mov	r1, r6
 1310 018c FFF7FEFF 		bl	__aeabi_uldivmod
 1311              	.LVL106:
 427:X-CUBE-AI/App/aiSystemPerformance.c ****   printf(" %31s %4d.%03d ms\r\n", "", t.s * 1000 + t.ms, t.us);
 1312              		.loc 1 427 3 is_stmt 1 view .LVU337
 1313 0190 0BAA     		add	r2, sp, #44
 1314 0192 FFF7FEFF 		bl	dwtCyclesToTime
 1315              	.LVL107:
 428:X-CUBE-AI/App/aiSystemPerformance.c **** 
 1316              		.loc 1 428 3 view .LVU338
 1317 0196 0E9B     		ldr	r3, [sp, #56]
 1318 0198 0C9A     		ldr	r2, [sp, #48]
 1319 019a 0D99     		ldr	r1, [sp, #52]
 1320 019c 4FF47A70 		mov	r0, #1000
 1321 01a0 00FB0212 		mla	r2, r0, r2, r1
 1322 01a4 1449     		ldr	r1, .L81+48
 1323 01a6 1548     		ldr	r0, .L81+52
 1324 01a8 FFF7FEFF 		bl	printf
 1325              	.LVL108:
 430:X-CUBE-AI/App/aiSystemPerformance.c ****   memset((void *)&u_observer_ctx, 0, sizeof(struct u_observer_ctx));
 1326              		.loc 1 430 3 view .LVU339
 1327 01ac 206A     		ldr	r0, [r4, #32]
 1328 01ae FFF7FEFF 		bl	free
 1329              	.LVL109:
 431:X-CUBE-AI/App/aiSystemPerformance.c **** 
 1330              		.loc 1 431 3 view .LVU340
 1331 01b2 2822     		movs	r2, #40
 1332 01b4 3946     		mov	r1, r7
ARM GAS  C:\Users\zacfi\AppData\Local\Temp\ccazi6oi.s 			page 47


 1333 01b6 2046     		mov	r0, r4
 1334 01b8 FFF7FEFF 		bl	memset
 1335              	.LVL110:
 433:X-CUBE-AI/App/aiSystemPerformance.c **** }
 1336              		.loc 1 433 3 view .LVU341
 434:X-CUBE-AI/App/aiSystemPerformance.c **** #endif
 1337              		.loc 1 434 1 is_stmt 0 view .LVU342
 1338 01bc 1DB0     		add	sp, sp, #116
 1339              	.LCFI22:
 1340              		.cfi_def_cfa_offset 44
 1341              		@ sp needed
 1342 01be BDEC028B 		vldm	sp!, {d8}
 1343              	.LCFI23:
 1344              		.cfi_restore 80
 1345              		.cfi_restore 81
 1346              		.cfi_def_cfa_offset 36
 1347 01c2 BDE8F08F 		pop	{r4, r5, r6, r7, r8, r9, r10, fp, pc}
 1348              	.L76:
 1349              	.LCFI24:
 1350              		.cfi_def_cfa_offset 0
 1351              		.cfi_restore 4
 1352              		.cfi_restore 5
 1353              		.cfi_restore 6
 1354              		.cfi_restore 7
 1355              		.cfi_restore 8
 1356              		.cfi_restore 9
 1357              		.cfi_restore 10
 1358              		.cfi_restore 11
 1359              		.cfi_restore 14
 434:X-CUBE-AI/App/aiSystemPerformance.c **** #endif
 1360              		.loc 1 434 1 view .LVU343
 1361 01c6 7047     		bx	lr
 1362              	.L82:
 1363              		.align	2
 1364              	.L81:
 1365 01c8 00000000 		.word	.LANCHOR2
 1366 01cc 00000000 		.word	user_observer_cb
 1367 01d0 4C000000 		.word	.LC14
 1368 01d4 6C000000 		.word	.LC15
 1369 01d8 A8000000 		.word	.LC16
 1370 01dc 08010000 		.word	.LC21
 1371 01e0 DC000000 		.word	.LC17
 1372 01e4 E0000000 		.word	.LC18
 1373 01e8 E8000000 		.word	.LC19
 1374 01ec F0000000 		.word	.LC20
 1375 01f0 14010000 		.word	.LC22
 1376 01f4 0000C842 		.word	1120403456
 1377 01f8 48010000 		.word	.LC23
 1378 01fc 4C010000 		.word	.LC24
 1379 0200 24000000 		.word	.LC13
 1380 0204 00000000 		.word	.LC12
 1381              		.cfi_endproc
 1382              	.LFE145:
 1384              		.section	.rodata.aiTestPerformance.str1.4,"aMS",%progbits,1
 1385              		.align	2
 1386              	.LC25:
 1387 0000 453A206E 		.ascii	"E: network handle is NULL\015\000"
ARM GAS  C:\Users\zacfi\AppData\Local\Temp\ccazi6oi.s 			page 48


 1387      6574776F 
 1387      726B2068 
 1387      616E646C 
 1387      65206973 
 1388 001b 00       		.align	2
 1389              	.LC26:
 1390 001c 0D0A5275 		.ascii	"\015\012Running PerfTest on \"%s\" with random inpu"
 1390      6E6E696E 
 1390      67205065 
 1390      72665465 
 1390      7374206F 
 1391 0047 74732028 		.ascii	"ts (%d iterations)...\015\012\000"
 1391      25642069 
 1391      74657261 
 1391      74696F6E 
 1391      73292E2E 
 1392 005f 00       		.align	2
 1393              	.LC27:
 1394 0060 453A2021 		.ascii	"E: !current stack address is not coherent 0x%08lx i"
 1394      63757272 
 1394      656E7420 
 1394      73746163 
 1394      6B206164 
 1395 0093 6E737465 		.ascii	"nstead 0x%08lx\015\012\000"
 1395      61642030 
 1395      78253038 
 1395      6C780D0A 
 1395      00
 1396              		.align	2
 1397              	.LC28:
 1398 00a4 453A2041 		.ascii	"E: AI_MNETWORK_IN/OUT_NUM definition are incoherent"
 1398      495F4D4E 
 1398      4554574F 
 1398      524B5F49 
 1398      4E2F4F55 
 1399 00d7 0D00     		.ascii	"\015\000"
 1400 00d9 000000   		.align	2
 1401              	.LC29:
 1402 00dc 50726F66 		.ascii	"Profiling mode (%d)...\015\012\000"
 1402      696C696E 
 1402      67206D6F 
 1402      64652028 
 1402      2564292E 
 1403 00f5 000000   		.align	2
 1404              	.LC30:
 1405 00f8 61695F6D 		.ascii	"ai_mnetwork_run\000"
 1405      6E657477 
 1405      6F726B5F 
 1405      72756E00 
 1406              		.align	2
 1407              	.LC31:
 1408 0108 0D00     		.ascii	"\015\000"
 1409 010a 0000     		.align	2
 1410              	.LC32:
 1411 010c 453A2021 		.ascii	"E: !stack overflow detected > %ld\015\012\000"
 1411      73746163 
 1411      6B206F76 
ARM GAS  C:\Users\zacfi\AppData\Local\Temp\ccazi6oi.s 			page 49


 1411      6572666C 
 1411      6F772064 
 1412              		.align	2
 1413              	.LC33:
 1414 0130 6E6F7465 		.ascii	"note: MIN_STACK_SIZE value/definition should be ver"
 1414      3A204D49 
 1414      4E5F5354 
 1414      41434B5F 
 1414      53495A45 
 1415 0163 69666965 		.ascii	"ified (app_x-cube-ai.h & linker file)\000"
 1415      64202861 
 1415      70705F78 
 1415      2D637562 
 1415      652D6169 
 1416 0189 000000   		.align	2
 1417              	.LC34:
 1418 018c 52657375 		.ascii	"Results for \"%s\", %d inferences @%dMHz/%dMHz (com"
 1418      6C747320 
 1418      666F7220 
 1418      22257322 
 1418      2C202564 
 1419 01bd 706C6578 		.ascii	"plexity: %d MACC)\015\012\000"
 1419      6974793A 
 1419      20256420 
 1419      4D414343 
 1419      290D0A00 
 1420 01d1 000000   		.align	2
 1421              	.LC35:
 1422 01d4 20647572 		.ascii	" duration     : %d.%03d ms (average)\015\012\000"
 1422      6174696F 
 1422      6E202020 
 1422      20203A20 
 1422      25642E25 
 1423 01fb 00       		.align	2
 1424              	.LC36:
 1425 01fc 20435055 		.ascii	" CPU cycles   : %d -%d/+%d (average,-/+)\015\012\000"
 1425      20637963 
 1425      6C657320 
 1425      20203A20 
 1425      2564202D 
 1426 0227 00       		.align	2
 1427              	.LC37:
 1428 0228 20435055 		.ascii	" CPU Workload : %d%c (duty cycle = 1s)\015\012\000"
 1428      20576F72 
 1428      6B6C6F61 
 1428      64203A20 
 1428      25642563 
 1429 0251 000000   		.align	2
 1430              	.LC38:
 1431 0254 20637963 		.ascii	" cycles/MACC  : %d.%02d (average for all layers)\015"
 1431      6C65732F 
 1431      4D414343 
 1431      20203A20 
 1431      25642E25 
 1432 0285 0A00     		.ascii	"\012\000"
 1433 0287 00       		.align	2
 1434              	.LC39:
ARM GAS  C:\Users\zacfi\AppData\Local\Temp\ccazi6oi.s 			page 50


 1435 0288 20757365 		.ascii	" used stack   : %ld bytes\015\012\000"
 1435      64207374 
 1435      61636B20 
 1435      20203A20 
 1435      256C6420 
 1436              		.align	2
 1437              	.LC40:
 1438 02a4 20757365 		.ascii	" used stack   : NOT CALCULATED\015\000"
 1438      64207374 
 1438      61636B20 
 1438      20203A20 
 1438      4E4F5420 
 1439              		.align	2
 1440              	.LC41:
 1441 02c4 20757365 		.ascii	" used heap    : %ld:%ld %ld:%ld (req:allocated,req:"
 1441      64206865 
 1441      61702020 
 1441      20203A20 
 1441      256C643A 
 1442 02f7 72656C65 		.ascii	"released) max=%ld cur=%ld (cfg=%ld)\015\012\000"
 1442      61736564 
 1442      29206D61 
 1442      783D256C 
 1442      64206375 
 1443 031d 000000   		.align	2
 1444              	.LC42:
 1445 0320 206F6273 		.ascii	" observer res : %d bytes used from the heap (%d c-n"
 1445      65727665 
 1445      72207265 
 1445      73203A20 
 1445      25642062 
 1446 0353 6F646573 		.ascii	"odes)\015\012\000"
 1446      290D0A00 
 1447              		.section	.text.aiTestPerformance,"ax",%progbits
 1448              		.align	1
 1449              		.syntax unified
 1450              		.thumb
 1451              		.thumb_func
 1452              		.fpu fpv4-sp-d16
 1454              	aiTestPerformance:
 1455              	.LVL111:
 1456              	.LFB146:
 444:X-CUBE-AI/App/aiSystemPerformance.c ****   int iter;
 1457              		.loc 1 444 1 is_stmt 1 view -0
 1458              		.cfi_startproc
 1459              		@ args = 0, pretend = 0, frame = 120
 1460              		@ frame_needed = 0, uses_anonymous_args = 0
 444:X-CUBE-AI/App/aiSystemPerformance.c ****   int iter;
 1461              		.loc 1 444 1 is_stmt 0 view .LVU345
 1462 0000 2DE9F04F 		push	{r4, r5, r6, r7, r8, r9, r10, fp, lr}
 1463              	.LCFI25:
 1464              		.cfi_def_cfa_offset 36
 1465              		.cfi_offset 4, -36
 1466              		.cfi_offset 5, -32
 1467              		.cfi_offset 6, -28
 1468              		.cfi_offset 7, -24
 1469              		.cfi_offset 8, -20
ARM GAS  C:\Users\zacfi\AppData\Local\Temp\ccazi6oi.s 			page 51


 1470              		.cfi_offset 9, -16
 1471              		.cfi_offset 10, -12
 1472              		.cfi_offset 11, -8
 1473              		.cfi_offset 14, -4
 1474 0004 A3B0     		sub	sp, sp, #140
 1475              	.LCFI26:
 1476              		.cfi_def_cfa_offset 176
 445:X-CUBE-AI/App/aiSystemPerformance.c **** #if _APP_FIX_CLK_OVERFLOW == 0
 1477              		.loc 1 445 3 is_stmt 1 view .LVU346
 449:X-CUBE-AI/App/aiSystemPerformance.c ****   int niter;
 1478              		.loc 1 449 3 view .LVU347
 450:X-CUBE-AI/App/aiSystemPerformance.c **** 
 1479              		.loc 1 450 3 view .LVU348
 452:X-CUBE-AI/App/aiSystemPerformance.c ****   uint64_t tcumul;
 1480              		.loc 1 452 3 view .LVU349
 453:X-CUBE-AI/App/aiSystemPerformance.c ****   uint64_t tend;
 1481              		.loc 1 453 3 view .LVU350
 454:X-CUBE-AI/App/aiSystemPerformance.c ****   uint64_t tmin;
 1482              		.loc 1 454 3 view .LVU351
 455:X-CUBE-AI/App/aiSystemPerformance.c ****   uint64_t tmax;
 1483              		.loc 1 455 3 view .LVU352
 456:X-CUBE-AI/App/aiSystemPerformance.c ****   uint32_t cmacc;
 1484              		.loc 1 456 3 view .LVU353
 457:X-CUBE-AI/App/aiSystemPerformance.c **** 
 1485              		.loc 1 457 3 view .LVU354
 460:X-CUBE-AI/App/aiSystemPerformance.c **** #endif
 1486              		.loc 1 460 3 view .LVU355
 1487              	.LVL112:
 463:X-CUBE-AI/App/aiSystemPerformance.c ****   ai_buffer ai_output[AI_MNETWORK_OUT_NUM];
 1488              		.loc 1 463 3 view .LVU356
 464:X-CUBE-AI/App/aiSystemPerformance.c **** 
 1489              		.loc 1 464 3 view .LVU357
 466:X-CUBE-AI/App/aiSystemPerformance.c ****     printf("E: network handle is NULL\r\n");
 1490              		.loc 1 466 3 view .LVU358
 466:X-CUBE-AI/App/aiSystemPerformance.c ****     printf("E: network handle is NULL\r\n");
 1491              		.loc 1 466 24 is_stmt 0 view .LVU359
 1492 0006 C0EB0012 		rsb	r2, r0, r0, lsl #4
 1493 000a A24B     		ldr	r3, .L143
 1494 000c 53F83230 		ldr	r3, [r3, r2, lsl #3]
 466:X-CUBE-AI/App/aiSystemPerformance.c ****     printf("E: network handle is NULL\r\n");
 1495              		.loc 1 466 6 view .LVU360
 1496 0010 43B3     		cbz	r3, .L135
 1497 0012 0446     		mov	r4, r0
 471:X-CUBE-AI/App/aiSystemPerformance.c **** 
 1498              		.loc 1 471 3 is_stmt 1 view .LVU361
 1499              	.LBB76:
 1500              	.LBI76:
 1501              		.file 3 "Drivers/CMSIS/Include/cmsis_gcc.h"
   1:Drivers/CMSIS/Include/cmsis_gcc.h **** /**************************************************************************//**
   2:Drivers/CMSIS/Include/cmsis_gcc.h ****  * @file     cmsis_gcc.h
   3:Drivers/CMSIS/Include/cmsis_gcc.h ****  * @brief    CMSIS compiler GCC header file
   4:Drivers/CMSIS/Include/cmsis_gcc.h ****  * @version  V5.0.4
   5:Drivers/CMSIS/Include/cmsis_gcc.h ****  * @date     09. April 2018
   6:Drivers/CMSIS/Include/cmsis_gcc.h ****  ******************************************************************************/
   7:Drivers/CMSIS/Include/cmsis_gcc.h **** /*
   8:Drivers/CMSIS/Include/cmsis_gcc.h ****  * Copyright (c) 2009-2018 Arm Limited. All rights reserved.
   9:Drivers/CMSIS/Include/cmsis_gcc.h ****  *
ARM GAS  C:\Users\zacfi\AppData\Local\Temp\ccazi6oi.s 			page 52


  10:Drivers/CMSIS/Include/cmsis_gcc.h ****  * SPDX-License-Identifier: Apache-2.0
  11:Drivers/CMSIS/Include/cmsis_gcc.h ****  *
  12:Drivers/CMSIS/Include/cmsis_gcc.h ****  * Licensed under the Apache License, Version 2.0 (the License); you may
  13:Drivers/CMSIS/Include/cmsis_gcc.h ****  * not use this file except in compliance with the License.
  14:Drivers/CMSIS/Include/cmsis_gcc.h ****  * You may obtain a copy of the License at
  15:Drivers/CMSIS/Include/cmsis_gcc.h ****  *
  16:Drivers/CMSIS/Include/cmsis_gcc.h ****  * www.apache.org/licenses/LICENSE-2.0
  17:Drivers/CMSIS/Include/cmsis_gcc.h ****  *
  18:Drivers/CMSIS/Include/cmsis_gcc.h ****  * Unless required by applicable law or agreed to in writing, software
  19:Drivers/CMSIS/Include/cmsis_gcc.h ****  * distributed under the License is distributed on an AS IS BASIS, WITHOUT
  20:Drivers/CMSIS/Include/cmsis_gcc.h ****  * WARRANTIES OR CONDITIONS OF ANY KIND, either express or implied.
  21:Drivers/CMSIS/Include/cmsis_gcc.h ****  * See the License for the specific language governing permissions and
  22:Drivers/CMSIS/Include/cmsis_gcc.h ****  * limitations under the License.
  23:Drivers/CMSIS/Include/cmsis_gcc.h ****  */
  24:Drivers/CMSIS/Include/cmsis_gcc.h **** 
  25:Drivers/CMSIS/Include/cmsis_gcc.h **** #ifndef __CMSIS_GCC_H
  26:Drivers/CMSIS/Include/cmsis_gcc.h **** #define __CMSIS_GCC_H
  27:Drivers/CMSIS/Include/cmsis_gcc.h **** 
  28:Drivers/CMSIS/Include/cmsis_gcc.h **** /* ignore some GCC warnings */
  29:Drivers/CMSIS/Include/cmsis_gcc.h **** #pragma GCC diagnostic push
  30:Drivers/CMSIS/Include/cmsis_gcc.h **** #pragma GCC diagnostic ignored "-Wsign-conversion"
  31:Drivers/CMSIS/Include/cmsis_gcc.h **** #pragma GCC diagnostic ignored "-Wconversion"
  32:Drivers/CMSIS/Include/cmsis_gcc.h **** #pragma GCC diagnostic ignored "-Wunused-parameter"
  33:Drivers/CMSIS/Include/cmsis_gcc.h **** 
  34:Drivers/CMSIS/Include/cmsis_gcc.h **** /* Fallback for __has_builtin */
  35:Drivers/CMSIS/Include/cmsis_gcc.h **** #ifndef __has_builtin
  36:Drivers/CMSIS/Include/cmsis_gcc.h ****   #define __has_builtin(x) (0)
  37:Drivers/CMSIS/Include/cmsis_gcc.h **** #endif
  38:Drivers/CMSIS/Include/cmsis_gcc.h **** 
  39:Drivers/CMSIS/Include/cmsis_gcc.h **** /* CMSIS compiler specific defines */
  40:Drivers/CMSIS/Include/cmsis_gcc.h **** #ifndef   __ASM
  41:Drivers/CMSIS/Include/cmsis_gcc.h ****   #define __ASM                                  __asm
  42:Drivers/CMSIS/Include/cmsis_gcc.h **** #endif
  43:Drivers/CMSIS/Include/cmsis_gcc.h **** #ifndef   __INLINE
  44:Drivers/CMSIS/Include/cmsis_gcc.h ****   #define __INLINE                               inline
  45:Drivers/CMSIS/Include/cmsis_gcc.h **** #endif
  46:Drivers/CMSIS/Include/cmsis_gcc.h **** #ifndef   __STATIC_INLINE
  47:Drivers/CMSIS/Include/cmsis_gcc.h ****   #define __STATIC_INLINE                        static inline
  48:Drivers/CMSIS/Include/cmsis_gcc.h **** #endif
  49:Drivers/CMSIS/Include/cmsis_gcc.h **** #ifndef   __STATIC_FORCEINLINE                 
  50:Drivers/CMSIS/Include/cmsis_gcc.h ****   #define __STATIC_FORCEINLINE                   __attribute__((always_inline)) static inline
  51:Drivers/CMSIS/Include/cmsis_gcc.h **** #endif                                           
  52:Drivers/CMSIS/Include/cmsis_gcc.h **** #ifndef   __NO_RETURN
  53:Drivers/CMSIS/Include/cmsis_gcc.h ****   #define __NO_RETURN                            __attribute__((__noreturn__))
  54:Drivers/CMSIS/Include/cmsis_gcc.h **** #endif
  55:Drivers/CMSIS/Include/cmsis_gcc.h **** #ifndef   __USED
  56:Drivers/CMSIS/Include/cmsis_gcc.h ****   #define __USED                                 __attribute__((used))
  57:Drivers/CMSIS/Include/cmsis_gcc.h **** #endif
  58:Drivers/CMSIS/Include/cmsis_gcc.h **** #ifndef   __WEAK
  59:Drivers/CMSIS/Include/cmsis_gcc.h ****   #define __WEAK                                 __attribute__((weak))
  60:Drivers/CMSIS/Include/cmsis_gcc.h **** #endif
  61:Drivers/CMSIS/Include/cmsis_gcc.h **** #ifndef   __PACKED
  62:Drivers/CMSIS/Include/cmsis_gcc.h ****   #define __PACKED                               __attribute__((packed, aligned(1)))
  63:Drivers/CMSIS/Include/cmsis_gcc.h **** #endif
  64:Drivers/CMSIS/Include/cmsis_gcc.h **** #ifndef   __PACKED_STRUCT
  65:Drivers/CMSIS/Include/cmsis_gcc.h ****   #define __PACKED_STRUCT                        struct __attribute__((packed, aligned(1)))
  66:Drivers/CMSIS/Include/cmsis_gcc.h **** #endif
ARM GAS  C:\Users\zacfi\AppData\Local\Temp\ccazi6oi.s 			page 53


  67:Drivers/CMSIS/Include/cmsis_gcc.h **** #ifndef   __PACKED_UNION
  68:Drivers/CMSIS/Include/cmsis_gcc.h ****   #define __PACKED_UNION                         union __attribute__((packed, aligned(1)))
  69:Drivers/CMSIS/Include/cmsis_gcc.h **** #endif
  70:Drivers/CMSIS/Include/cmsis_gcc.h **** #ifndef   __UNALIGNED_UINT32        /* deprecated */
  71:Drivers/CMSIS/Include/cmsis_gcc.h ****   #pragma GCC diagnostic push
  72:Drivers/CMSIS/Include/cmsis_gcc.h ****   #pragma GCC diagnostic ignored "-Wpacked"
  73:Drivers/CMSIS/Include/cmsis_gcc.h ****   #pragma GCC diagnostic ignored "-Wattributes"
  74:Drivers/CMSIS/Include/cmsis_gcc.h ****   struct __attribute__((packed)) T_UINT32 { uint32_t v; };
  75:Drivers/CMSIS/Include/cmsis_gcc.h ****   #pragma GCC diagnostic pop
  76:Drivers/CMSIS/Include/cmsis_gcc.h ****   #define __UNALIGNED_UINT32(x)                  (((struct T_UINT32 *)(x))->v)
  77:Drivers/CMSIS/Include/cmsis_gcc.h **** #endif
  78:Drivers/CMSIS/Include/cmsis_gcc.h **** #ifndef   __UNALIGNED_UINT16_WRITE
  79:Drivers/CMSIS/Include/cmsis_gcc.h ****   #pragma GCC diagnostic push
  80:Drivers/CMSIS/Include/cmsis_gcc.h ****   #pragma GCC diagnostic ignored "-Wpacked"
  81:Drivers/CMSIS/Include/cmsis_gcc.h ****   #pragma GCC diagnostic ignored "-Wattributes"
  82:Drivers/CMSIS/Include/cmsis_gcc.h ****   __PACKED_STRUCT T_UINT16_WRITE { uint16_t v; };
  83:Drivers/CMSIS/Include/cmsis_gcc.h ****   #pragma GCC diagnostic pop
  84:Drivers/CMSIS/Include/cmsis_gcc.h ****   #define __UNALIGNED_UINT16_WRITE(addr, val)    (void)((((struct T_UINT16_WRITE *)(void *)(addr))-
  85:Drivers/CMSIS/Include/cmsis_gcc.h **** #endif
  86:Drivers/CMSIS/Include/cmsis_gcc.h **** #ifndef   __UNALIGNED_UINT16_READ
  87:Drivers/CMSIS/Include/cmsis_gcc.h ****   #pragma GCC diagnostic push
  88:Drivers/CMSIS/Include/cmsis_gcc.h ****   #pragma GCC diagnostic ignored "-Wpacked"
  89:Drivers/CMSIS/Include/cmsis_gcc.h ****   #pragma GCC diagnostic ignored "-Wattributes"
  90:Drivers/CMSIS/Include/cmsis_gcc.h ****   __PACKED_STRUCT T_UINT16_READ { uint16_t v; };
  91:Drivers/CMSIS/Include/cmsis_gcc.h ****   #pragma GCC diagnostic pop
  92:Drivers/CMSIS/Include/cmsis_gcc.h ****   #define __UNALIGNED_UINT16_READ(addr)          (((const struct T_UINT16_READ *)(const void *)(add
  93:Drivers/CMSIS/Include/cmsis_gcc.h **** #endif
  94:Drivers/CMSIS/Include/cmsis_gcc.h **** #ifndef   __UNALIGNED_UINT32_WRITE
  95:Drivers/CMSIS/Include/cmsis_gcc.h ****   #pragma GCC diagnostic push
  96:Drivers/CMSIS/Include/cmsis_gcc.h ****   #pragma GCC diagnostic ignored "-Wpacked"
  97:Drivers/CMSIS/Include/cmsis_gcc.h ****   #pragma GCC diagnostic ignored "-Wattributes"
  98:Drivers/CMSIS/Include/cmsis_gcc.h ****   __PACKED_STRUCT T_UINT32_WRITE { uint32_t v; };
  99:Drivers/CMSIS/Include/cmsis_gcc.h ****   #pragma GCC diagnostic pop
 100:Drivers/CMSIS/Include/cmsis_gcc.h ****   #define __UNALIGNED_UINT32_WRITE(addr, val)    (void)((((struct T_UINT32_WRITE *)(void *)(addr))-
 101:Drivers/CMSIS/Include/cmsis_gcc.h **** #endif
 102:Drivers/CMSIS/Include/cmsis_gcc.h **** #ifndef   __UNALIGNED_UINT32_READ
 103:Drivers/CMSIS/Include/cmsis_gcc.h ****   #pragma GCC diagnostic push
 104:Drivers/CMSIS/Include/cmsis_gcc.h ****   #pragma GCC diagnostic ignored "-Wpacked"
 105:Drivers/CMSIS/Include/cmsis_gcc.h ****   #pragma GCC diagnostic ignored "-Wattributes"
 106:Drivers/CMSIS/Include/cmsis_gcc.h ****   __PACKED_STRUCT T_UINT32_READ { uint32_t v; };
 107:Drivers/CMSIS/Include/cmsis_gcc.h ****   #pragma GCC diagnostic pop
 108:Drivers/CMSIS/Include/cmsis_gcc.h ****   #define __UNALIGNED_UINT32_READ(addr)          (((const struct T_UINT32_READ *)(const void *)(add
 109:Drivers/CMSIS/Include/cmsis_gcc.h **** #endif
 110:Drivers/CMSIS/Include/cmsis_gcc.h **** #ifndef   __ALIGNED
 111:Drivers/CMSIS/Include/cmsis_gcc.h ****   #define __ALIGNED(x)                           __attribute__((aligned(x)))
 112:Drivers/CMSIS/Include/cmsis_gcc.h **** #endif
 113:Drivers/CMSIS/Include/cmsis_gcc.h **** #ifndef   __RESTRICT
 114:Drivers/CMSIS/Include/cmsis_gcc.h ****   #define __RESTRICT                             __restrict
 115:Drivers/CMSIS/Include/cmsis_gcc.h **** #endif
 116:Drivers/CMSIS/Include/cmsis_gcc.h **** 
 117:Drivers/CMSIS/Include/cmsis_gcc.h **** 
 118:Drivers/CMSIS/Include/cmsis_gcc.h **** /* ###########################  Core Function Access  ########################### */
 119:Drivers/CMSIS/Include/cmsis_gcc.h **** /** \ingroup  CMSIS_Core_FunctionInterface
 120:Drivers/CMSIS/Include/cmsis_gcc.h ****     \defgroup CMSIS_Core_RegAccFunctions CMSIS Core Register Access Functions
 121:Drivers/CMSIS/Include/cmsis_gcc.h ****   @{
 122:Drivers/CMSIS/Include/cmsis_gcc.h ****  */
 123:Drivers/CMSIS/Include/cmsis_gcc.h **** 
ARM GAS  C:\Users\zacfi\AppData\Local\Temp\ccazi6oi.s 			page 54


 124:Drivers/CMSIS/Include/cmsis_gcc.h **** /**
 125:Drivers/CMSIS/Include/cmsis_gcc.h ****   \brief   Enable IRQ Interrupts
 126:Drivers/CMSIS/Include/cmsis_gcc.h ****   \details Enables IRQ interrupts by clearing the I-bit in the CPSR.
 127:Drivers/CMSIS/Include/cmsis_gcc.h ****            Can only be executed in Privileged modes.
 128:Drivers/CMSIS/Include/cmsis_gcc.h ****  */
 129:Drivers/CMSIS/Include/cmsis_gcc.h **** __STATIC_FORCEINLINE void __enable_irq(void)
 130:Drivers/CMSIS/Include/cmsis_gcc.h **** {
 131:Drivers/CMSIS/Include/cmsis_gcc.h ****   __ASM volatile ("cpsie i" : : : "memory");
 132:Drivers/CMSIS/Include/cmsis_gcc.h **** }
 133:Drivers/CMSIS/Include/cmsis_gcc.h **** 
 134:Drivers/CMSIS/Include/cmsis_gcc.h **** 
 135:Drivers/CMSIS/Include/cmsis_gcc.h **** /**
 136:Drivers/CMSIS/Include/cmsis_gcc.h ****   \brief   Disable IRQ Interrupts
 137:Drivers/CMSIS/Include/cmsis_gcc.h ****   \details Disables IRQ interrupts by setting the I-bit in the CPSR.
 138:Drivers/CMSIS/Include/cmsis_gcc.h ****            Can only be executed in Privileged modes.
 139:Drivers/CMSIS/Include/cmsis_gcc.h ****  */
 140:Drivers/CMSIS/Include/cmsis_gcc.h **** __STATIC_FORCEINLINE void __disable_irq(void)
 141:Drivers/CMSIS/Include/cmsis_gcc.h **** {
 142:Drivers/CMSIS/Include/cmsis_gcc.h ****   __ASM volatile ("cpsid i" : : : "memory");
 143:Drivers/CMSIS/Include/cmsis_gcc.h **** }
 144:Drivers/CMSIS/Include/cmsis_gcc.h **** 
 145:Drivers/CMSIS/Include/cmsis_gcc.h **** 
 146:Drivers/CMSIS/Include/cmsis_gcc.h **** /**
 147:Drivers/CMSIS/Include/cmsis_gcc.h ****   \brief   Get Control Register
 148:Drivers/CMSIS/Include/cmsis_gcc.h ****   \details Returns the content of the Control Register.
 149:Drivers/CMSIS/Include/cmsis_gcc.h ****   \return               Control Register value
 150:Drivers/CMSIS/Include/cmsis_gcc.h ****  */
 151:Drivers/CMSIS/Include/cmsis_gcc.h **** __STATIC_FORCEINLINE uint32_t __get_CONTROL(void)
 1502              		.loc 3 151 31 view .LVU362
 1503              	.LBB77:
 152:Drivers/CMSIS/Include/cmsis_gcc.h **** {
 153:Drivers/CMSIS/Include/cmsis_gcc.h ****   uint32_t result;
 1504              		.loc 3 153 3 view .LVU363
 154:Drivers/CMSIS/Include/cmsis_gcc.h **** 
 155:Drivers/CMSIS/Include/cmsis_gcc.h ****   __ASM volatile ("MRS %0, control" : "=r" (result) );
 1505              		.loc 3 155 3 view .LVU364
 1506              		.syntax unified
 1507              	@ 155 "Drivers/CMSIS/Include/cmsis_gcc.h" 1
 1508 0014 EFF31480 		MRS r0, control
 1509              	@ 0 "" 2
 1510              	.LVL113:
 156:Drivers/CMSIS/Include/cmsis_gcc.h ****   return(result);
 1511              		.loc 3 156 3 view .LVU365
 1512              		.loc 3 156 3 is_stmt 0 view .LVU366
 1513              		.thumb
 1514              		.syntax unified
 1515              	.LBE77:
 1516              	.LBE76:
 1517              	.LBB78:
 1518              	.LBI78:
 157:Drivers/CMSIS/Include/cmsis_gcc.h **** }
 158:Drivers/CMSIS/Include/cmsis_gcc.h **** 
 159:Drivers/CMSIS/Include/cmsis_gcc.h **** 
 160:Drivers/CMSIS/Include/cmsis_gcc.h **** #if (defined (__ARM_FEATURE_CMSE ) && (__ARM_FEATURE_CMSE == 3))
 161:Drivers/CMSIS/Include/cmsis_gcc.h **** /**
 162:Drivers/CMSIS/Include/cmsis_gcc.h ****   \brief   Get Control Register (non-secure)
 163:Drivers/CMSIS/Include/cmsis_gcc.h ****   \details Returns the content of the non-secure Control Register when in secure mode.
ARM GAS  C:\Users\zacfi\AppData\Local\Temp\ccazi6oi.s 			page 55


 164:Drivers/CMSIS/Include/cmsis_gcc.h ****   \return               non-secure Control Register value
 165:Drivers/CMSIS/Include/cmsis_gcc.h ****  */
 166:Drivers/CMSIS/Include/cmsis_gcc.h **** __STATIC_FORCEINLINE uint32_t __TZ_get_CONTROL_NS(void)
 167:Drivers/CMSIS/Include/cmsis_gcc.h **** {
 168:Drivers/CMSIS/Include/cmsis_gcc.h ****   uint32_t result;
 169:Drivers/CMSIS/Include/cmsis_gcc.h **** 
 170:Drivers/CMSIS/Include/cmsis_gcc.h ****   __ASM volatile ("MRS %0, control_ns" : "=r" (result) );
 171:Drivers/CMSIS/Include/cmsis_gcc.h ****   return(result);
 172:Drivers/CMSIS/Include/cmsis_gcc.h **** }
 173:Drivers/CMSIS/Include/cmsis_gcc.h **** #endif
 174:Drivers/CMSIS/Include/cmsis_gcc.h **** 
 175:Drivers/CMSIS/Include/cmsis_gcc.h **** 
 176:Drivers/CMSIS/Include/cmsis_gcc.h **** /**
 177:Drivers/CMSIS/Include/cmsis_gcc.h ****   \brief   Set Control Register
 178:Drivers/CMSIS/Include/cmsis_gcc.h ****   \details Writes the given value to the Control Register.
 179:Drivers/CMSIS/Include/cmsis_gcc.h ****   \param [in]    control  Control Register value to set
 180:Drivers/CMSIS/Include/cmsis_gcc.h ****  */
 181:Drivers/CMSIS/Include/cmsis_gcc.h **** __STATIC_FORCEINLINE void __set_CONTROL(uint32_t control)
 182:Drivers/CMSIS/Include/cmsis_gcc.h **** {
 183:Drivers/CMSIS/Include/cmsis_gcc.h ****   __ASM volatile ("MSR control, %0" : : "r" (control) : "memory");
 184:Drivers/CMSIS/Include/cmsis_gcc.h **** }
 185:Drivers/CMSIS/Include/cmsis_gcc.h **** 
 186:Drivers/CMSIS/Include/cmsis_gcc.h **** 
 187:Drivers/CMSIS/Include/cmsis_gcc.h **** #if (defined (__ARM_FEATURE_CMSE ) && (__ARM_FEATURE_CMSE == 3))
 188:Drivers/CMSIS/Include/cmsis_gcc.h **** /**
 189:Drivers/CMSIS/Include/cmsis_gcc.h ****   \brief   Set Control Register (non-secure)
 190:Drivers/CMSIS/Include/cmsis_gcc.h ****   \details Writes the given value to the non-secure Control Register when in secure state.
 191:Drivers/CMSIS/Include/cmsis_gcc.h ****   \param [in]    control  Control Register value to set
 192:Drivers/CMSIS/Include/cmsis_gcc.h ****  */
 193:Drivers/CMSIS/Include/cmsis_gcc.h **** __STATIC_FORCEINLINE void __TZ_set_CONTROL_NS(uint32_t control)
 194:Drivers/CMSIS/Include/cmsis_gcc.h **** {
 195:Drivers/CMSIS/Include/cmsis_gcc.h ****   __ASM volatile ("MSR control_ns, %0" : : "r" (control) : "memory");
 196:Drivers/CMSIS/Include/cmsis_gcc.h **** }
 197:Drivers/CMSIS/Include/cmsis_gcc.h **** #endif
 198:Drivers/CMSIS/Include/cmsis_gcc.h **** 
 199:Drivers/CMSIS/Include/cmsis_gcc.h **** 
 200:Drivers/CMSIS/Include/cmsis_gcc.h **** /**
 201:Drivers/CMSIS/Include/cmsis_gcc.h ****   \brief   Get IPSR Register
 202:Drivers/CMSIS/Include/cmsis_gcc.h ****   \details Returns the content of the IPSR Register.
 203:Drivers/CMSIS/Include/cmsis_gcc.h ****   \return               IPSR Register value
 204:Drivers/CMSIS/Include/cmsis_gcc.h ****  */
 205:Drivers/CMSIS/Include/cmsis_gcc.h **** __STATIC_FORCEINLINE uint32_t __get_IPSR(void)
 206:Drivers/CMSIS/Include/cmsis_gcc.h **** {
 207:Drivers/CMSIS/Include/cmsis_gcc.h ****   uint32_t result;
 208:Drivers/CMSIS/Include/cmsis_gcc.h **** 
 209:Drivers/CMSIS/Include/cmsis_gcc.h ****   __ASM volatile ("MRS %0, ipsr" : "=r" (result) );
 210:Drivers/CMSIS/Include/cmsis_gcc.h ****   return(result);
 211:Drivers/CMSIS/Include/cmsis_gcc.h **** }
 212:Drivers/CMSIS/Include/cmsis_gcc.h **** 
 213:Drivers/CMSIS/Include/cmsis_gcc.h **** 
 214:Drivers/CMSIS/Include/cmsis_gcc.h **** /**
 215:Drivers/CMSIS/Include/cmsis_gcc.h ****   \brief   Get APSR Register
 216:Drivers/CMSIS/Include/cmsis_gcc.h ****   \details Returns the content of the APSR Register.
 217:Drivers/CMSIS/Include/cmsis_gcc.h ****   \return               APSR Register value
 218:Drivers/CMSIS/Include/cmsis_gcc.h ****  */
 219:Drivers/CMSIS/Include/cmsis_gcc.h **** __STATIC_FORCEINLINE uint32_t __get_APSR(void)
 220:Drivers/CMSIS/Include/cmsis_gcc.h **** {
ARM GAS  C:\Users\zacfi\AppData\Local\Temp\ccazi6oi.s 			page 56


 221:Drivers/CMSIS/Include/cmsis_gcc.h ****   uint32_t result;
 222:Drivers/CMSIS/Include/cmsis_gcc.h **** 
 223:Drivers/CMSIS/Include/cmsis_gcc.h ****   __ASM volatile ("MRS %0, apsr" : "=r" (result) );
 224:Drivers/CMSIS/Include/cmsis_gcc.h ****   return(result);
 225:Drivers/CMSIS/Include/cmsis_gcc.h **** }
 226:Drivers/CMSIS/Include/cmsis_gcc.h **** 
 227:Drivers/CMSIS/Include/cmsis_gcc.h **** 
 228:Drivers/CMSIS/Include/cmsis_gcc.h **** /**
 229:Drivers/CMSIS/Include/cmsis_gcc.h ****   \brief   Get xPSR Register
 230:Drivers/CMSIS/Include/cmsis_gcc.h ****   \details Returns the content of the xPSR Register.
 231:Drivers/CMSIS/Include/cmsis_gcc.h ****   \return               xPSR Register value
 232:Drivers/CMSIS/Include/cmsis_gcc.h ****  */
 233:Drivers/CMSIS/Include/cmsis_gcc.h **** __STATIC_FORCEINLINE uint32_t __get_xPSR(void)
 234:Drivers/CMSIS/Include/cmsis_gcc.h **** {
 235:Drivers/CMSIS/Include/cmsis_gcc.h ****   uint32_t result;
 236:Drivers/CMSIS/Include/cmsis_gcc.h **** 
 237:Drivers/CMSIS/Include/cmsis_gcc.h ****   __ASM volatile ("MRS %0, xpsr" : "=r" (result) );
 238:Drivers/CMSIS/Include/cmsis_gcc.h ****   return(result);
 239:Drivers/CMSIS/Include/cmsis_gcc.h **** }
 240:Drivers/CMSIS/Include/cmsis_gcc.h **** 
 241:Drivers/CMSIS/Include/cmsis_gcc.h **** 
 242:Drivers/CMSIS/Include/cmsis_gcc.h **** /**
 243:Drivers/CMSIS/Include/cmsis_gcc.h ****   \brief   Get Process Stack Pointer
 244:Drivers/CMSIS/Include/cmsis_gcc.h ****   \details Returns the current value of the Process Stack Pointer (PSP).
 245:Drivers/CMSIS/Include/cmsis_gcc.h ****   \return               PSP Register value
 246:Drivers/CMSIS/Include/cmsis_gcc.h ****  */
 247:Drivers/CMSIS/Include/cmsis_gcc.h **** __STATIC_FORCEINLINE uint32_t __get_PSP(void)
 248:Drivers/CMSIS/Include/cmsis_gcc.h **** {
 249:Drivers/CMSIS/Include/cmsis_gcc.h ****   uint32_t result;
 250:Drivers/CMSIS/Include/cmsis_gcc.h **** 
 251:Drivers/CMSIS/Include/cmsis_gcc.h ****   __ASM volatile ("MRS %0, psp"  : "=r" (result) );
 252:Drivers/CMSIS/Include/cmsis_gcc.h ****   return(result);
 253:Drivers/CMSIS/Include/cmsis_gcc.h **** }
 254:Drivers/CMSIS/Include/cmsis_gcc.h **** 
 255:Drivers/CMSIS/Include/cmsis_gcc.h **** 
 256:Drivers/CMSIS/Include/cmsis_gcc.h **** #if (defined (__ARM_FEATURE_CMSE ) && (__ARM_FEATURE_CMSE == 3))
 257:Drivers/CMSIS/Include/cmsis_gcc.h **** /**
 258:Drivers/CMSIS/Include/cmsis_gcc.h ****   \brief   Get Process Stack Pointer (non-secure)
 259:Drivers/CMSIS/Include/cmsis_gcc.h ****   \details Returns the current value of the non-secure Process Stack Pointer (PSP) when in secure s
 260:Drivers/CMSIS/Include/cmsis_gcc.h ****   \return               PSP Register value
 261:Drivers/CMSIS/Include/cmsis_gcc.h ****  */
 262:Drivers/CMSIS/Include/cmsis_gcc.h **** __STATIC_FORCEINLINE uint32_t __TZ_get_PSP_NS(void)
 263:Drivers/CMSIS/Include/cmsis_gcc.h **** {
 264:Drivers/CMSIS/Include/cmsis_gcc.h ****   uint32_t result;
 265:Drivers/CMSIS/Include/cmsis_gcc.h **** 
 266:Drivers/CMSIS/Include/cmsis_gcc.h ****   __ASM volatile ("MRS %0, psp_ns"  : "=r" (result) );
 267:Drivers/CMSIS/Include/cmsis_gcc.h ****   return(result);
 268:Drivers/CMSIS/Include/cmsis_gcc.h **** }
 269:Drivers/CMSIS/Include/cmsis_gcc.h **** #endif
 270:Drivers/CMSIS/Include/cmsis_gcc.h **** 
 271:Drivers/CMSIS/Include/cmsis_gcc.h **** 
 272:Drivers/CMSIS/Include/cmsis_gcc.h **** /**
 273:Drivers/CMSIS/Include/cmsis_gcc.h ****   \brief   Set Process Stack Pointer
 274:Drivers/CMSIS/Include/cmsis_gcc.h ****   \details Assigns the given value to the Process Stack Pointer (PSP).
 275:Drivers/CMSIS/Include/cmsis_gcc.h ****   \param [in]    topOfProcStack  Process Stack Pointer value to set
 276:Drivers/CMSIS/Include/cmsis_gcc.h ****  */
 277:Drivers/CMSIS/Include/cmsis_gcc.h **** __STATIC_FORCEINLINE void __set_PSP(uint32_t topOfProcStack)
ARM GAS  C:\Users\zacfi\AppData\Local\Temp\ccazi6oi.s 			page 57


 278:Drivers/CMSIS/Include/cmsis_gcc.h **** {
 279:Drivers/CMSIS/Include/cmsis_gcc.h ****   __ASM volatile ("MSR psp, %0" : : "r" (topOfProcStack) : );
 280:Drivers/CMSIS/Include/cmsis_gcc.h **** }
 281:Drivers/CMSIS/Include/cmsis_gcc.h **** 
 282:Drivers/CMSIS/Include/cmsis_gcc.h **** 
 283:Drivers/CMSIS/Include/cmsis_gcc.h **** #if (defined (__ARM_FEATURE_CMSE ) && (__ARM_FEATURE_CMSE == 3))
 284:Drivers/CMSIS/Include/cmsis_gcc.h **** /**
 285:Drivers/CMSIS/Include/cmsis_gcc.h ****   \brief   Set Process Stack Pointer (non-secure)
 286:Drivers/CMSIS/Include/cmsis_gcc.h ****   \details Assigns the given value to the non-secure Process Stack Pointer (PSP) when in secure sta
 287:Drivers/CMSIS/Include/cmsis_gcc.h ****   \param [in]    topOfProcStack  Process Stack Pointer value to set
 288:Drivers/CMSIS/Include/cmsis_gcc.h ****  */
 289:Drivers/CMSIS/Include/cmsis_gcc.h **** __STATIC_FORCEINLINE void __TZ_set_PSP_NS(uint32_t topOfProcStack)
 290:Drivers/CMSIS/Include/cmsis_gcc.h **** {
 291:Drivers/CMSIS/Include/cmsis_gcc.h ****   __ASM volatile ("MSR psp_ns, %0" : : "r" (topOfProcStack) : );
 292:Drivers/CMSIS/Include/cmsis_gcc.h **** }
 293:Drivers/CMSIS/Include/cmsis_gcc.h **** #endif
 294:Drivers/CMSIS/Include/cmsis_gcc.h **** 
 295:Drivers/CMSIS/Include/cmsis_gcc.h **** 
 296:Drivers/CMSIS/Include/cmsis_gcc.h **** /**
 297:Drivers/CMSIS/Include/cmsis_gcc.h ****   \brief   Get Main Stack Pointer
 298:Drivers/CMSIS/Include/cmsis_gcc.h ****   \details Returns the current value of the Main Stack Pointer (MSP).
 299:Drivers/CMSIS/Include/cmsis_gcc.h ****   \return               MSP Register value
 300:Drivers/CMSIS/Include/cmsis_gcc.h ****  */
 301:Drivers/CMSIS/Include/cmsis_gcc.h **** __STATIC_FORCEINLINE uint32_t __get_MSP(void)
 1519              		.loc 3 301 31 is_stmt 1 view .LVU367
 1520              	.LBB79:
 302:Drivers/CMSIS/Include/cmsis_gcc.h **** {
 303:Drivers/CMSIS/Include/cmsis_gcc.h ****   uint32_t result;
 1521              		.loc 3 303 3 view .LVU368
 304:Drivers/CMSIS/Include/cmsis_gcc.h **** 
 305:Drivers/CMSIS/Include/cmsis_gcc.h ****   __ASM volatile ("MRS %0, msp" : "=r" (result) );
 1522              		.loc 3 305 3 view .LVU369
 1523              		.syntax unified
 1524              	@ 305 "Drivers/CMSIS/Include/cmsis_gcc.h" 1
 1525 0018 EFF30881 		MRS r1, msp
 1526              	@ 0 "" 2
 1527              	.LVL114:
 306:Drivers/CMSIS/Include/cmsis_gcc.h ****   return(result);
 1528              		.loc 3 306 3 view .LVU370
 1529              		.loc 3 306 3 is_stmt 0 view .LVU371
 1530              		.thumb
 1531              		.syntax unified
 1532              	.LBE79:
 1533              	.LBE78:
 471:X-CUBE-AI/App/aiSystemPerformance.c **** 
 1534              		.loc 1 471 3 view .LVU372
 1535 001c 4FF48052 		mov	r2, #4096
 1536 0020 FFF7FEFF 		bl	stackMonInit
 1537              	.LVL115:
 473:X-CUBE-AI/App/aiSystemPerformance.c ****     niter = _APP_ITER_ * profiling_factor;
 1538              		.loc 1 473 3 is_stmt 1 view .LVU373
 473:X-CUBE-AI/App/aiSystemPerformance.c ****     niter = _APP_ITER_ * profiling_factor;
 1539              		.loc 1 473 7 is_stmt 0 view .LVU374
 1540 0024 9C4B     		ldr	r3, .L143+4
 1541 0026 1B78     		ldrb	r3, [r3]	@ zero_extendqisi2
 473:X-CUBE-AI/App/aiSystemPerformance.c ****     niter = _APP_ITER_ * profiling_factor;
 1542              		.loc 1 473 6 view .LVU375
ARM GAS  C:\Users\zacfi\AppData\Local\Temp\ccazi6oi.s 			page 58


 1543 0028 13B3     		cbz	r3, .L126
 474:X-CUBE-AI/App/aiSystemPerformance.c ****   else
 1544              		.loc 1 474 5 is_stmt 1 view .LVU376
 474:X-CUBE-AI/App/aiSystemPerformance.c ****   else
 1545              		.loc 1 474 24 is_stmt 0 view .LVU377
 1546 002a 9C4B     		ldr	r3, .L143+8
 1547 002c 1B68     		ldr	r3, [r3]
 474:X-CUBE-AI/App/aiSystemPerformance.c ****   else
 1548              		.loc 1 474 11 view .LVU378
 1549 002e 1B01     		lsls	r3, r3, #4
 1550 0030 0C93     		str	r3, [sp, #48]
 1551              	.LVL116:
 1552              	.L86:
 478:X-CUBE-AI/App/aiSystemPerformance.c ****       net_exec_ctx[idx].report.model_name, niter);
 1553              		.loc 1 478 3 is_stmt 1 view .LVU379
 1554 0032 C4EB0413 		rsb	r3, r4, r4, lsl #4
 1555 0036 974A     		ldr	r2, .L143
 1556 0038 02EBC303 		add	r3, r2, r3, lsl #3
 1557 003c 0C9A     		ldr	r2, [sp, #48]
 1558 003e 5968     		ldr	r1, [r3, #4]
 1559 0040 9748     		ldr	r0, .L143+12
 1560 0042 FFF7FEFF 		bl	printf
 1561              	.LVL117:
 489:X-CUBE-AI/App/aiSystemPerformance.c **** 
 1562              		.loc 1 489 3 view .LVU380
 1563              	.LBB80:
 1564              	.LBI80:
 301:Drivers/CMSIS/Include/cmsis_gcc.h **** {
 1565              		.loc 3 301 31 view .LVU381
 1566              	.LBB81:
 303:Drivers/CMSIS/Include/cmsis_gcc.h **** 
 1567              		.loc 3 303 3 view .LVU382
 305:Drivers/CMSIS/Include/cmsis_gcc.h ****   return(result);
 1568              		.loc 3 305 3 view .LVU383
 1569              		.syntax unified
 1570              	@ 305 "Drivers/CMSIS/Include/cmsis_gcc.h" 1
 1571 0046 EFF30883 		MRS r3, msp
 1572              	@ 0 "" 2
 1573              	.LVL118:
 1574              		.loc 3 306 3 view .LVU384
 1575              		.loc 3 306 3 is_stmt 0 view .LVU385
 1576              		.thumb
 1577              		.syntax unified
 1578              	.LBE81:
 1579              	.LBE80:
 489:X-CUBE-AI/App/aiSystemPerformance.c **** 
 1580              		.loc 1 489 3 view .LVU386
 1581 004a 964A     		ldr	r2, .L143+16
 1582 004c 9269     		ldr	r2, [r2, #24]
 1583 004e 9A42     		cmp	r2, r3
 1584 0050 11D1     		bne	.L136
 1585              	.L87:
 489:X-CUBE-AI/App/aiSystemPerformance.c **** 
 1586              		.loc 1 489 21 is_stmt 1 discriminator 3 view .LVU387
 492:X-CUBE-AI/App/aiSystemPerformance.c ****   tmin = UINT64_MAX;
 1587              		.loc 1 492 3 discriminator 3 view .LVU388
 1588              	.LVL119:
ARM GAS  C:\Users\zacfi\AppData\Local\Temp\ccazi6oi.s 			page 59


 493:X-CUBE-AI/App/aiSystemPerformance.c ****   tmax = 0UL;
 1589              		.loc 1 493 3 discriminator 3 view .LVU389
 494:X-CUBE-AI/App/aiSystemPerformance.c **** 
 1590              		.loc 1 494 3 discriminator 3 view .LVU390
 496:X-CUBE-AI/App/aiSystemPerformance.c **** 
 1591              		.loc 1 496 3 discriminator 3 view .LVU391
 1592 0052 944B     		ldr	r3, .L143+16
 1593 0054 1B79     		ldrb	r3, [r3, #4]	@ zero_extendqisi2
 1594 0056 E3B1     		cbz	r3, .L88
 1595              	.LBB82:
 496:X-CUBE-AI/App/aiSystemPerformance.c **** 
 1596              		.loc 1 496 3 discriminator 1 view .LVU392
 1597 0058 924B     		ldr	r3, .L143+16
 1598 005a DB69     		ldr	r3, [r3, #28]
 1599 005c 0333     		adds	r3, r3, #3
 1600 005e 23F00303 		bic	r3, r3, #3
 1601              	.LVL120:
 496:X-CUBE-AI/App/aiSystemPerformance.c **** 
 1602              		.loc 1 496 3 discriminator 1 view .LVU393
 1603 0062 12E0     		b	.L89
 1604              	.LVL121:
 1605              	.L135:
 496:X-CUBE-AI/App/aiSystemPerformance.c **** 
 1606              		.loc 1 496 3 is_stmt 0 discriminator 1 view .LVU394
 1607              	.LBE82:
 467:X-CUBE-AI/App/aiSystemPerformance.c ****     return -1;
 1608              		.loc 1 467 5 is_stmt 1 view .LVU395
 1609 0064 9048     		ldr	r0, .L143+20
 1610              	.LVL122:
 467:X-CUBE-AI/App/aiSystemPerformance.c ****     return -1;
 1611              		.loc 1 467 5 is_stmt 0 view .LVU396
 1612 0066 FFF7FEFF 		bl	puts
 1613              	.LVL123:
 468:X-CUBE-AI/App/aiSystemPerformance.c ****   }
 1614              		.loc 1 468 5 is_stmt 1 view .LVU397
 468:X-CUBE-AI/App/aiSystemPerformance.c ****   }
 1615              		.loc 1 468 12 is_stmt 0 view .LVU398
 1616 006a 4FF0FF30 		mov	r0, #-1
 1617 006e B5E2     		b	.L83
 1618              	.LVL124:
 1619              	.L126:
 476:X-CUBE-AI/App/aiSystemPerformance.c **** 
 1620              		.loc 1 476 11 view .LVU399
 1621 0070 1023     		movs	r3, #16
 1622 0072 0C93     		str	r3, [sp, #48]
 1623 0074 DDE7     		b	.L86
 1624              	.LVL125:
 1625              	.L136:
 489:X-CUBE-AI/App/aiSystemPerformance.c **** 
 1626              		.loc 1 489 3 is_stmt 1 view .LVU400
 1627              	.LBB83:
 1628              	.LBI83:
 301:Drivers/CMSIS/Include/cmsis_gcc.h **** {
 1629              		.loc 3 301 31 view .LVU401
 1630              	.LBB84:
 303:Drivers/CMSIS/Include/cmsis_gcc.h **** 
 1631              		.loc 3 303 3 view .LVU402
ARM GAS  C:\Users\zacfi\AppData\Local\Temp\ccazi6oi.s 			page 60


 305:Drivers/CMSIS/Include/cmsis_gcc.h ****   return(result);
 1632              		.loc 3 305 3 view .LVU403
 1633              		.syntax unified
 1634              	@ 305 "Drivers/CMSIS/Include/cmsis_gcc.h" 1
 1635 0076 EFF30881 		MRS r1, msp
 1636              	@ 0 "" 2
 1637              	.LVL126:
 1638              		.loc 3 306 3 view .LVU404
 1639              		.loc 3 306 3 is_stmt 0 view .LVU405
 1640              		.thumb
 1641              		.syntax unified
 1642              	.LBE84:
 1643              	.LBE83:
 489:X-CUBE-AI/App/aiSystemPerformance.c **** 
 1644              		.loc 1 489 3 view .LVU406
 1645 007a 8C48     		ldr	r0, .L143+24
 1646 007c FFF7FEFF 		bl	printf
 1647              	.LVL127:
 1648 0080 E7E7     		b	.L87
 1649              	.LVL128:
 1650              	.L90:
 1651              	.LBB85:
 496:X-CUBE-AI/App/aiSystemPerformance.c **** 
 1652              		.loc 1 496 3 is_stmt 1 discriminator 5 view .LVU407
 1653 0082 4FF0DE32 		mov	r2, #-555819298
 1654 0086 43F8042B 		str	r2, [r3], #4
 1655              	.LVL129:
 496:X-CUBE-AI/App/aiSystemPerformance.c **** 
 1656              		.loc 1 496 3 discriminator 5 view .LVU408
 1657              	.L89:
 496:X-CUBE-AI/App/aiSystemPerformance.c **** 
 1658              		.loc 1 496 3 discriminator 3 view .LVU409
 1659 008a 864A     		ldr	r2, .L143+16
 1660 008c 9269     		ldr	r2, [r2, #24]
 1661 008e 9A42     		cmp	r2, r3
 1662 0090 F7D8     		bhi	.L90
 1663              	.LVL130:
 1664              	.L88:
 496:X-CUBE-AI/App/aiSystemPerformance.c **** 
 1665              		.loc 1 496 3 is_stmt 0 discriminator 3 view .LVU410
 1666              	.LBE85:
 496:X-CUBE-AI/App/aiSystemPerformance.c **** 
 1667              		.loc 1 496 19 is_stmt 1 discriminator 6 view .LVU411
 498:X-CUBE-AI/App/aiSystemPerformance.c ****       (net_exec_ctx[idx].report.n_outputs > AI_MNETWORK_OUT_NUM))
 1668              		.loc 1 498 3 discriminator 6 view .LVU412
 498:X-CUBE-AI/App/aiSystemPerformance.c ****       (net_exec_ctx[idx].report.n_outputs > AI_MNETWORK_OUT_NUM))
 1669              		.loc 1 498 32 is_stmt 0 discriminator 6 view .LVU413
 1670 0092 C4EB0413 		rsb	r3, r4, r4, lsl #4
 1671 0096 7F4A     		ldr	r2, .L143
 1672 0098 02EBC303 		add	r3, r2, r3, lsl #3
 1673 009c B3F83490 		ldrh	r9, [r3, #52]
 498:X-CUBE-AI/App/aiSystemPerformance.c ****       (net_exec_ctx[idx].report.n_outputs > AI_MNETWORK_OUT_NUM))
 1674              		.loc 1 498 6 discriminator 6 view .LVU414
 1675 00a0 B9F1010F 		cmp	r9, #1
 1676 00a4 0AD8     		bhi	.L91
 499:X-CUBE-AI/App/aiSystemPerformance.c ****   {
 1677              		.loc 1 499 32 discriminator 1 view .LVU415
ARM GAS  C:\Users\zacfi\AppData\Local\Temp\ccazi6oi.s 			page 61


 1678 00a6 C4EB0413 		rsb	r3, r4, r4, lsl #4
 1679 00aa 02EBC303 		add	r3, r2, r3, lsl #3
 1680 00ae B3F836E0 		ldrh	lr, [r3, #54]
 498:X-CUBE-AI/App/aiSystemPerformance.c ****       (net_exec_ctx[idx].report.n_outputs > AI_MNETWORK_OUT_NUM))
 1681              		.loc 1 498 64 discriminator 1 view .LVU416
 1682 00b2 BEF1010F 		cmp	lr, #1
 1683 00b6 01D8     		bhi	.L91
 1684              	.LBB86:
 507:X-CUBE-AI/App/aiSystemPerformance.c ****     ai_input[i] = net_exec_ctx[idx].report.inputs[i];
 1685              		.loc 1 507 12 view .LVU417
 1686 00b8 0025     		movs	r5, #0
 1687 00ba 29E0     		b	.L92
 1688              	.L91:
 1689              	.LBE86:
 501:X-CUBE-AI/App/aiSystemPerformance.c ****     HAL_Delay(100);
 1690              		.loc 1 501 5 is_stmt 1 view .LVU418
 1691 00bc 7C48     		ldr	r0, .L143+28
 1692 00be FFF7FEFF 		bl	puts
 1693              	.LVL131:
 502:X-CUBE-AI/App/aiSystemPerformance.c ****     return -1;
 1694              		.loc 1 502 5 view .LVU419
 1695 00c2 6420     		movs	r0, #100
 1696 00c4 FFF7FEFF 		bl	HAL_Delay
 1697              	.LVL132:
 503:X-CUBE-AI/App/aiSystemPerformance.c ****   }
 1698              		.loc 1 503 5 view .LVU420
 503:X-CUBE-AI/App/aiSystemPerformance.c ****   }
 1699              		.loc 1 503 12 is_stmt 0 view .LVU421
 1700 00c8 4FF0FF30 		mov	r0, #-1
 1701 00cc 86E2     		b	.L83
 1702              	.LVL133:
 1703              	.L95:
 1704              	.LBB87:
 508:X-CUBE-AI/App/aiSystemPerformance.c ****     ai_input[i].n_batches  = 1;
 1705              		.loc 1 508 5 is_stmt 1 view .LVU422
 508:X-CUBE-AI/App/aiSystemPerformance.c ****     ai_input[i].n_batches  = 1;
 1706              		.loc 1 508 43 is_stmt 0 view .LVU423
 1707 00ce C4EB0413 		rsb	r3, r4, r4, lsl #4
 1708 00d2 704A     		ldr	r2, .L143
 1709 00d4 02EBC303 		add	r3, r2, r3, lsl #3
 1710 00d8 9B6B     		ldr	r3, [r3, #56]
 508:X-CUBE-AI/App/aiSystemPerformance.c ****     ai_input[i].n_batches  = 1;
 1711              		.loc 1 508 50 view .LVU424
 1712 00da 05EB450C 		add	ip, r5, r5, lsl #1
 1713 00de 03EBCC0C 		add	ip, r3, ip, lsl #3
 508:X-CUBE-AI/App/aiSystemPerformance.c ****     ai_input[i].n_batches  = 1;
 1714              		.loc 1 508 17 view .LVU425
 1715 00e2 05EB4508 		add	r8, r5, r5, lsl #1
 1716 00e6 22AB     		add	r3, sp, #136
 1717 00e8 03EBC808 		add	r8, r3, r8, lsl #3
 1718 00ec A8F12806 		sub	r6, r8, #40
 1719 00f0 6746     		mov	r7, ip
 1720 00f2 0FCF     		ldmia	r7!, {r0, r1, r2, r3}
 1721 00f4 0FC6     		stmia	r6!, {r0, r1, r2, r3}
 1722 00f6 97E80300 		ldm	r7, {r0, r1}
 1723 00fa 86E80300 		stm	r6, {r0, r1}
 509:X-CUBE-AI/App/aiSystemPerformance.c ****     if (net_exec_ctx[idx].report.inputs[i].data)
ARM GAS  C:\Users\zacfi\AppData\Local\Temp\ccazi6oi.s 			page 62


 1724              		.loc 1 509 5 is_stmt 1 view .LVU426
 509:X-CUBE-AI/App/aiSystemPerformance.c ****     if (net_exec_ctx[idx].report.inputs[i].data)
 1725              		.loc 1 509 28 is_stmt 0 view .LVU427
 1726 00fe 0123     		movs	r3, #1
 1727 0100 28F8243C 		strh	r3, [r8, #-36]	@ movhi
 510:X-CUBE-AI/App/aiSystemPerformance.c ****       ai_input[i].data = AI_HANDLE_PTR(net_exec_ctx[idx].report.inputs[i].data);
 1728              		.loc 1 510 5 is_stmt 1 view .LVU428
 510:X-CUBE-AI/App/aiSystemPerformance.c ****       ai_input[i].data = AI_HANDLE_PTR(net_exec_ctx[idx].report.inputs[i].data);
 1729              		.loc 1 510 43 is_stmt 0 view .LVU429
 1730 0104 DCF81020 		ldr	r2, [ip, #16]
 510:X-CUBE-AI/App/aiSystemPerformance.c ****       ai_input[i].data = AI_HANDLE_PTR(net_exec_ctx[idx].report.inputs[i].data);
 1731              		.loc 1 510 8 view .LVU430
 1732 0108 22B3     		cbz	r2, .L93
 511:X-CUBE-AI/App/aiSystemPerformance.c ****     else
 1733              		.loc 1 511 7 is_stmt 1 view .LVU431
 511:X-CUBE-AI/App/aiSystemPerformance.c ****     else
 1734              		.loc 1 511 24 is_stmt 0 view .LVU432
 1735 010a 48F8182C 		str	r2, [r8, #-24]
 1736              	.L94:
 507:X-CUBE-AI/App/aiSystemPerformance.c ****     ai_input[i] = net_exec_ctx[idx].report.inputs[i];
 1737              		.loc 1 507 58 is_stmt 1 discriminator 2 view .LVU433
 507:X-CUBE-AI/App/aiSystemPerformance.c ****     ai_input[i] = net_exec_ctx[idx].report.inputs[i];
 1738              		.loc 1 507 59 is_stmt 0 discriminator 2 view .LVU434
 1739 010e 0135     		adds	r5, r5, #1
 1740              	.LVL134:
 1741              	.L92:
 507:X-CUBE-AI/App/aiSystemPerformance.c ****     ai_input[i] = net_exec_ctx[idx].report.inputs[i];
 1742              		.loc 1 507 19 is_stmt 1 discriminator 1 view .LVU435
 507:X-CUBE-AI/App/aiSystemPerformance.c ****     ai_input[i] = net_exec_ctx[idx].report.inputs[i];
 1743              		.loc 1 507 3 is_stmt 0 discriminator 1 view .LVU436
 1744 0110 A945     		cmp	r9, r5
 1745 0112 DCDC     		bgt	.L95
 1746              	.LBE87:
 1747              	.LBB88:
 517:X-CUBE-AI/App/aiSystemPerformance.c ****     ai_output[i] = net_exec_ctx[idx].report.outputs[i];
 1748              		.loc 1 517 12 view .LVU437
 1749 0114 0025     		movs	r5, #0
 1750              	.LVL135:
 1751              	.L96:
 517:X-CUBE-AI/App/aiSystemPerformance.c ****     ai_output[i] = net_exec_ctx[idx].report.outputs[i];
 1752              		.loc 1 517 19 is_stmt 1 discriminator 1 view .LVU438
 517:X-CUBE-AI/App/aiSystemPerformance.c ****     ai_output[i] = net_exec_ctx[idx].report.outputs[i];
 1753              		.loc 1 517 3 is_stmt 0 discriminator 1 view .LVU439
 1754 0116 AE45     		cmp	lr, r5
 1755 0118 25DC     		bgt	.L99
 1756              	.LBE88:
 526:X-CUBE-AI/App/aiSystemPerformance.c ****     printf("Profiling mode (%d)...\r\n", profiling_factor);
 1757              		.loc 1 526 3 is_stmt 1 view .LVU440
 526:X-CUBE-AI/App/aiSystemPerformance.c ****     printf("Profiling mode (%d)...\r\n", profiling_factor);
 1758              		.loc 1 526 7 is_stmt 0 view .LVU441
 1759 011a 5F4B     		ldr	r3, .L143+4
 1760 011c 1B78     		ldrb	r3, [r3]	@ zero_extendqisi2
 526:X-CUBE-AI/App/aiSystemPerformance.c ****     printf("Profiling mode (%d)...\r\n", profiling_factor);
 1761              		.loc 1 526 6 view .LVU442
 1762 011e 002B     		cmp	r3, #0
 1763 0120 4CD1     		bne	.L137
 1764              	.L100:
ARM GAS  C:\Users\zacfi\AppData\Local\Temp\ccazi6oi.s 			page 63


 533:X-CUBE-AI/App/aiSystemPerformance.c ****     MON_ALLOC_RESET();
 1765              		.loc 1 533 3 is_stmt 1 view .LVU443
 533:X-CUBE-AI/App/aiSystemPerformance.c ****     MON_ALLOC_RESET();
 1766              		.loc 1 533 7 is_stmt 0 view .LVU444
 1767 0122 644B     		ldr	r3, .L143+32
 1768 0124 1B78     		ldrb	r3, [r3]	@ zero_extendqisi2
 533:X-CUBE-AI/App/aiSystemPerformance.c ****     MON_ALLOC_RESET();
 1769              		.loc 1 533 6 view .LVU445
 1770 0126 002B     		cmp	r3, #0
 1771 0128 53D1     		bne	.L138
 460:X-CUBE-AI/App/aiSystemPerformance.c **** #endif
 1772              		.loc 1 460 7 view .LVU446
 1773 012a 0023     		movs	r3, #0
 1774 012c 0D93     		str	r3, [sp, #52]
 1775              	.LVL136:
 1776              	.L101:
 541:X-CUBE-AI/App/aiSystemPerformance.c **** 
 1777              		.loc 1 541 3 is_stmt 1 view .LVU447
 1778 012e 624A     		ldr	r2, .L143+36
 1779 0130 0023     		movs	r3, #0
 1780 0132 1360     		str	r3, [r2]
 1781 0134 5360     		str	r3, [r2, #4]
 1782 0136 9360     		str	r3, [r2, #8]
 1783 0138 D360     		str	r3, [r2, #12]
 1784 013a 1361     		str	r3, [r2, #16]
 1785 013c 5361     		str	r3, [r2, #20]
 1786 013e 9361     		str	r3, [r2, #24]
 541:X-CUBE-AI/App/aiSystemPerformance.c **** 
 1787              		.loc 1 541 3 view .LVU448
 544:X-CUBE-AI/App/aiSystemPerformance.c **** 
 1788              		.loc 1 544 3 view .LVU449
 1789              	.LVL137:
 494:X-CUBE-AI/App/aiSystemPerformance.c **** 
 1790              		.loc 1 494 8 is_stmt 0 view .LVU450
 1791 0140 0993     		str	r3, [sp, #36]
 1792 0142 0B93     		str	r3, [sp, #44]
 493:X-CUBE-AI/App/aiSystemPerformance.c ****   tmax = 0UL;
 1793              		.loc 1 493 8 view .LVU451
 1794 0144 4FF0FF32 		mov	r2, #-1
 1795 0148 0892     		str	r2, [sp, #32]
 1796 014a 0A92     		str	r2, [sp, #40]
 492:X-CUBE-AI/App/aiSystemPerformance.c ****   tmin = UINT64_MAX;
 1797              		.loc 1 492 10 view .LVU452
 1798 014c 0693     		str	r3, [sp, #24]
 1799 014e 0793     		str	r3, [sp, #28]
 544:X-CUBE-AI/App/aiSystemPerformance.c **** 
 1800              		.loc 1 544 13 view .LVU453
 1801 0150 9B46     		mov	fp, r3
 544:X-CUBE-AI/App/aiSystemPerformance.c **** 
 1802              		.loc 1 544 3 view .LVU454
 1803 0152 41E1     		b	.L102
 1804              	.LVL138:
 1805              	.L93:
 1806              	.LBB89:
 513:X-CUBE-AI/App/aiSystemPerformance.c ****   }
 1807              		.loc 1 513 7 is_stmt 1 view .LVU455
 513:X-CUBE-AI/App/aiSystemPerformance.c ****   }
ARM GAS  C:\Users\zacfi\AppData\Local\Temp\ccazi6oi.s 			page 64


 1808              		.loc 1 513 24 is_stmt 0 view .LVU456
 1809 0154 05EB4503 		add	r3, r5, r5, lsl #1
 1810 0158 22AA     		add	r2, sp, #136
 1811 015a 02EBC303 		add	r3, r2, r3, lsl #3
 1812 015e 574A     		ldr	r2, .L143+40
 1813 0160 43F8182C 		str	r2, [r3, #-24]
 1814 0164 D3E7     		b	.L94
 1815              	.LVL139:
 1816              	.L99:
 513:X-CUBE-AI/App/aiSystemPerformance.c ****   }
 1817              		.loc 1 513 24 view .LVU457
 1818              	.LBE89:
 1819              	.LBB90:
 518:X-CUBE-AI/App/aiSystemPerformance.c ****     ai_output[i].n_batches = 1;
 1820              		.loc 1 518 5 is_stmt 1 view .LVU458
 518:X-CUBE-AI/App/aiSystemPerformance.c ****     ai_output[i].n_batches = 1;
 1821              		.loc 1 518 44 is_stmt 0 view .LVU459
 1822 0166 C4EB0413 		rsb	r3, r4, r4, lsl #4
 1823 016a 4A4A     		ldr	r2, .L143
 1824 016c 02EBC303 		add	r3, r2, r3, lsl #3
 1825 0170 DB6B     		ldr	r3, [r3, #60]
 518:X-CUBE-AI/App/aiSystemPerformance.c ****     ai_output[i].n_batches = 1;
 1826              		.loc 1 518 52 view .LVU460
 1827 0172 05EB450C 		add	ip, r5, r5, lsl #1
 1828 0176 03EBCC0C 		add	ip, r3, ip, lsl #3
 518:X-CUBE-AI/App/aiSystemPerformance.c ****     ai_output[i].n_batches = 1;
 1829              		.loc 1 518 18 view .LVU461
 1830 017a 05EB4508 		add	r8, r5, r5, lsl #1
 1831 017e 22AB     		add	r3, sp, #136
 1832 0180 03EBC808 		add	r8, r3, r8, lsl #3
 1833 0184 A8F14006 		sub	r6, r8, #64
 1834 0188 6746     		mov	r7, ip
 1835 018a 0FCF     		ldmia	r7!, {r0, r1, r2, r3}
 1836 018c 0FC6     		stmia	r6!, {r0, r1, r2, r3}
 1837 018e 97E80300 		ldm	r7, {r0, r1}
 1838 0192 86E80300 		stm	r6, {r0, r1}
 519:X-CUBE-AI/App/aiSystemPerformance.c ****     if (net_exec_ctx[idx].report.outputs[i].data)
 1839              		.loc 1 519 5 is_stmt 1 view .LVU462
 519:X-CUBE-AI/App/aiSystemPerformance.c ****     if (net_exec_ctx[idx].report.outputs[i].data)
 1840              		.loc 1 519 28 is_stmt 0 view .LVU463
 1841 0196 0123     		movs	r3, #1
 1842 0198 28F83C3C 		strh	r3, [r8, #-60]	@ movhi
 520:X-CUBE-AI/App/aiSystemPerformance.c ****       ai_output[i].data = AI_HANDLE_PTR(net_exec_ctx[idx].report.outputs[i].data);
 1843              		.loc 1 520 5 is_stmt 1 view .LVU464
 520:X-CUBE-AI/App/aiSystemPerformance.c ****       ai_output[i].data = AI_HANDLE_PTR(net_exec_ctx[idx].report.outputs[i].data);
 1844              		.loc 1 520 44 is_stmt 0 view .LVU465
 1845 019c DCF81020 		ldr	r2, [ip, #16]
 520:X-CUBE-AI/App/aiSystemPerformance.c ****       ai_output[i].data = AI_HANDLE_PTR(net_exec_ctx[idx].report.outputs[i].data);
 1846              		.loc 1 520 8 view .LVU466
 1847 01a0 1AB1     		cbz	r2, .L97
 521:X-CUBE-AI/App/aiSystemPerformance.c ****     else
 1848              		.loc 1 521 7 is_stmt 1 view .LVU467
 521:X-CUBE-AI/App/aiSystemPerformance.c ****     else
 1849              		.loc 1 521 25 is_stmt 0 view .LVU468
 1850 01a2 48F8302C 		str	r2, [r8, #-48]
 1851              	.L98:
 517:X-CUBE-AI/App/aiSystemPerformance.c ****     ai_output[i] = net_exec_ctx[idx].report.outputs[i];
ARM GAS  C:\Users\zacfi\AppData\Local\Temp\ccazi6oi.s 			page 65


 1852              		.loc 1 517 59 is_stmt 1 discriminator 2 view .LVU469
 517:X-CUBE-AI/App/aiSystemPerformance.c ****     ai_output[i] = net_exec_ctx[idx].report.outputs[i];
 1853              		.loc 1 517 60 is_stmt 0 discriminator 2 view .LVU470
 1854 01a6 0135     		adds	r5, r5, #1
 1855              	.LVL140:
 517:X-CUBE-AI/App/aiSystemPerformance.c ****     ai_output[i] = net_exec_ctx[idx].report.outputs[i];
 1856              		.loc 1 517 60 discriminator 2 view .LVU471
 1857 01a8 B5E7     		b	.L96
 1858              	.L97:
 523:X-CUBE-AI/App/aiSystemPerformance.c ****   }
 1859              		.loc 1 523 7 is_stmt 1 view .LVU472
 523:X-CUBE-AI/App/aiSystemPerformance.c ****   }
 1860              		.loc 1 523 25 is_stmt 0 view .LVU473
 1861 01aa 05EB4503 		add	r3, r5, r5, lsl #1
 1862 01ae 22AA     		add	r2, sp, #136
 1863 01b0 02EBC303 		add	r3, r2, r3, lsl #3
 1864 01b4 424A     		ldr	r2, .L143+44
 1865 01b6 43F8302C 		str	r2, [r3, #-48]
 1866 01ba F4E7     		b	.L98
 1867              	.L137:
 523:X-CUBE-AI/App/aiSystemPerformance.c ****   }
 1868              		.loc 1 523 25 view .LVU474
 1869              	.LBE90:
 527:X-CUBE-AI/App/aiSystemPerformance.c ****     fflush(stdout);
 1870              		.loc 1 527 5 is_stmt 1 view .LVU475
 1871 01bc 374B     		ldr	r3, .L143+8
 1872 01be 1968     		ldr	r1, [r3]
 1873 01c0 4048     		ldr	r0, .L143+48
 1874 01c2 FFF7FEFF 		bl	printf
 1875              	.LVL141:
 528:X-CUBE-AI/App/aiSystemPerformance.c ****   }
 1876              		.loc 1 528 5 view .LVU476
 528:X-CUBE-AI/App/aiSystemPerformance.c ****   }
 1877              		.loc 1 528 12 is_stmt 0 view .LVU477
 1878 01c6 404B     		ldr	r3, .L143+52
 1879 01c8 1B68     		ldr	r3, [r3]
 528:X-CUBE-AI/App/aiSystemPerformance.c ****   }
 1880              		.loc 1 528 5 view .LVU478
 1881 01ca 9868     		ldr	r0, [r3, #8]
 1882 01cc FFF7FEFF 		bl	fflush
 1883              	.LVL142:
 1884 01d0 A7E7     		b	.L100
 1885              	.L138:
 534:X-CUBE-AI/App/aiSystemPerformance.c ****     MON_ALLOC_ENABLE();
 1886              		.loc 1 534 5 is_stmt 1 view .LVU479
 1887 01d2 394D     		ldr	r5, .L143+36
 1888              	.LVL143:
 534:X-CUBE-AI/App/aiSystemPerformance.c ****     MON_ALLOC_ENABLE();
 1889              		.loc 1 534 5 is_stmt 0 view .LVU480
 1890 01d4 0023     		movs	r3, #0
 1891 01d6 2B60     		str	r3, [r5]
 1892 01d8 6B60     		str	r3, [r5, #4]
 1893 01da AB60     		str	r3, [r5, #8]
 1894 01dc EB60     		str	r3, [r5, #12]
 1895 01de 2B61     		str	r3, [r5, #16]
 1896 01e0 6B61     		str	r3, [r5, #20]
 1897 01e2 AB61     		str	r3, [r5, #24]
ARM GAS  C:\Users\zacfi\AppData\Local\Temp\ccazi6oi.s 			page 66


 534:X-CUBE-AI/App/aiSystemPerformance.c ****     MON_ALLOC_ENABLE();
 1898              		.loc 1 534 5 is_stmt 1 view .LVU481
 535:X-CUBE-AI/App/aiSystemPerformance.c ****     aiObserverInit(&net_exec_ctx[idx]);
 1899              		.loc 1 535 5 view .LVU482
 1900 01e4 0123     		movs	r3, #1
 1901 01e6 2B60     		str	r3, [r5]
 536:X-CUBE-AI/App/aiSystemPerformance.c ****     observer_heap_sz = MON_ALLOC_MAX_USED();
 1902              		.loc 1 536 5 view .LVU483
 1903 01e8 C4EB0413 		rsb	r3, r4, r4, lsl #4
 1904 01ec 2948     		ldr	r0, .L143
 1905 01ee 00EBC300 		add	r0, r0, r3, lsl #3
 1906 01f2 FFF7FEFF 		bl	aiObserverInit
 1907              	.LVL144:
 537:X-CUBE-AI/App/aiSystemPerformance.c ****   }
 1908              		.loc 1 537 5 view .LVU484
 537:X-CUBE-AI/App/aiSystemPerformance.c ****   }
 1909              		.loc 1 537 24 is_stmt 0 view .LVU485
 1910 01f6 6B69     		ldr	r3, [r5, #20]
 1911 01f8 0D93     		str	r3, [sp, #52]
 1912              	.LVL145:
 537:X-CUBE-AI/App/aiSystemPerformance.c ****   }
 1913              		.loc 1 537 24 view .LVU486
 1914 01fa 98E7     		b	.L101
 1915              	.LVL146:
 1916              	.L107:
 1917              	.LBB91:
 1918              	.LBB92:
 548:X-CUBE-AI/App/aiSystemPerformance.c ****       ai_i8 *in_data = (ai_i8 *)ai_input[i].data;
 1919              		.loc 1 548 7 is_stmt 1 view .LVU487
 548:X-CUBE-AI/App/aiSystemPerformance.c ****       ai_i8 *in_data = (ai_i8 *)ai_input[i].data;
 1920              		.loc 1 548 36 is_stmt 0 view .LVU488
 1921 01fc 06EB4603 		add	r3, r6, r6, lsl #1
 1922 0200 22AA     		add	r2, sp, #136
 1923 0202 02EBC303 		add	r3, r2, r3, lsl #3
 1924 0206 53F8287C 		ldr	r7, [r3, #-40]
 548:X-CUBE-AI/App/aiSystemPerformance.c ****       ai_i8 *in_data = (ai_i8 *)ai_input[i].data;
 1925              		.loc 1 548 30 view .LVU489
 1926 020a 27F07E47 		bic	r7, r7, #-33554432
 1927              	.LVL147:
 549:X-CUBE-AI/App/aiSystemPerformance.c ****       for (ai_size j = 0; j < AI_BUFFER_SIZE(&ai_input[i]); ++j) {
 1928              		.loc 1 549 7 is_stmt 1 view .LVU490
 549:X-CUBE-AI/App/aiSystemPerformance.c ****       for (ai_size j = 0; j < AI_BUFFER_SIZE(&ai_input[i]); ++j) {
 1929              		.loc 1 549 14 is_stmt 0 view .LVU491
 1930 020e 53F8188C 		ldr	r8, [r3, #-24]
 1931              	.LVL148:
 550:X-CUBE-AI/App/aiSystemPerformance.c ****         /* uniform distribution between -1.0 and 1.0 */
 1932              		.loc 1 550 7 is_stmt 1 view .LVU492
 1933              	.LBB93:
 550:X-CUBE-AI/App/aiSystemPerformance.c ****         /* uniform distribution between -1.0 and 1.0 */
 1934              		.loc 1 550 12 view .LVU493
 550:X-CUBE-AI/App/aiSystemPerformance.c ****         /* uniform distribution between -1.0 and 1.0 */
 1935              		.loc 1 550 20 is_stmt 0 view .LVU494
 1936 0212 0025     		movs	r5, #0
 550:X-CUBE-AI/App/aiSystemPerformance.c ****         /* uniform distribution between -1.0 and 1.0 */
 1937              		.loc 1 550 7 view .LVU495
 1938 0214 04E0     		b	.L103
 1939              	.LVL149:
ARM GAS  C:\Users\zacfi\AppData\Local\Temp\ccazi6oi.s 			page 67


 1940              	.L140:
 1941              	.LBB94:
 554:X-CUBE-AI/App/aiSystemPerformance.c ****         }
 1942              		.loc 1 554 11 is_stmt 1 view .LVU496
 554:X-CUBE-AI/App/aiSystemPerformance.c ****         }
 1943              		.loc 1 554 33 is_stmt 0 view .LVU497
 1944 0216 08EB8503 		add	r3, r8, r5, lsl #2
 554:X-CUBE-AI/App/aiSystemPerformance.c ****         }
 1945              		.loc 1 554 42 view .LVU498
 1946 021a C3ED007A 		vstr.32	s15, [r3]
 1947              	.LVL150:
 1948              	.L105:
 554:X-CUBE-AI/App/aiSystemPerformance.c ****         }
 1949              		.loc 1 554 42 view .LVU499
 1950              	.LBE94:
 550:X-CUBE-AI/App/aiSystemPerformance.c ****         /* uniform distribution between -1.0 and 1.0 */
 1951              		.loc 1 550 61 is_stmt 1 discriminator 2 view .LVU500
 1952 021e 0135     		adds	r5, r5, #1
 1953              	.LVL151:
 1954              	.L103:
 550:X-CUBE-AI/App/aiSystemPerformance.c ****         /* uniform distribution between -1.0 and 1.0 */
 1955              		.loc 1 550 27 discriminator 1 view .LVU501
 550:X-CUBE-AI/App/aiSystemPerformance.c ****         /* uniform distribution between -1.0 and 1.0 */
 1956              		.loc 1 550 31 is_stmt 0 discriminator 1 view .LVU502
 1957 0220 06EB4602 		add	r2, r6, r6, lsl #1
 1958 0224 22AB     		add	r3, sp, #136
 1959 0226 03EBC202 		add	r2, r3, r2, lsl #3
 1960 022a 32F8203C 		ldrh	r3, [r2, #-32]
 1961 022e 32F8221C 		ldrh	r1, [r2, #-34]
 1962 0232 01FB03F3 		mul	r3, r1, r3
 1963 0236 52F81C2C 		ldr	r2, [r2, #-28]
 1964 023a 02FB03F3 		mul	r3, r2, r3
 550:X-CUBE-AI/App/aiSystemPerformance.c ****         /* uniform distribution between -1.0 and 1.0 */
 1965              		.loc 1 550 7 discriminator 1 view .LVU503
 1966 023e AB42     		cmp	r3, r5
 1967 0240 48D9     		bls	.L139
 1968              	.LBB95:
 552:X-CUBE-AI/App/aiSystemPerformance.c ****         if  (AI_BUFFER_FMT_GET_TYPE(fmt) == AI_BUFFER_FMT_TYPE_FLOAT) {
 1969              		.loc 1 552 9 is_stmt 1 view .LVU504
 552:X-CUBE-AI/App/aiSystemPerformance.c ****         if  (AI_BUFFER_FMT_GET_TYPE(fmt) == AI_BUFFER_FMT_TYPE_FLOAT) {
 1970              		.loc 1 552 43 is_stmt 0 view .LVU505
 1971 0242 FFF7FEFF 		bl	rand
 1972              	.LVL152:
 1973 0246 07EE900A 		vmov	s15, r0	@ int
 552:X-CUBE-AI/App/aiSystemPerformance.c ****         if  (AI_BUFFER_FMT_GET_TYPE(fmt) == AI_BUFFER_FMT_TYPE_FLOAT) {
 1974              		.loc 1 552 32 view .LVU506
 1975 024a F8EEE77A 		vcvt.f32.s32	s15, s15
 552:X-CUBE-AI/App/aiSystemPerformance.c ****         if  (AI_BUFFER_FMT_GET_TYPE(fmt) == AI_BUFFER_FMT_TYPE_FLOAT) {
 1976              		.loc 1 552 30 view .LVU507
 1977 024e 77EEA77A 		vadd.f32	s15, s15, s15
 552:X-CUBE-AI/App/aiSystemPerformance.c ****         if  (AI_BUFFER_FMT_GET_TYPE(fmt) == AI_BUFFER_FMT_TYPE_FLOAT) {
 1978              		.loc 1 552 50 view .LVU508
 1979 0252 9FED1E7A 		vldr.32	s14, .L143+56
 1980 0256 67EE877A 		vmul.f32	s15, s15, s14
 552:X-CUBE-AI/App/aiSystemPerformance.c ****         if  (AI_BUFFER_FMT_GET_TYPE(fmt) == AI_BUFFER_FMT_TYPE_FLOAT) {
 1981              		.loc 1 552 21 view .LVU509
 1982 025a B7EE007A 		vmov.f32	s14, #1.0e+0
ARM GAS  C:\Users\zacfi\AppData\Local\Temp\ccazi6oi.s 			page 68


 1983 025e 77EEC77A 		vsub.f32	s15, s15, s14
 1984              	.LVL153:
 553:X-CUBE-AI/App/aiSystemPerformance.c ****           *(ai_float *)(in_data + j * 4) = v;
 1985              		.loc 1 553 9 is_stmt 1 view .LVU510
 553:X-CUBE-AI/App/aiSystemPerformance.c ****           *(ai_float *)(in_data + j * 4) = v;
 1986              		.loc 1 553 14 is_stmt 0 view .LVU511
 1987 0262 C7F34342 		ubfx	r2, r7, #17, #4
 553:X-CUBE-AI/App/aiSystemPerformance.c ****           *(ai_float *)(in_data + j * 4) = v;
 1988              		.loc 1 553 13 view .LVU512
 1989 0266 012A     		cmp	r2, #1
 1990 0268 D5D0     		beq	.L140
 557:X-CUBE-AI/App/aiSystemPerformance.c ****           if (AI_BUFFER_FMT_GET_TYPE(fmt) == AI_BUFFER_FMT_TYPE_BOOL) {
 1991              		.loc 1 557 11 is_stmt 1 view .LVU513
 557:X-CUBE-AI/App/aiSystemPerformance.c ****           if (AI_BUFFER_FMT_GET_TYPE(fmt) == AI_BUFFER_FMT_TYPE_BOOL) {
 1992              		.loc 1 557 34 is_stmt 0 view .LVU514
 1993 026a 9FED197A 		vldr.32	s14, .L143+60
 1994 026e 67EE877A 		vmul.f32	s15, s15, s14
 1995              	.LVL154:
 557:X-CUBE-AI/App/aiSystemPerformance.c ****           if (AI_BUFFER_FMT_GET_TYPE(fmt) == AI_BUFFER_FMT_TYPE_BOOL) {
 1996              		.loc 1 557 24 view .LVU515
 1997 0272 FDEEE77A 		vcvt.s32.f32	s15, s15
 1998 0276 CDED057A 		vstr.32	s15, [sp, #20]	@ int
 1999 027a 9DF91430 		ldrsb	r3, [sp, #20]
 557:X-CUBE-AI/App/aiSystemPerformance.c ****           if (AI_BUFFER_FMT_GET_TYPE(fmt) == AI_BUFFER_FMT_TYPE_BOOL) {
 2000              		.loc 1 557 22 view .LVU516
 2001 027e 08F80530 		strb	r3, [r8, r5]
 558:X-CUBE-AI/App/aiSystemPerformance.c ****             in_data[j] = (in_data[j] > 0)?(ai_i8)1:(ai_i8)0;
 2002              		.loc 1 558 11 is_stmt 1 view .LVU517
 558:X-CUBE-AI/App/aiSystemPerformance.c ****             in_data[j] = (in_data[j] > 0)?(ai_i8)1:(ai_i8)0;
 2003              		.loc 1 558 14 is_stmt 0 view .LVU518
 2004 0282 032A     		cmp	r2, #3
 2005 0284 CBD1     		bne	.L105
 559:X-CUBE-AI/App/aiSystemPerformance.c ****           }
 2006              		.loc 1 559 13 is_stmt 1 view .LVU519
 559:X-CUBE-AI/App/aiSystemPerformance.c ****           }
 2007              		.loc 1 559 51 is_stmt 0 view .LVU520
 2008 0286 002B     		cmp	r3, #0
 2009 0288 D4BF     		ite	le
 2010 028a 0023     		movle	r3, #0
 2011 028c 0123     		movgt	r3, #1
 559:X-CUBE-AI/App/aiSystemPerformance.c ****           }
 2012              		.loc 1 559 24 view .LVU521
 2013 028e 08F80530 		strb	r3, [r8, r5]
 2014 0292 C4E7     		b	.L105
 2015              	.L144:
 2016              		.align	2
 2017              	.L143:
 2018 0294 00000000 		.word	.LANCHOR0
 2019 0298 00000000 		.word	.LANCHOR3
 2020 029c 00000000 		.word	.LANCHOR4
 2021 02a0 1C000000 		.word	.LC26
 2022 02a4 00000000 		.word	io_stack
 2023 02a8 00000000 		.word	.LC25
 2024 02ac 60000000 		.word	.LC27
 2025 02b0 A4000000 		.word	.LC28
 2026 02b4 00000000 		.word	.LANCHOR7
 2027 02b8 00000000 		.word	io_malloc
ARM GAS  C:\Users\zacfi\AppData\Local\Temp\ccazi6oi.s 			page 69


 2028 02bc 00000000 		.word	.LANCHOR5
 2029 02c0 00000000 		.word	.LANCHOR6
 2030 02c4 DC000000 		.word	.LC29
 2031 02c8 00000000 		.word	_impure_ptr
 2032 02cc 00000030 		.word	805306368
 2033 02d0 0000FE42 		.word	1123942400
 2034              	.LVL155:
 2035              	.L139:
 559:X-CUBE-AI/App/aiSystemPerformance.c ****           }
 2036              		.loc 1 559 24 view .LVU522
 2037              	.LBE95:
 2038              	.LBE93:
 2039              	.LBE92:
 547:X-CUBE-AI/App/aiSystemPerformance.c ****       const ai_buffer_format fmt = AI_BUFFER_FORMAT(&ai_input[i]);
 2040              		.loc 1 547 60 is_stmt 1 discriminator 2 view .LVU523
 547:X-CUBE-AI/App/aiSystemPerformance.c ****       const ai_buffer_format fmt = AI_BUFFER_FORMAT(&ai_input[i]);
 2041              		.loc 1 547 61 is_stmt 0 discriminator 2 view .LVU524
 2042 02d4 0136     		adds	r6, r6, #1
 2043              	.LVL156:
 2044              	.L115:
 547:X-CUBE-AI/App/aiSystemPerformance.c ****       const ai_buffer_format fmt = AI_BUFFER_FORMAT(&ai_input[i]);
 2045              		.loc 1 547 21 is_stmt 1 discriminator 1 view .LVU525
 547:X-CUBE-AI/App/aiSystemPerformance.c ****       const ai_buffer_format fmt = AI_BUFFER_FORMAT(&ai_input[i]);
 2046              		.loc 1 547 49 is_stmt 0 discriminator 1 view .LVU526
 2047 02d6 C4EB0413 		rsb	r3, r4, r4, lsl #4
 2048 02da 594A     		ldr	r2, .L145
 2049 02dc 02EBC303 		add	r3, r2, r3, lsl #3
 2050 02e0 9B8E     		ldrh	r3, [r3, #52]
 547:X-CUBE-AI/App/aiSystemPerformance.c ****       const ai_buffer_format fmt = AI_BUFFER_FORMAT(&ai_input[i]);
 2051              		.loc 1 547 5 discriminator 1 view .LVU527
 2052 02e2 B342     		cmp	r3, r6
 2053 02e4 8ADC     		bgt	.L107
 2054              	.LBE91:
 565:X-CUBE-AI/App/aiSystemPerformance.c **** 
 2055              		.loc 1 565 5 is_stmt 1 view .LVU528
 2056 02e6 574A     		ldr	r2, .L145+4
 2057 02e8 1368     		ldr	r3, [r2]
 2058 02ea 43F00103 		orr	r3, r3, #1
 2059 02ee 1360     		str	r3, [r2]
 569:X-CUBE-AI/App/aiSystemPerformance.c ****     batch = ai_mnetwork_run(net_exec_ctx[idx].handle, ai_input, ai_output);
 2060              		.loc 1 569 5 view .LVU529
 2061              	.LBB96:
 2062              	.LBI96:
 257:X-CUBE-AI/App/aiTestUtility.h **** }
 258:X-CUBE-AI/App/aiTestUtility.h **** 
 259:X-CUBE-AI/App/aiTestUtility.h **** uint32_t systemCoreClock(void);
 260:X-CUBE-AI/App/aiTestUtility.h **** int dwtCyclesToTime(uint64_t clks, struct dwtTime *t);
 261:X-CUBE-AI/App/aiTestUtility.h **** float dwtCyclesToFloatMs(uint64_t clks);
 262:X-CUBE-AI/App/aiTestUtility.h **** 
 263:X-CUBE-AI/App/aiTestUtility.h **** struct cyclesCount {
 264:X-CUBE-AI/App/aiTestUtility.h ****   uint32_t dwt_max;
 265:X-CUBE-AI/App/aiTestUtility.h ****   uint32_t dwt_start;
 266:X-CUBE-AI/App/aiTestUtility.h ****   uint32_t tick_start;
 267:X-CUBE-AI/App/aiTestUtility.h **** };
 268:X-CUBE-AI/App/aiTestUtility.h **** 
 269:X-CUBE-AI/App/aiTestUtility.h **** extern struct cyclesCount cyclesCount;
 270:X-CUBE-AI/App/aiTestUtility.h **** 
ARM GAS  C:\Users\zacfi\AppData\Local\Temp\ccazi6oi.s 			page 70


 271:X-CUBE-AI/App/aiTestUtility.h **** __STATIC_INLINE void cyclesCounterInit(void)
 272:X-CUBE-AI/App/aiTestUtility.h **** {
 273:X-CUBE-AI/App/aiTestUtility.h ****   struct dwtTime t;
 274:X-CUBE-AI/App/aiTestUtility.h ****   dwtCyclesToTime(UINT32_MAX, &t);
 275:X-CUBE-AI/App/aiTestUtility.h ****   cyclesCount.dwt_max = t.s * 1000 + t.ms;
 276:X-CUBE-AI/App/aiTestUtility.h ****   dwtIpInit();
 277:X-CUBE-AI/App/aiTestUtility.h **** }
 278:X-CUBE-AI/App/aiTestUtility.h **** 
 279:X-CUBE-AI/App/aiTestUtility.h **** __STATIC_INLINE void cyclesCounterStart(void)
 2063              		.loc 2 279 22 view .LVU530
 2064              	.LBB97:
 280:X-CUBE-AI/App/aiTestUtility.h **** {
 281:X-CUBE-AI/App/aiTestUtility.h ****   cyclesCount.tick_start = HAL_GetTick();
 2065              		.loc 2 281 3 view .LVU531
 2066              		.loc 2 281 28 is_stmt 0 view .LVU532
 2067 02f0 FFF7FEFF 		bl	HAL_GetTick
 2068              	.LVL157:
 2069              		.loc 2 281 26 view .LVU533
 2070 02f4 544B     		ldr	r3, .L145+8
 2071 02f6 9860     		str	r0, [r3, #8]
 282:X-CUBE-AI/App/aiTestUtility.h ****   dwtReset();
 2072              		.loc 2 282 3 is_stmt 1 view .LVU534
 2073              	.LBB98:
 2074              	.LBI98:
 251:X-CUBE-AI/App/aiTestUtility.h ****   DWT->CYCCNT = 0; /* Clear DWT cycle counter */
 2075              		.loc 2 251 22 view .LVU535
 2076              	.LBB99:
 252:X-CUBE-AI/App/aiTestUtility.h **** }
 2077              		.loc 2 252 3 view .LVU536
 252:X-CUBE-AI/App/aiTestUtility.h **** }
 2078              		.loc 2 252 15 is_stmt 0 view .LVU537
 2079 02f8 544A     		ldr	r2, .L145+12
 2080 02fa 0021     		movs	r1, #0
 2081 02fc 5160     		str	r1, [r2, #4]
 2082              	.LVL158:
 252:X-CUBE-AI/App/aiTestUtility.h **** }
 2083              		.loc 2 252 15 view .LVU538
 2084              	.LBE99:
 2085              	.LBE98:
 283:X-CUBE-AI/App/aiTestUtility.h ****   cyclesCount.dwt_start = dwtGetCycles();
 2086              		.loc 2 283 3 is_stmt 1 view .LVU539
 2087              	.LBB100:
 2088              	.LBI100:
 255:X-CUBE-AI/App/aiTestUtility.h ****   return DWT->CYCCNT;
 2089              		.loc 2 255 27 view .LVU540
 2090              	.LBB101:
 256:X-CUBE-AI/App/aiTestUtility.h **** }
 2091              		.loc 2 256 3 view .LVU541
 256:X-CUBE-AI/App/aiTestUtility.h **** }
 2092              		.loc 2 256 13 is_stmt 0 view .LVU542
 2093 02fe 5268     		ldr	r2, [r2, #4]
 2094              	.LBE101:
 2095              	.LBE100:
 2096              		.loc 2 283 25 view .LVU543
 2097 0300 5A60     		str	r2, [r3, #4]
 2098              	.LBE97:
 2099              	.LBE96:
ARM GAS  C:\Users\zacfi\AppData\Local\Temp\ccazi6oi.s 			page 71


 570:X-CUBE-AI/App/aiSystemPerformance.c ****     if (batch != 1) {
 2100              		.loc 1 570 5 is_stmt 1 view .LVU544
 570:X-CUBE-AI/App/aiSystemPerformance.c ****     if (batch != 1) {
 2101              		.loc 1 570 13 is_stmt 0 view .LVU545
 2102 0302 C4EB0413 		rsb	r3, r4, r4, lsl #4
 2103 0306 12AA     		add	r2, sp, #72
 2104 0308 18A9     		add	r1, sp, #96
 2105 030a 4D48     		ldr	r0, .L145
 2106 030c 50F83300 		ldr	r0, [r0, r3, lsl #3]
 2107 0310 FFF7FEFF 		bl	ai_mnetwork_run
 2108              	.LVL159:
 571:X-CUBE-AI/App/aiSystemPerformance.c ****       aiLogErr(ai_mnetwork_get_error(net_exec_ctx[idx].handle),
 2109              		.loc 1 571 5 is_stmt 1 view .LVU546
 571:X-CUBE-AI/App/aiSystemPerformance.c ****       aiLogErr(ai_mnetwork_get_error(net_exec_ctx[idx].handle),
 2110              		.loc 1 571 8 is_stmt 0 view .LVU547
 2111 0314 0128     		cmp	r0, #1
 2112 0316 64D1     		bne	.L141
 576:X-CUBE-AI/App/aiSystemPerformance.c **** 
 2113              		.loc 1 576 5 is_stmt 1 view .LVU548
 2114              	.LBB102:
 2115              	.LBI102:
 284:X-CUBE-AI/App/aiTestUtility.h **** }
 285:X-CUBE-AI/App/aiTestUtility.h **** 
 286:X-CUBE-AI/App/aiTestUtility.h **** __STATIC_INLINE uint64_t cyclesCounterEnd(void)
 2116              		.loc 2 286 26 view .LVU549
 2117              	.LBB103:
 287:X-CUBE-AI/App/aiTestUtility.h **** {
 288:X-CUBE-AI/App/aiTestUtility.h **** #if _APP_FIX_CLK_OVERFLOW == 1
 289:X-CUBE-AI/App/aiTestUtility.h ****     struct dwtTime t;
 2118              		.loc 2 289 5 view .LVU550
 290:X-CUBE-AI/App/aiTestUtility.h **** uint64_t dwt_e;
 2119              		.loc 2 290 1 view .LVU551
 291:X-CUBE-AI/App/aiTestUtility.h **** uint64_t tick_e;
 2120              		.loc 2 291 1 view .LVU552
 292:X-CUBE-AI/App/aiTestUtility.h **** dwt_e = dwtGetCycles() - cyclesCount.dwt_start;
 2121              		.loc 2 292 1 view .LVU553
 2122              	.LBB104:
 2123              	.LBI104:
 255:X-CUBE-AI/App/aiTestUtility.h ****   return DWT->CYCCNT;
 2124              		.loc 2 255 27 view .LVU554
 2125              	.LBB105:
 256:X-CUBE-AI/App/aiTestUtility.h **** }
 2126              		.loc 2 256 3 view .LVU555
 256:X-CUBE-AI/App/aiTestUtility.h **** }
 2127              		.loc 2 256 13 is_stmt 0 view .LVU556
 2128 0318 4C4B     		ldr	r3, .L145+12
 2129 031a 5F68     		ldr	r7, [r3, #4]
 2130              	.LBE105:
 2131              	.LBE104:
 2132              		.loc 2 292 37 view .LVU557
 2133 031c DFF828A1 		ldr	r10, .L145+8
 2134 0320 DAF80430 		ldr	r3, [r10, #4]
 2135              		.loc 2 292 24 view .LVU558
 2136 0324 FF1A     		subs	r7, r7, r3
 2137              		.loc 2 292 7 view .LVU559
 2138 0326 4FF00009 		mov	r9, #0
 2139 032a 3E46     		mov	r6, r7
ARM GAS  C:\Users\zacfi\AppData\Local\Temp\ccazi6oi.s 			page 72


 2140              	.LVL160:
 2141              		.loc 2 292 7 view .LVU560
 2142 032c 4D46     		mov	r5, r9
 2143              	.LVL161:
 293:X-CUBE-AI/App/aiTestUtility.h **** tick_e = HAL_GetTick() - cyclesCount.tick_start;
 2144              		.loc 2 293 1 is_stmt 1 view .LVU561
 2145              		.loc 2 293 10 is_stmt 0 view .LVU562
 2146 032e FFF7FEFF 		bl	HAL_GetTick
 2147              	.LVL162:
 2148              		.loc 2 293 37 view .LVU563
 2149 0332 DAF80830 		ldr	r3, [r10, #8]
 2150              		.loc 2 293 24 view .LVU564
 2151 0336 A0EB0308 		sub	r8, r0, r3
 2152              	.LVL163:
 294:X-CUBE-AI/App/aiTestUtility.h **** dwtCyclesToTime(dwt_e, &t);
 2153              		.loc 2 294 1 is_stmt 1 view .LVU565
 2154 033a 0EAA     		add	r2, sp, #56
 2155 033c 3846     		mov	r0, r7
 2156 033e 4946     		mov	r1, r9
 2157 0340 FFF7FEFF 		bl	dwtCyclesToTime
 2158              	.LVL164:
 295:X-CUBE-AI/App/aiTestUtility.h **** if (tick_e > cyclesCount.dwt_max) {
 2159              		.loc 2 295 1 view .LVU566
 2160              		.loc 2 295 25 is_stmt 0 view .LVU567
 2161 0344 DAF80020 		ldr	r2, [r10]
 2162              		.loc 2 295 4 view .LVU568
 2163 0348 9045     		cmp	r8, r2
 2164 034a 13D9     		bls	.L110
 296:X-CUBE-AI/App/aiTestUtility.h ****   /* overflow detected */
 297:X-CUBE-AI/App/aiTestUtility.h ****   dwt_e = ((tick_e/cyclesCount.dwt_max) * (uint64_t)UINT32_MAX + (uint64_t)dwt_e);
 2165              		.loc 2 297 3 is_stmt 1 view .LVU569
 2166              		.loc 2 297 19 is_stmt 0 view .LVU570
 2167 034c 4B46     		mov	r3, r9
 2168 034e 4046     		mov	r0, r8
 2169 0350 4946     		mov	r1, r9
 2170 0352 FFF7FEFF 		bl	__aeabi_uldivmod
 2171              	.LVL165:
 2172              		.loc 2 297 41 view .LVU571
 2173 0356 CA07     		lsls	r2, r1, #31
 2174 0358 42EA5002 		orr	r2, r2, r0, lsr #1
 2175 035c C307     		lsls	r3, r0, #31
 2176 035e 1B1A     		subs	r3, r3, r0
 2177 0360 62EB0105 		sbc	r5, r2, r1
 2178              	.LVL166:
 2179              		.loc 2 297 41 view .LVU572
 2180 0364 DB18     		adds	r3, r3, r3
 2181 0366 6D41     		adcs	r5, r5, r5
 2182 0368 1B18     		adds	r3, r3, r0
 2183 036a 45EB0105 		adc	r5, r5, r1
 2184              		.loc 2 297 9 view .LVU573
 2185 036e F618     		adds	r6, r6, r3
 2186              	.LVL167:
 2187              		.loc 2 297 9 view .LVU574
 2188 0370 45F10005 		adc	r5, r5, #0
 2189              	.LVL168:
 2190              	.L110:
 298:X-CUBE-AI/App/aiTestUtility.h **** }
ARM GAS  C:\Users\zacfi\AppData\Local\Temp\ccazi6oi.s 			page 73


 299:X-CUBE-AI/App/aiTestUtility.h **** return dwt_e;
 2191              		.loc 2 299 1 is_stmt 1 view .LVU575
 2192              		.loc 2 299 1 is_stmt 0 view .LVU576
 2193              	.LBE103:
 2194              	.LBE102:
 578:X-CUBE-AI/App/aiSystemPerformance.c **** 
 2195              		.loc 1 578 5 is_stmt 1 view .LVU577
 2196 0374 334A     		ldr	r2, .L145+4
 2197 0376 1368     		ldr	r3, [r2]
 2198 0378 23F00103 		bic	r3, r3, #1
 2199 037c 1360     		str	r3, [r2]
 580:X-CUBE-AI/App/aiSystemPerformance.c ****       tmin = tend;
 2200              		.loc 1 580 5 view .LVU578
 580:X-CUBE-AI/App/aiSystemPerformance.c ****       tmin = tend;
 2201              		.loc 1 580 8 is_stmt 0 view .LVU579
 2202 037e 089B     		ldr	r3, [sp, #32]
 2203 0380 9E42     		cmp	r6, r3
 2204 0382 0A9B     		ldr	r3, [sp, #40]
 2205 0384 75EB0303 		sbcs	r3, r5, r3
 2206 0388 01D2     		bcs	.L111
 581:X-CUBE-AI/App/aiSystemPerformance.c **** 
 2207              		.loc 1 581 12 view .LVU580
 2208 038a 0896     		str	r6, [sp, #32]
 2209 038c 0A95     		str	r5, [sp, #40]
 2210              	.L111:
 583:X-CUBE-AI/App/aiSystemPerformance.c ****       tmax = tend;
 2211              		.loc 1 583 5 is_stmt 1 view .LVU581
 583:X-CUBE-AI/App/aiSystemPerformance.c ****       tmax = tend;
 2212              		.loc 1 583 8 is_stmt 0 view .LVU582
 2213 038e 099B     		ldr	r3, [sp, #36]
 2214 0390 B342     		cmp	r3, r6
 2215 0392 0B9B     		ldr	r3, [sp, #44]
 2216 0394 AB41     		sbcs	r3, r3, r5
 2217 0396 01D2     		bcs	.L112
 584:X-CUBE-AI/App/aiSystemPerformance.c **** 
 2218              		.loc 1 584 12 view .LVU583
 2219 0398 0996     		str	r6, [sp, #36]
 2220 039a 0B95     		str	r5, [sp, #44]
 2221              	.L112:
 586:X-CUBE-AI/App/aiSystemPerformance.c **** 
 2222              		.loc 1 586 5 is_stmt 1 view .LVU584
 586:X-CUBE-AI/App/aiSystemPerformance.c **** 
 2223              		.loc 1 586 12 is_stmt 0 view .LVU585
 2224 039c 069B     		ldr	r3, [sp, #24]
 2225 039e 9B19     		adds	r3, r3, r6
 2226 03a0 0693     		str	r3, [sp, #24]
 2227 03a2 079B     		ldr	r3, [sp, #28]
 2228 03a4 43EB0503 		adc	r3, r3, r5
 2229 03a8 0793     		str	r3, [sp, #28]
 2230              	.LVL169:
 588:X-CUBE-AI/App/aiSystemPerformance.c **** 
 2231              		.loc 1 588 5 is_stmt 1 view .LVU586
 2232 03aa 1EAA     		add	r2, sp, #120
 2233 03ac 3046     		mov	r0, r6
 2234 03ae 2946     		mov	r1, r5
 2235 03b0 FFF7FEFF 		bl	dwtCyclesToTime
 2236              	.LVL170:
ARM GAS  C:\Users\zacfi\AppData\Local\Temp\ccazi6oi.s 			page 74


 594:X-CUBE-AI/App/aiSystemPerformance.c ****       if (t.s > 10)
 2237              		.loc 1 594 5 view .LVU587
 594:X-CUBE-AI/App/aiSystemPerformance.c ****       if (t.s > 10)
 2238              		.loc 1 594 9 is_stmt 0 view .LVU588
 2239 03b4 264B     		ldr	r3, .L145+16
 2240 03b6 1B78     		ldrb	r3, [r3]	@ zero_extendqisi2
 594:X-CUBE-AI/App/aiSystemPerformance.c ****       if (t.s > 10)
 2241              		.loc 1 594 8 view .LVU589
 2242 03b8 63B9     		cbnz	r3, .L113
 595:X-CUBE-AI/App/aiSystemPerformance.c ****         niter = iter;
 2243              		.loc 1 595 7 is_stmt 1 view .LVU590
 595:X-CUBE-AI/App/aiSystemPerformance.c ****         niter = iter;
 2244              		.loc 1 595 12 is_stmt 0 view .LVU591
 2245 03ba 1F9B     		ldr	r3, [sp, #124]
 595:X-CUBE-AI/App/aiSystemPerformance.c ****         niter = iter;
 2246              		.loc 1 595 10 view .LVU592
 2247 03bc 0A2B     		cmp	r3, #10
 2248 03be 01DD     		ble	.L114
 596:X-CUBE-AI/App/aiSystemPerformance.c ****       printf(".");
 2249              		.loc 1 596 15 view .LVU593
 2250 03c0 CDF830B0 		str	fp, [sp, #48]
 2251              	.L114:
 2252              	.LVL171:
 597:X-CUBE-AI/App/aiSystemPerformance.c ****       fflush(stdout);
 2253              		.loc 1 597 7 is_stmt 1 view .LVU594
 2254 03c4 2E20     		movs	r0, #46
 2255 03c6 FFF7FEFF 		bl	putchar
 2256              	.LVL172:
 598:X-CUBE-AI/App/aiSystemPerformance.c ****     }
 2257              		.loc 1 598 7 view .LVU595
 598:X-CUBE-AI/App/aiSystemPerformance.c ****     }
 2258              		.loc 1 598 14 is_stmt 0 view .LVU596
 2259 03ca 224B     		ldr	r3, .L145+20
 2260 03cc 1B68     		ldr	r3, [r3]
 598:X-CUBE-AI/App/aiSystemPerformance.c ****     }
 2261              		.loc 1 598 7 view .LVU597
 2262 03ce 9868     		ldr	r0, [r3, #8]
 2263 03d0 FFF7FEFF 		bl	fflush
 2264              	.LVL173:
 2265              	.L113:
 544:X-CUBE-AI/App/aiSystemPerformance.c **** 
 2266              		.loc 1 544 32 is_stmt 1 discriminator 2 view .LVU598
 544:X-CUBE-AI/App/aiSystemPerformance.c **** 
 2267              		.loc 1 544 36 is_stmt 0 discriminator 2 view .LVU599
 2268 03d4 0BF1010B 		add	fp, fp, #1
 2269              	.LVL174:
 2270              	.L102:
 544:X-CUBE-AI/App/aiSystemPerformance.c **** 
 2271              		.loc 1 544 18 is_stmt 1 discriminator 1 view .LVU600
 544:X-CUBE-AI/App/aiSystemPerformance.c **** 
 2272              		.loc 1 544 3 is_stmt 0 discriminator 1 view .LVU601
 2273 03d8 0C9B     		ldr	r3, [sp, #48]
 2274 03da 9B45     		cmp	fp, r3
 2275 03dc 0BDA     		bge	.L109
 2276              	.LBB106:
 547:X-CUBE-AI/App/aiSystemPerformance.c ****       const ai_buffer_format fmt = AI_BUFFER_FORMAT(&ai_input[i]);
 2277              		.loc 1 547 14 view .LVU602
ARM GAS  C:\Users\zacfi\AppData\Local\Temp\ccazi6oi.s 			page 75


 2278 03de 0026     		movs	r6, #0
 2279 03e0 79E7     		b	.L115
 2280              	.LVL175:
 2281              	.L141:
 547:X-CUBE-AI/App/aiSystemPerformance.c ****       const ai_buffer_format fmt = AI_BUFFER_FORMAT(&ai_input[i]);
 2282              		.loc 1 547 14 view .LVU603
 2283              	.LBE106:
 572:X-CUBE-AI/App/aiSystemPerformance.c ****           "ai_mnetwork_run");
 2284              		.loc 1 572 7 is_stmt 1 view .LVU604
 2285 03e2 C4EB0413 		rsb	r3, r4, r4, lsl #4
 2286 03e6 164A     		ldr	r2, .L145
 2287 03e8 52F83300 		ldr	r0, [r2, r3, lsl #3]
 2288              	.LVL176:
 572:X-CUBE-AI/App/aiSystemPerformance.c ****           "ai_mnetwork_run");
 2289              		.loc 1 572 7 is_stmt 0 view .LVU605
 2290 03ec FFF7FEFF 		bl	ai_mnetwork_get_error
 2291              	.LVL177:
 2292 03f0 1949     		ldr	r1, .L145+24
 2293 03f2 FFF7FEFF 		bl	aiLogErr
 2294              	.LVL178:
 574:X-CUBE-AI/App/aiSystemPerformance.c ****     }
 2295              		.loc 1 574 7 is_stmt 1 view .LVU606
 2296              	.L109:
 604:X-CUBE-AI/App/aiSystemPerformance.c **** #endif
 2297              		.loc 1 604 3 view .LVU607
 2298 03f6 1948     		ldr	r0, .L145+28
 2299 03f8 FFF7FEFF 		bl	puts
 2300              	.LVL179:
 607:X-CUBE-AI/App/aiSystemPerformance.c **** 
 2301              		.loc 1 607 3 view .LVU608
 2302 03fc 184B     		ldr	r3, .L145+32
 2303 03fe 0022     		movs	r2, #0
 2304 0400 9A60     		str	r2, [r3, #8]
 607:X-CUBE-AI/App/aiSystemPerformance.c **** 
 2305              		.loc 1 607 3 view .LVU609
 2306 0402 1D79     		ldrb	r5, [r3, #4]	@ zero_extendqisi2
 2307 0404 002D     		cmp	r5, #0
 2308 0406 3ED0     		beq	.L116
 2309              	.LBB107:
 607:X-CUBE-AI/App/aiSystemPerformance.c **** 
 2310              		.loc 1 607 3 discriminator 1 view .LVU610
 2311 0408 5969     		ldr	r1, [r3, #20]
 2312 040a DA68     		ldr	r2, [r3, #12]
 2313 040c 891A     		subs	r1, r1, r2
 2314              	.LVL180:
 607:X-CUBE-AI/App/aiSystemPerformance.c **** 
 2315              		.loc 1 607 3 discriminator 1 view .LVU611
 2316 040e DB69     		ldr	r3, [r3, #28]
 2317 0410 0333     		adds	r3, r3, #3
 2318 0412 23F00303 		bic	r3, r3, #3
 2319              	.LVL181:
 607:X-CUBE-AI/App/aiSystemPerformance.c **** 
 2320              		.loc 1 607 3 discriminator 1 view .LVU612
 607:X-CUBE-AI/App/aiSystemPerformance.c **** 
 2321              		.loc 1 607 3 discriminator 1 view .LVU613
 2322              	.LBB108:
 607:X-CUBE-AI/App/aiSystemPerformance.c **** 
ARM GAS  C:\Users\zacfi\AppData\Local\Temp\ccazi6oi.s 			page 76


 2323              		.loc 1 607 3 discriminator 1 view .LVU614
 607:X-CUBE-AI/App/aiSystemPerformance.c **** 
 2324              		.loc 1 607 3 is_stmt 0 discriminator 1 view .LVU615
 2325 0416 0022     		movs	r2, #0
 2326              	.LBE108:
 2327 0418 1646     		mov	r6, r2
 2328              	.LBB109:
 2329 041a 01E0     		b	.L117
 2330              	.LVL182:
 2331              	.L118:
 607:X-CUBE-AI/App/aiSystemPerformance.c **** 
 2332              		.loc 1 607 3 is_stmt 1 discriminator 6 view .LVU616
 2333 041c 0433     		adds	r3, r3, #4
 2334              	.LVL183:
 607:X-CUBE-AI/App/aiSystemPerformance.c **** 
 2335              		.loc 1 607 3 discriminator 6 view .LVU617
 2336 041e 0132     		adds	r2, r2, #1
 2337              	.LVL184:
 2338              	.L117:
 607:X-CUBE-AI/App/aiSystemPerformance.c **** 
 2339              		.loc 1 607 3 discriminator 7 view .LVU618
 2340 0420 072A     		cmp	r2, #7
 2341 0422 05DC     		bgt	.L142
 607:X-CUBE-AI/App/aiSystemPerformance.c **** 
 2342              		.loc 1 607 3 discriminator 8 view .LVU619
 2343 0424 1868     		ldr	r0, [r3]
 2344 0426 B0F1DE3F 		cmp	r0, #-555819298
 2345 042a F7D0     		beq	.L118
 607:X-CUBE-AI/App/aiSystemPerformance.c **** 
 2346              		.loc 1 607 3 is_stmt 0 view .LVU620
 2347 042c 2E46     		mov	r6, r5
 2348              	.LVL185:
 607:X-CUBE-AI/App/aiSystemPerformance.c **** 
 2349              		.loc 1 607 3 view .LVU621
 2350 042e F5E7     		b	.L118
 2351              	.LVL186:
 2352              	.L142:
 607:X-CUBE-AI/App/aiSystemPerformance.c **** 
 2353              		.loc 1 607 3 view .LVU622
 2354              	.LBE109:
 607:X-CUBE-AI/App/aiSystemPerformance.c **** 
 2355              		.loc 1 607 3 is_stmt 1 discriminator 9 view .LVU623
 2356 0430 002E     		cmp	r6, #0
 2357 0432 40F0D680 		bne	.L120
 607:X-CUBE-AI/App/aiSystemPerformance.c **** 
 2358              		.loc 1 607 3 discriminator 10 view .LVU624
 2359 0436 0A4A     		ldr	r2, .L145+32
 2360              	.LVL187:
 607:X-CUBE-AI/App/aiSystemPerformance.c **** 
 2361              		.loc 1 607 3 is_stmt 0 discriminator 10 view .LVU625
 2362 0438 2020     		movs	r0, #32
 2363 043a 9060     		str	r0, [r2, #8]
 607:X-CUBE-AI/App/aiSystemPerformance.c **** 
 2364              		.loc 1 607 3 is_stmt 1 discriminator 10 view .LVU626
 2365 043c 17E0     		b	.L121
 2366              	.L146:
 2367 043e 00BF     		.align	2
ARM GAS  C:\Users\zacfi\AppData\Local\Temp\ccazi6oi.s 			page 77


 2368              	.L145:
 2369 0440 00000000 		.word	.LANCHOR0
 2370 0444 00000000 		.word	io_malloc
 2371 0448 00000000 		.word	cyclesCount
 2372 044c 001000E0 		.word	-536866816
 2373 0450 00000000 		.word	.LANCHOR3
 2374 0454 00000000 		.word	_impure_ptr
 2375 0458 F8000000 		.word	.LC30
 2376 045c 08010000 		.word	.LC31
 2377 0460 00000000 		.word	io_stack
 2378              	.L123:
 607:X-CUBE-AI/App/aiSystemPerformance.c **** 
 2379              		.loc 1 607 3 discriminator 16 view .LVU627
 2380 0464 0433     		adds	r3, r3, #4
 2381              	.LVL188:
 607:X-CUBE-AI/App/aiSystemPerformance.c **** 
 2382              		.loc 1 607 3 discriminator 16 view .LVU628
 2383 0466 6648     		ldr	r0, .L147
 2384 0468 8268     		ldr	r2, [r0, #8]
 2385 046a 0432     		adds	r2, r2, #4
 2386 046c 8260     		str	r2, [r0, #8]
 2387              	.L121:
 607:X-CUBE-AI/App/aiSystemPerformance.c **** 
 2388              		.loc 1 607 3 discriminator 12 view .LVU629
 2389 046e 1A68     		ldr	r2, [r3]
 2390 0470 B2F1DE3F 		cmp	r2, #-555819298
 2391 0474 03D1     		bne	.L122
 607:X-CUBE-AI/App/aiSystemPerformance.c **** 
 2392              		.loc 1 607 3 is_stmt 0 discriminator 14 view .LVU630
 2393 0476 624A     		ldr	r2, .L147
 2394 0478 9269     		ldr	r2, [r2, #24]
 2395 047a 9A42     		cmp	r2, r3
 2396 047c F2D8     		bhi	.L123
 2397              	.L122:
 607:X-CUBE-AI/App/aiSystemPerformance.c **** 
 2398              		.loc 1 607 3 is_stmt 1 discriminator 17 view .LVU631
 2399 047e 604A     		ldr	r2, .L147
 2400 0480 9368     		ldr	r3, [r2, #8]
 2401              	.LVL189:
 607:X-CUBE-AI/App/aiSystemPerformance.c **** 
 2402              		.loc 1 607 3 is_stmt 0 discriminator 17 view .LVU632
 2403 0482 CB1A     		subs	r3, r1, r3
 2404 0484 9360     		str	r3, [r2, #8]
 2405              	.LVL190:
 2406              	.L116:
 607:X-CUBE-AI/App/aiSystemPerformance.c **** 
 2407              		.loc 1 607 3 discriminator 17 view .LVU633
 2408              	.LBE107:
 607:X-CUBE-AI/App/aiSystemPerformance.c **** 
 2409              		.loc 1 607 23 is_stmt 1 discriminator 19 view .LVU634
 613:X-CUBE-AI/App/aiSystemPerformance.c **** 
 2410              		.loc 1 613 3 discriminator 19 view .LVU635
 2411 0486 5F48     		ldr	r0, .L147+4
 2412 0488 FFF7FEFF 		bl	puts
 2413              	.LVL191:
 617:X-CUBE-AI/App/aiSystemPerformance.c ****   tmax = tmax - u_observer_ctx.u_dur_t / (uint64_t)iter;
 2414              		.loc 1 617 3 discriminator 19 view .LVU636
ARM GAS  C:\Users\zacfi\AppData\Local\Temp\ccazi6oi.s 			page 78


 617:X-CUBE-AI/App/aiSystemPerformance.c ****   tmax = tmax - u_observer_ctx.u_dur_t / (uint64_t)iter;
 2415              		.loc 1 617 31 is_stmt 0 discriminator 19 view .LVU637
 2416 048c 5E4B     		ldr	r3, .L147+8
 2417 048e 1D69     		ldr	r5, [r3, #16]
 2418 0490 5E69     		ldr	r6, [r3, #20]
 617:X-CUBE-AI/App/aiSystemPerformance.c ****   tmax = tmax - u_observer_ctx.u_dur_t / (uint64_t)iter;
 2419              		.loc 1 617 42 discriminator 19 view .LVU638
 2420 0492 4FEAEB77 		asr	r7, fp, #31
 617:X-CUBE-AI/App/aiSystemPerformance.c ****   tmax = tmax - u_observer_ctx.u_dur_t / (uint64_t)iter;
 2421              		.loc 1 617 40 discriminator 19 view .LVU639
 2422 0496 5A46     		mov	r2, fp
 2423 0498 3B46     		mov	r3, r7
 2424 049a 2846     		mov	r0, r5
 2425 049c 3146     		mov	r1, r6
 2426 049e FFF7FEFF 		bl	__aeabi_uldivmod
 2427              	.LVL192:
 617:X-CUBE-AI/App/aiSystemPerformance.c ****   tmax = tmax - u_observer_ctx.u_dur_t / (uint64_t)iter;
 2428              		.loc 1 617 8 discriminator 19 view .LVU640
 2429 04a2 089B     		ldr	r3, [sp, #32]
 2430 04a4 1B1A     		subs	r3, r3, r0
 2431 04a6 0893     		str	r3, [sp, #32]
 618:X-CUBE-AI/App/aiSystemPerformance.c ****   tcumul -= u_observer_ctx.u_dur_t;
 2432              		.loc 1 618 3 is_stmt 1 discriminator 19 view .LVU641
 618:X-CUBE-AI/App/aiSystemPerformance.c ****   tcumul -= u_observer_ctx.u_dur_t;
 2433              		.loc 1 618 8 is_stmt 0 discriminator 19 view .LVU642
 2434 04a8 099A     		ldr	r2, [sp, #36]
 2435 04aa 121A     		subs	r2, r2, r0
 2436 04ac 0992     		str	r2, [sp, #36]
 619:X-CUBE-AI/App/aiSystemPerformance.c **** #endif
 2437              		.loc 1 619 3 is_stmt 1 discriminator 19 view .LVU643
 619:X-CUBE-AI/App/aiSystemPerformance.c **** #endif
 2438              		.loc 1 619 10 is_stmt 0 discriminator 19 view .LVU644
 2439 04ae 069B     		ldr	r3, [sp, #24]
 619:X-CUBE-AI/App/aiSystemPerformance.c **** #endif
 2440              		.loc 1 619 10 discriminator 19 view .LVU645
 2441 04b0 581B     		subs	r0, r3, r5
 2442              	.LVL193:
 622:X-CUBE-AI/App/aiSystemPerformance.c **** 
 2443              		.loc 1 622 3 is_stmt 1 discriminator 19 view .LVU646
 622:X-CUBE-AI/App/aiSystemPerformance.c **** 
 2444              		.loc 1 622 10 is_stmt 0 discriminator 19 view .LVU647
 2445 04b2 5A46     		mov	r2, fp
 622:X-CUBE-AI/App/aiSystemPerformance.c **** 
 2446              		.loc 1 622 10 discriminator 19 view .LVU648
 2447 04b4 3B46     		mov	r3, r7
 2448 04b6 079D     		ldr	r5, [sp, #28]
 2449 04b8 65EB0601 		sbc	r1, r5, r6
 2450 04bc FFF7FEFF 		bl	__aeabi_uldivmod
 2451              	.LVL194:
 622:X-CUBE-AI/App/aiSystemPerformance.c **** 
 2452              		.loc 1 622 10 discriminator 19 view .LVU649
 2453 04c0 0646     		mov	r6, r0
 2454 04c2 8846     		mov	r8, r1
 2455 04c4 0691     		str	r1, [sp, #24]
 2456              	.LVL195:
 624:X-CUBE-AI/App/aiSystemPerformance.c **** 
 2457              		.loc 1 624 3 is_stmt 1 discriminator 19 view .LVU650
ARM GAS  C:\Users\zacfi\AppData\Local\Temp\ccazi6oi.s 			page 79


 2458 04c6 1EAA     		add	r2, sp, #120
 2459 04c8 FFF7FEFF 		bl	dwtCyclesToTime
 2460              	.LVL196:
 626:X-CUBE-AI/App/aiSystemPerformance.c ****       net_exec_ctx[idx].report.model_name, (int)iter,
 2461              		.loc 1 626 3 discriminator 19 view .LVU651
 2462 04cc C4EB0419 		rsb	r9, r4, r4, lsl #4
 2463 04d0 4E4A     		ldr	r2, .L147+12
 2464 04d2 02EBC909 		add	r9, r2, r9, lsl #3
 2465 04d6 D9F80470 		ldr	r7, [r9, #4]
 2466 04da 0597     		str	r7, [sp, #20]
 628:X-CUBE-AI/App/aiSystemPerformance.c ****       (int)(HAL_RCC_GetHCLKFreq() / 1000000),
 2467              		.loc 1 628 13 is_stmt 0 discriminator 19 view .LVU652
 2468 04dc FFF7FEFF 		bl	HAL_RCC_GetSysClockFreq
 2469              	.LVL197:
 628:X-CUBE-AI/App/aiSystemPerformance.c ****       (int)(HAL_RCC_GetHCLKFreq() / 1000000),
 2470              		.loc 1 628 39 discriminator 19 view .LVU653
 2471 04e0 DFF860A1 		ldr	r10, .L147+68
 2472 04e4 AAFB00C7 		umull	ip, r7, r10, r0
 2473 04e8 BF0C     		lsrs	r7, r7, #18
 629:X-CUBE-AI/App/aiSystemPerformance.c ****       (int)net_exec_ctx[idx].report.n_macc);
 2474              		.loc 1 629 13 discriminator 19 view .LVU654
 2475 04ea FFF7FEFF 		bl	HAL_RCC_GetHCLKFreq
 2476              	.LVL198:
 629:X-CUBE-AI/App/aiSystemPerformance.c ****       (int)net_exec_ctx[idx].report.n_macc);
 2477              		.loc 1 629 35 discriminator 19 view .LVU655
 2478 04ee AAFB00C3 		umull	ip, r3, r10, r0
 2479 04f2 9B0C     		lsrs	r3, r3, #18
 630:X-CUBE-AI/App/aiSystemPerformance.c **** 
 2480              		.loc 1 630 36 discriminator 19 view .LVU656
 2481 04f4 D9F83020 		ldr	r2, [r9, #48]
 626:X-CUBE-AI/App/aiSystemPerformance.c ****       net_exec_ctx[idx].report.model_name, (int)iter,
 2482              		.loc 1 626 3 discriminator 19 view .LVU657
 2483 04f8 0192     		str	r2, [sp, #4]
 2484 04fa 0093     		str	r3, [sp]
 2485 04fc 3B46     		mov	r3, r7
 2486 04fe 5A46     		mov	r2, fp
 2487 0500 0599     		ldr	r1, [sp, #20]
 2488 0502 4348     		ldr	r0, .L147+16
 2489 0504 FFF7FEFF 		bl	printf
 2490              	.LVL199:
 632:X-CUBE-AI/App/aiSystemPerformance.c ****   printf(" CPU cycles   : %d -%d/+%d (average,-/+)\r\n",
 2491              		.loc 1 632 3 is_stmt 1 discriminator 19 view .LVU658
 2492 0508 219A     		ldr	r2, [sp, #132]
 2493 050a 1F99     		ldr	r1, [sp, #124]
 2494 050c 209B     		ldr	r3, [sp, #128]
 2495 050e 4FF47A70 		mov	r0, #1000
 2496 0512 00FB0131 		mla	r1, r0, r1, r3
 2497 0516 3F48     		ldr	r0, .L147+20
 2498 0518 FFF7FEFF 		bl	printf
 2499              	.LVL200:
 633:X-CUBE-AI/App/aiSystemPerformance.c ****       (int)(tcumul), (int)(tcumul - tmin),
 2500              		.loc 1 633 3 discriminator 19 view .LVU659
 2501 051c 0998     		ldr	r0, [sp, #36]
 2502 051e 831B     		subs	r3, r0, r6
 2503 0520 0899     		ldr	r1, [sp, #32]
 2504 0522 721A     		subs	r2, r6, r1
 2505 0524 3146     		mov	r1, r6
ARM GAS  C:\Users\zacfi\AppData\Local\Temp\ccazi6oi.s 			page 80


 2506 0526 3C48     		ldr	r0, .L147+24
 2507 0528 FFF7FEFF 		bl	printf
 2508              	.LVL201:
 636:X-CUBE-AI/App/aiSystemPerformance.c ****   cmacc = (uint32_t)((tcumul * 100)/ net_exec_ctx[idx].report.n_macc);
 2509              		.loc 1 636 3 discriminator 19 view .LVU660
 636:X-CUBE-AI/App/aiSystemPerformance.c ****   cmacc = (uint32_t)((tcumul * 100)/ net_exec_ctx[idx].report.n_macc);
 2510              		.loc 1 636 70 is_stmt 0 discriminator 19 view .LVU661
 2511 052c B319     		adds	r3, r6, r6
 2512 052e 069A     		ldr	r2, [sp, #24]
 2513 0530 5241     		adcs	r2, r2, r2
 2514 0532 9B19     		adds	r3, r3, r6
 2515 0534 42EB0802 		adc	r2, r2, r8
 2516 0538 5101     		lsls	r1, r2, #5
 2517 053a 41EAD361 		orr	r1, r1, r3, lsr #27
 2518 053e 5801     		lsls	r0, r3, #5
 2519 0540 1B18     		adds	r3, r3, r0
 2520 0542 42EB0102 		adc	r2, r2, r1
 2521 0546 9D19     		adds	r5, r3, r6
 2522 0548 42EB0808 		adc	r8, r2, r8
 2523              	.LVL202:
 636:X-CUBE-AI/App/aiSystemPerformance.c ****   cmacc = (uint32_t)((tcumul * 100)/ net_exec_ctx[idx].report.n_macc);
 2524              		.loc 1 636 80 discriminator 19 view .LVU662
 2525 054c 0026     		movs	r6, #0
 636:X-CUBE-AI/App/aiSystemPerformance.c ****   cmacc = (uint32_t)((tcumul * 100)/ net_exec_ctx[idx].report.n_macc);
 2526              		.loc 1 636 77 discriminator 19 view .LVU663
 2527 054e 1E9A     		ldr	r2, [sp, #120]
 2528 0550 3346     		mov	r3, r6
 2529 0552 2846     		mov	r0, r5
 2530 0554 4146     		mov	r1, r8
 2531 0556 FFF7FEFF 		bl	__aeabi_uldivmod
 2532              	.LVL203:
 2533 055a 0146     		mov	r1, r0
 636:X-CUBE-AI/App/aiSystemPerformance.c ****   cmacc = (uint32_t)((tcumul * 100)/ net_exec_ctx[idx].report.n_macc);
 2534              		.loc 1 636 3 discriminator 19 view .LVU664
 2535 055c 2522     		movs	r2, #37
 2536 055e 2F48     		ldr	r0, .L147+28
 2537 0560 FFF7FEFF 		bl	printf
 2538              	.LVL204:
 637:X-CUBE-AI/App/aiSystemPerformance.c ****   printf(" cycles/MACC  : %d.%02d (average for all layers)\r\n",
 2539              		.loc 1 637 3 is_stmt 1 discriminator 19 view .LVU665
 637:X-CUBE-AI/App/aiSystemPerformance.c ****   printf(" cycles/MACC  : %d.%02d (average for all layers)\r\n",
 2540              		.loc 1 637 36 is_stmt 0 discriminator 19 view .LVU666
 2541 0564 D9F83020 		ldr	r2, [r9, #48]
 2542 0568 3346     		mov	r3, r6
 2543 056a 2846     		mov	r0, r5
 2544 056c 4146     		mov	r1, r8
 2545 056e FFF7FEFF 		bl	__aeabi_uldivmod
 2546              	.LVL205:
 638:X-CUBE-AI/App/aiSystemPerformance.c ****       (int)(cmacc / 100), (int)(cmacc - ((cmacc / 100) * 100)));
 2547              		.loc 1 638 3 is_stmt 1 discriminator 19 view .LVU667
 639:X-CUBE-AI/App/aiSystemPerformance.c **** 
 2548              		.loc 1 639 19 is_stmt 0 discriminator 19 view .LVU668
 2549 0572 2B49     		ldr	r1, .L147+32
 2550 0574 A1FB0031 		umull	r3, r1, r1, r0
 2551 0578 4909     		lsrs	r1, r1, #5
 638:X-CUBE-AI/App/aiSystemPerformance.c ****       (int)(cmacc / 100), (int)(cmacc - ((cmacc / 100) * 100)));
 2552              		.loc 1 638 3 discriminator 19 view .LVU669
ARM GAS  C:\Users\zacfi\AppData\Local\Temp\ccazi6oi.s 			page 81


 2553 057a 6422     		movs	r2, #100
 2554 057c 02FB1102 		mls	r2, r2, r1, r0
 2555 0580 2848     		ldr	r0, .L147+36
 2556              	.LVL206:
 638:X-CUBE-AI/App/aiSystemPerformance.c ****       (int)(cmacc / 100), (int)(cmacc - ((cmacc / 100) * 100)));
 2557              		.loc 1 638 3 discriminator 19 view .LVU670
 2558 0582 FFF7FEFF 		bl	printf
 2559              	.LVL207:
 641:X-CUBE-AI/App/aiSystemPerformance.c ****   MON_ALLOC_REPORT();
 2560              		.loc 1 641 3 is_stmt 1 discriminator 19 view .LVU671
 2561 0586 1E4B     		ldr	r3, .L147
 2562 0588 1B79     		ldrb	r3, [r3, #4]	@ zero_extendqisi2
 2563 058a 002B     		cmp	r3, #0
 2564 058c 34D0     		beq	.L124
 641:X-CUBE-AI/App/aiSystemPerformance.c ****   MON_ALLOC_REPORT();
 2565              		.loc 1 641 3 discriminator 1 view .LVU672
 2566 058e 1C4B     		ldr	r3, .L147
 2567 0590 9968     		ldr	r1, [r3, #8]
