ARM GAS  C:\Users\zacfi\AppData\Local\Temp\ccqnkoWq.s 			page 1


   1              		.cpu cortex-m4
   2              		.eabi_attribute 27, 1
   3              		.eabi_attribute 28, 1
   4              		.eabi_attribute 20, 1
   5              		.eabi_attribute 21, 1
   6              		.eabi_attribute 23, 3
   7              		.eabi_attribute 24, 1
   8              		.eabi_attribute 25, 1
   9              		.eabi_attribute 26, 1
  10              		.eabi_attribute 30, 1
  11              		.eabi_attribute 34, 1
  12              		.eabi_attribute 18, 4
  13              		.file	"aiTestUtility.c"
  14              		.text
  15              	.Ltext0:
  16              		.cfi_sections	.debug_frame
  17              		.section	.text.ioRawGetUint8,"ax",%progbits
  18              		.align	1
  19              		.global	ioRawGetUint8
  20              		.arch armv7e-m
  21              		.syntax unified
  22              		.thumb
  23              		.thumb_func
  24              		.fpu fpv4-sp-d16
  26              	ioRawGetUint8:
  27              	.LVL0:
  28              	.LFB140:
  29              		.file 1 "X-CUBE-AI/App/aiTestUtility.c"
   1:X-CUBE-AI/App/aiTestUtility.c **** /**
   2:X-CUBE-AI/App/aiTestUtility.c ****  ******************************************************************************
   3:X-CUBE-AI/App/aiTestUtility.c ****  * @file    aiTestUtility.c
   4:X-CUBE-AI/App/aiTestUtility.c ****  * @author  MCD Vertical Application Team
   5:X-CUBE-AI/App/aiTestUtility.c ****  * @brief   STM32 Utility functions for STM32 AI test application
   6:X-CUBE-AI/App/aiTestUtility.c ****  ******************************************************************************
   7:X-CUBE-AI/App/aiTestUtility.c ****  * @attention
   8:X-CUBE-AI/App/aiTestUtility.c ****  *
   9:X-CUBE-AI/App/aiTestUtility.c ****  * <h2><center>&copy; Copyright (c) 2020 STMicroelectronics.
  10:X-CUBE-AI/App/aiTestUtility.c ****  * All rights reserved.</center></h2 +>
  11:X-CUBE-AI/App/aiTestUtility.c ****  *
  12:X-CUBE-AI/App/aiTestUtility.c ****  * This software component is licensed by ST under Ultimate Liberty license
  13:X-CUBE-AI/App/aiTestUtility.c ****  * SLA0044, the "License"; You may not use this file except in compliance with
  14:X-CUBE-AI/App/aiTestUtility.c ****  * the License. You may obtain a copy of the License at:
  15:X-CUBE-AI/App/aiTestUtility.c ****  *                             www.st.com/SLA0044
  16:X-CUBE-AI/App/aiTestUtility.c ****  *
  17:X-CUBE-AI/App/aiTestUtility.c ****  ******************************************************************************
  18:X-CUBE-AI/App/aiTestUtility.c ****  */
  19:X-CUBE-AI/App/aiTestUtility.c **** 
  20:X-CUBE-AI/App/aiTestUtility.c **** /*
  21:X-CUBE-AI/App/aiTestUtility.c ****  * Description:
  22:X-CUBE-AI/App/aiTestUtility.c ****  *
  23:X-CUBE-AI/App/aiTestUtility.c ****  * History:
  24:X-CUBE-AI/App/aiTestUtility.c ****  *  - v1.0 - initial version (from initial aiSystemPerformance file - v5.1)
  25:X-CUBE-AI/App/aiTestUtility.c ****  *  - v1.1 - add Arm Compiler 6 support (MDK)
  26:X-CUBE-AI/App/aiTestUtility.c ****  *  - v1.2 - add io low level code to manage a COM through the STM32 USB CDC profile
  27:X-CUBE-AI/App/aiTestUtility.c ****  *           enabled with the USE_USB_CDC_CLASS = 1 define.
  28:X-CUBE-AI/App/aiTestUtility.c ****  *  - v1.3 - Fix compilation issue for H7 dual core
  29:X-CUBE-AI/App/aiTestUtility.c ****  */
ARM GAS  C:\Users\zacfi\AppData\Local\Temp\ccqnkoWq.s 			page 2


  30:X-CUBE-AI/App/aiTestUtility.c **** 
  31:X-CUBE-AI/App/aiTestUtility.c **** /*
  32:X-CUBE-AI/App/aiTestUtility.c ****  *  NOTE about the USE_USB_CDC_CLASS support
  33:X-CUBE-AI/App/aiTestUtility.c ****  *
  34:X-CUBE-AI/App/aiTestUtility.c ****  *   When USE_USB_CDC_CLASS is set to 1 the code to manage the
  35:X-CUBE-AI/App/aiTestUtility.c ****  *   STM32 USB_DEVICE and the CDC class should added in the project.
  36:X-CUBE-AI/App/aiTestUtility.c ****  *
  37:X-CUBE-AI/App/aiTestUtility.c ****  *   CDC_Receive_FS()/CDC_Control_FS() functions (file: "usb_cdc_if.c")
  38:X-CUBE-AI/App/aiTestUtility.c ****  *   should be adapted/patched
  39:X-CUBE-AI/App/aiTestUtility.c ****  *
  40:X-CUBE-AI/App/aiTestUtility.c ****  *   o CDC_Receive_FS() to handle the received data
  41:X-CUBE-AI/App/aiTestUtility.c ****  *    ...
  42:X-CUBE-AI/App/aiTestUtility.c ****  *    static int8_t CDC_Receive_FS(uint8_t* Buf, uint32_t *Len) {
  43:X-CUBE-AI/App/aiTestUtility.c ****  *      extern void ioPushInUserUsb(uint8_t *pw, uint32_t *len);
  44:X-CUBE-AI/App/aiTestUtility.c ****  *      ioPushInUserUsb(Buf, Len);
  45:X-CUBE-AI/App/aiTestUtility.c ****  *      USBD_CDC_SetRxBuffer(&hUsbDeviceFS, &Buf[0]);
  46:X-CUBE-AI/App/aiTestUtility.c ****  *      USBD_CDC_ReceivePacket(&hUsbDeviceFS);
  47:X-CUBE-AI/App/aiTestUtility.c ****  *      return (USBD_OK);
  48:X-CUBE-AI/App/aiTestUtility.c ****  *      }
  49:X-CUBE-AI/App/aiTestUtility.c ****  *    ...
  50:X-CUBE-AI/App/aiTestUtility.c ****  *
  51:X-CUBE-AI/App/aiTestUtility.c ****  *   o CDC_Control_FS() to return the valid data for CDC_GET_LINE_CODING
  52:X-CUBE-AI/App/aiTestUtility.c ****  *     request.This is requested by the Python module in charge of the
  53:X-CUBE-AI/App/aiTestUtility.c ****  *     Serial COM with the validation process.
  54:X-CUBE-AI/App/aiTestUtility.c ****  *
  55:X-CUBE-AI/App/aiTestUtility.c ****  *      ...
  56:X-CUBE-AI/App/aiTestUtility.c ****  *      case CDC_GET_LINE_CODING:
  57:X-CUBE-AI/App/aiTestUtility.c ****  *
  58:X-CUBE-AI/App/aiTestUtility.c ****  *        if (length == 7) {
  59:X-CUBE-AI/App/aiTestUtility.c ****  *        *(uint32_t *)pbuf = 115200;
  60:X-CUBE-AI/App/aiTestUtility.c ****  *        pbuf[4] = 0;
  61:X-CUBE-AI/App/aiTestUtility.c ****  *        pbuf[5] = 0;
  62:X-CUBE-AI/App/aiTestUtility.c ****  *        pbuf[6] = 8;
  63:X-CUBE-AI/App/aiTestUtility.c ****  *        }
  64:X-CUBE-AI/App/aiTestUtility.c ****  *
  65:X-CUBE-AI/App/aiTestUtility.c ****  *      break;
  66:X-CUBE-AI/App/aiTestUtility.c ****  *      ...
  67:X-CUBE-AI/App/aiTestUtility.c ****  *
  68:X-CUBE-AI/App/aiTestUtility.c ****  */
  69:X-CUBE-AI/App/aiTestUtility.c **** 
  70:X-CUBE-AI/App/aiTestUtility.c **** #include <stdio.h>
  71:X-CUBE-AI/App/aiTestUtility.c **** #include <string.h>
  72:X-CUBE-AI/App/aiTestUtility.c **** 
  73:X-CUBE-AI/App/aiTestUtility.c **** #include <aiTestUtility.h>
  74:X-CUBE-AI/App/aiTestUtility.c **** 
  75:X-CUBE-AI/App/aiTestUtility.c **** #ifndef USE_USB_CDC_CLASS
  76:X-CUBE-AI/App/aiTestUtility.c **** #define USE_USB_CDC_CLASS 0
  77:X-CUBE-AI/App/aiTestUtility.c **** #endif
  78:X-CUBE-AI/App/aiTestUtility.c **** 
  79:X-CUBE-AI/App/aiTestUtility.c **** 
  80:X-CUBE-AI/App/aiTestUtility.c **** /* -----------------------------------------------------------------------------
  81:X-CUBE-AI/App/aiTestUtility.c ****  * Sanity check
  82:X-CUBE-AI/App/aiTestUtility.c ****  * -----------------------------------------------------------------------------
  83:X-CUBE-AI/App/aiTestUtility.c ****  */
  84:X-CUBE-AI/App/aiTestUtility.c **** 
  85:X-CUBE-AI/App/aiTestUtility.c **** #if defined(__GNUC__) && !defined(__ARMCC_VERSION)
  86:X-CUBE-AI/App/aiTestUtility.c **** 
ARM GAS  C:\Users\zacfi\AppData\Local\Temp\ccqnkoWq.s 			page 3


  87:X-CUBE-AI/App/aiTestUtility.c **** #elif defined(__ICCARM__)
  88:X-CUBE-AI/App/aiTestUtility.c **** 
  89:X-CUBE-AI/App/aiTestUtility.c **** #if _APP_HEAP_MONITOR_ == 1
  90:X-CUBE-AI/App/aiTestUtility.c **** #undef _APP_HEAP_MONITOR_
  91:X-CUBE-AI/App/aiTestUtility.c **** #define _APP_HEAP_MONITOR_ 0
  92:X-CUBE-AI/App/aiTestUtility.c **** #error HEAP monitor is not YET supported
  93:X-CUBE-AI/App/aiTestUtility.c **** #endif
  94:X-CUBE-AI/App/aiTestUtility.c **** 
  95:X-CUBE-AI/App/aiTestUtility.c **** #elif defined(__CC_ARM) || defined(__ARMCC_VERSION)
  96:X-CUBE-AI/App/aiTestUtility.c **** 
  97:X-CUBE-AI/App/aiTestUtility.c **** #if _APP_STACK_MONITOR_ == 1
  98:X-CUBE-AI/App/aiTestUtility.c **** #undef _APP_STACK_MONITOR_
  99:X-CUBE-AI/App/aiTestUtility.c **** #define _APP_STACK_MONITOR_ 0
 100:X-CUBE-AI/App/aiTestUtility.c **** #error STACK monitor is not YET supported
 101:X-CUBE-AI/App/aiTestUtility.c **** #endif
 102:X-CUBE-AI/App/aiTestUtility.c **** 
 103:X-CUBE-AI/App/aiTestUtility.c **** #if _APP_HEAP_MONITOR_ == 1
 104:X-CUBE-AI/App/aiTestUtility.c **** #undef _APP_HEAP_MONITOR_
 105:X-CUBE-AI/App/aiTestUtility.c **** #define _APP_HEAP_MONITOR_ 0
 106:X-CUBE-AI/App/aiTestUtility.c **** #error HEAP monitor is not YET supported
 107:X-CUBE-AI/App/aiTestUtility.c **** #endif
 108:X-CUBE-AI/App/aiTestUtility.c **** 
 109:X-CUBE-AI/App/aiTestUtility.c **** #else
 110:X-CUBE-AI/App/aiTestUtility.c **** 
 111:X-CUBE-AI/App/aiTestUtility.c **** #error ARM MCU tool chain is not supported
 112:X-CUBE-AI/App/aiTestUtility.c **** 
 113:X-CUBE-AI/App/aiTestUtility.c **** #endif
 114:X-CUBE-AI/App/aiTestUtility.c **** 
 115:X-CUBE-AI/App/aiTestUtility.c **** 
 116:X-CUBE-AI/App/aiTestUtility.c **** /* -----------------------------------------------------------------------------
 117:X-CUBE-AI/App/aiTestUtility.c ****  * IO functions
 118:X-CUBE-AI/App/aiTestUtility.c ****  * -----------------------------------------------------------------------------
 119:X-CUBE-AI/App/aiTestUtility.c ****  */
 120:X-CUBE-AI/App/aiTestUtility.c **** 
 121:X-CUBE-AI/App/aiTestUtility.c **** #if defined(__GNUC__) && !defined(__ARMCC_VERSION)
 122:X-CUBE-AI/App/aiTestUtility.c **** #include <errno.h>
 123:X-CUBE-AI/App/aiTestUtility.c **** #include <sys/unistd.h> /* STDOUT_FILENO, STDERR_FILENO */
 124:X-CUBE-AI/App/aiTestUtility.c **** #elif defined (__ICCARM__)
 125:X-CUBE-AI/App/aiTestUtility.c **** #if (__IAR_SYSTEMS_ICC__ <= 8)
 126:X-CUBE-AI/App/aiTestUtility.c **** /* Temporary workaround - LowLevelIOInterface.h seems not available
 127:X-CUBE-AI/App/aiTestUtility.c ****    with IAR 7.80.4 */
 128:X-CUBE-AI/App/aiTestUtility.c **** #define _LLIO_STDIN  0
 129:X-CUBE-AI/App/aiTestUtility.c **** #define _LLIO_STDOUT 1
 130:X-CUBE-AI/App/aiTestUtility.c **** #define _LLIO_STDERR 2
 131:X-CUBE-AI/App/aiTestUtility.c **** #define _LLIO_ERROR ((size_t)-1) /* For __read and __write. */
 132:X-CUBE-AI/App/aiTestUtility.c **** #else
 133:X-CUBE-AI/App/aiTestUtility.c **** #include <LowLevelIOInterface.h> /* _LLIO_STDOUT, _LLIO_STDERR */
 134:X-CUBE-AI/App/aiTestUtility.c **** #endif
 135:X-CUBE-AI/App/aiTestUtility.c **** 
 136:X-CUBE-AI/App/aiTestUtility.c **** #elif defined (__CC_ARM) || defined(__ARMCC_VERSION)
 137:X-CUBE-AI/App/aiTestUtility.c **** 
 138:X-CUBE-AI/App/aiTestUtility.c **** #endif
 139:X-CUBE-AI/App/aiTestUtility.c **** 
 140:X-CUBE-AI/App/aiTestUtility.c **** #if defined(USE_USB_CDC_CLASS) && USE_USB_CDC_CLASS == 1
 141:X-CUBE-AI/App/aiTestUtility.c **** 
 142:X-CUBE-AI/App/aiTestUtility.c **** #include "usbd_cdc_if.h"
 143:X-CUBE-AI/App/aiTestUtility.c **** 
ARM GAS  C:\Users\zacfi\AppData\Local\Temp\ccqnkoWq.s 			page 4


 144:X-CUBE-AI/App/aiTestUtility.c **** #define _MAX_USB_USER_ELEM (128)
 145:X-CUBE-AI/App/aiTestUtility.c **** 
 146:X-CUBE-AI/App/aiTestUtility.c **** uint8_t _usb_fifo[_MAX_USB_USER_ELEM];
 147:X-CUBE-AI/App/aiTestUtility.c **** volatile uint32_t _usb_nb_w_item = 0;
 148:X-CUBE-AI/App/aiTestUtility.c **** volatile uint32_t _usb_nb_r_item = 0;
 149:X-CUBE-AI/App/aiTestUtility.c **** uint8_t *_usb_p_read = &_usb_fifo[0];
 150:X-CUBE-AI/App/aiTestUtility.c **** uint8_t *_usb_p_write = &_usb_fifo[0];
 151:X-CUBE-AI/App/aiTestUtility.c **** 
 152:X-CUBE-AI/App/aiTestUtility.c **** #endif
 153:X-CUBE-AI/App/aiTestUtility.c **** 
 154:X-CUBE-AI/App/aiTestUtility.c **** extern UART_HandleTypeDef UartHandle;
 155:X-CUBE-AI/App/aiTestUtility.c **** 
 156:X-CUBE-AI/App/aiTestUtility.c **** static bool _ioWriteAllowed = true;
 157:X-CUBE-AI/App/aiTestUtility.c **** 
 158:X-CUBE-AI/App/aiTestUtility.c **** int ioRawGetUint8(uint8_t *c, uint32_t timeout)
 159:X-CUBE-AI/App/aiTestUtility.c **** {
  30              		.loc 1 159 1 view -0
  31              		.cfi_startproc
  32              		@ args = 0, pretend = 0, frame = 0
  33              		@ frame_needed = 0, uses_anonymous_args = 0
 160:X-CUBE-AI/App/aiTestUtility.c ****   HAL_StatusTypeDef status;
  34              		.loc 1 160 3 view .LVU1
 161:X-CUBE-AI/App/aiTestUtility.c **** 
 162:X-CUBE-AI/App/aiTestUtility.c ****   if (!c)
  35              		.loc 1 162 3 view .LVU2
  36              		.loc 1 162 6 is_stmt 0 view .LVU3
  37 0000 60B1     		cbz	r0, .L3
 159:X-CUBE-AI/App/aiTestUtility.c ****   HAL_StatusTypeDef status;
  38              		.loc 1 159 1 view .LVU4
  39 0002 08B5     		push	{r3, lr}
  40              	.LCFI0:
  41              		.cfi_def_cfa_offset 8
  42              		.cfi_offset 3, -8
  43              		.cfi_offset 14, -4
  44 0004 0B46     		mov	r3, r1
  45 0006 0146     		mov	r1, r0
  46              	.LVL1:
 163:X-CUBE-AI/App/aiTestUtility.c ****     return -1;
 164:X-CUBE-AI/App/aiTestUtility.c **** 
 165:X-CUBE-AI/App/aiTestUtility.c ****   status = HAL_UART_Receive(&UartHandle, (uint8_t *)c, 1,
  47              		.loc 1 165 3 is_stmt 1 view .LVU5
  48              		.loc 1 165 12 is_stmt 0 view .LVU6
  49 0008 0122     		movs	r2, #1
  50 000a 0748     		ldr	r0, .L9
  51              	.LVL2:
  52              		.loc 1 165 12 view .LVU7
  53 000c FFF7FEFF 		bl	HAL_UART_Receive
  54              	.LVL3:
 166:X-CUBE-AI/App/aiTestUtility.c ****       timeout);
 167:X-CUBE-AI/App/aiTestUtility.c **** 
 168:X-CUBE-AI/App/aiTestUtility.c ****   if (status == HAL_TIMEOUT)
  55              		.loc 1 168 3 is_stmt 1 view .LVU8
  56              		.loc 1 168 6 is_stmt 0 view .LVU9
  57 0010 0328     		cmp	r0, #3
  58 0012 06D0     		beq	.L4
 169:X-CUBE-AI/App/aiTestUtility.c ****     return -1;
 170:X-CUBE-AI/App/aiTestUtility.c **** 
ARM GAS  C:\Users\zacfi\AppData\Local\Temp\ccqnkoWq.s 			page 5


 171:X-CUBE-AI/App/aiTestUtility.c ****   return (status == HAL_OK ? 1 : 0);
  59              		.loc 1 171 3 is_stmt 1 view .LVU10
  60              		.loc 1 171 32 is_stmt 0 view .LVU11
  61 0014 B0FA80F0 		clz	r0, r0
  62              	.LVL4:
  63              		.loc 1 171 32 view .LVU12
  64 0018 4009     		lsrs	r0, r0, #5
  65              	.L1:
 172:X-CUBE-AI/App/aiTestUtility.c **** }
  66              		.loc 1 172 1 view .LVU13
  67 001a 08BD     		pop	{r3, pc}
  68              	.LVL5:
  69              	.L3:
  70              	.LCFI1:
  71              		.cfi_def_cfa_offset 0
  72              		.cfi_restore 3
  73              		.cfi_restore 14
 163:X-CUBE-AI/App/aiTestUtility.c **** 
  74              		.loc 1 163 12 view .LVU14
  75 001c 4FF0FF30 		mov	r0, #-1
  76              	.LVL6:
  77              		.loc 1 172 1 view .LVU15
  78 0020 7047     		bx	lr
  79              	.LVL7:
  80              	.L4:
  81              	.LCFI2:
  82              		.cfi_def_cfa_offset 8
  83              		.cfi_offset 3, -8
  84              		.cfi_offset 14, -4
 169:X-CUBE-AI/App/aiTestUtility.c ****     return -1;
  85              		.loc 1 169 12 view .LVU16
  86 0022 4FF0FF30 		mov	r0, #-1
  87              	.LVL8:
 169:X-CUBE-AI/App/aiTestUtility.c ****     return -1;
  88              		.loc 1 169 12 view .LVU17
  89 0026 F8E7     		b	.L1
  90              	.L10:
  91              		.align	2
  92              	.L9:
  93 0028 00000000 		.word	huart2
  94              		.cfi_endproc
  95              	.LFE140:
  97              		.section	.text.ioRawWriteBuffer,"ax",%progbits
  98              		.align	1
  99              		.global	ioRawWriteBuffer
 100              		.syntax unified
 101              		.thumb
 102              		.thumb_func
 103              		.fpu fpv4-sp-d16
 105              	ioRawWriteBuffer:
 106              	.LVL9:
 107              	.LFB141:
 173:X-CUBE-AI/App/aiTestUtility.c **** 
 174:X-CUBE-AI/App/aiTestUtility.c **** #if defined(USE_USB_CDC_CLASS) && USE_USB_CDC_CLASS == 1
 175:X-CUBE-AI/App/aiTestUtility.c **** 
 176:X-CUBE-AI/App/aiTestUtility.c **** void ioPushInUserUsb(uint8_t *pw, uint32_t *len)
 177:X-CUBE-AI/App/aiTestUtility.c **** {
ARM GAS  C:\Users\zacfi\AppData\Local\Temp\ccqnkoWq.s 			page 6


 178:X-CUBE-AI/App/aiTestUtility.c ****   uint8_t *pr = pw;
 179:X-CUBE-AI/App/aiTestUtility.c ****   for (int i=0; i < *len; i++) {
 180:X-CUBE-AI/App/aiTestUtility.c ****     *_usb_p_write++ = *pr++;
 181:X-CUBE-AI/App/aiTestUtility.c ****     if (_usb_p_write == &_usb_fifo[_MAX_USB_USER_ELEM])
 182:X-CUBE-AI/App/aiTestUtility.c ****       _usb_p_write = &_usb_fifo[0];
 183:X-CUBE-AI/App/aiTestUtility.c ****     _usb_nb_w_item++;
 184:X-CUBE-AI/App/aiTestUtility.c ****   }
 185:X-CUBE-AI/App/aiTestUtility.c **** }
 186:X-CUBE-AI/App/aiTestUtility.c **** 
 187:X-CUBE-AI/App/aiTestUtility.c **** bool ioRawWriteBuffer(uint8_t *buff, int count)
 188:X-CUBE-AI/App/aiTestUtility.c **** {
 189:X-CUBE-AI/App/aiTestUtility.c ****   HAL_StatusTypeDef status = HAL_OK;
 190:X-CUBE-AI/App/aiTestUtility.c ****   while (USBD_BUSY == CDC_Transmit_FS(buff, count));
 191:X-CUBE-AI/App/aiTestUtility.c ****   // CDC_Transmit_FS(buff, count);
 192:X-CUBE-AI/App/aiTestUtility.c ****   return (status == HAL_OK);
 193:X-CUBE-AI/App/aiTestUtility.c **** }
 194:X-CUBE-AI/App/aiTestUtility.c **** 
 195:X-CUBE-AI/App/aiTestUtility.c **** bool ioRawReadBuffer(uint8_t *buff, int count)
 196:X-CUBE-AI/App/aiTestUtility.c **** {
 197:X-CUBE-AI/App/aiTestUtility.c ****   HAL_StatusTypeDef status = HAL_OK;
 198:X-CUBE-AI/App/aiTestUtility.c ****   while ((_usb_nb_w_item - _usb_nb_r_item) < count) {};
 199:X-CUBE-AI/App/aiTestUtility.c **** 
 200:X-CUBE-AI/App/aiTestUtility.c ****   uint8_t *pw = buff;
 201:X-CUBE-AI/App/aiTestUtility.c ****   for (int i=0; i < count; i++) {
 202:X-CUBE-AI/App/aiTestUtility.c ****     *pw++ = *_usb_p_read++;
 203:X-CUBE-AI/App/aiTestUtility.c ****     if (_usb_p_read == &_usb_fifo[_MAX_USB_USER_ELEM])
 204:X-CUBE-AI/App/aiTestUtility.c ****       _usb_p_read = &_usb_fifo[0];
 205:X-CUBE-AI/App/aiTestUtility.c ****     _usb_nb_r_item++;
 206:X-CUBE-AI/App/aiTestUtility.c ****   }
 207:X-CUBE-AI/App/aiTestUtility.c ****   return (status == HAL_OK);
 208:X-CUBE-AI/App/aiTestUtility.c **** }
 209:X-CUBE-AI/App/aiTestUtility.c **** 
 210:X-CUBE-AI/App/aiTestUtility.c **** void ioRawDisableLLWrite(void)
 211:X-CUBE-AI/App/aiTestUtility.c **** {
 212:X-CUBE-AI/App/aiTestUtility.c **** }
 213:X-CUBE-AI/App/aiTestUtility.c **** 
 214:X-CUBE-AI/App/aiTestUtility.c **** #else
 215:X-CUBE-AI/App/aiTestUtility.c **** 
 216:X-CUBE-AI/App/aiTestUtility.c **** bool ioRawWriteBuffer(uint8_t *buff, int count)
 217:X-CUBE-AI/App/aiTestUtility.c **** {
 108              		.loc 1 217 1 is_stmt 1 view -0
 109              		.cfi_startproc
 110              		@ args = 0, pretend = 0, frame = 0
 111              		@ frame_needed = 0, uses_anonymous_args = 0
 112              		.loc 1 217 1 is_stmt 0 view .LVU19
 113 0000 08B5     		push	{r3, lr}
 114              	.LCFI3:
 115              		.cfi_def_cfa_offset 8
 116              		.cfi_offset 3, -8
 117              		.cfi_offset 14, -4
 218:X-CUBE-AI/App/aiTestUtility.c ****   HAL_StatusTypeDef status;
 118              		.loc 1 218 3 is_stmt 1 view .LVU20
 219:X-CUBE-AI/App/aiTestUtility.c **** 
 220:X-CUBE-AI/App/aiTestUtility.c ****   status = HAL_UART_Transmit(&UartHandle, buff, count, HAL_MAX_DELAY);
 119              		.loc 1 220 3 view .LVU21
 120              		.loc 1 220 12 is_stmt 0 view .LVU22
 121 0002 4FF0FF33 		mov	r3, #-1
ARM GAS  C:\Users\zacfi\AppData\Local\Temp\ccqnkoWq.s 			page 7


 122 0006 8AB2     		uxth	r2, r1
 123 0008 0146     		mov	r1, r0
 124              	.LVL10:
 125              		.loc 1 220 12 view .LVU23
 126 000a 0348     		ldr	r0, .L13
 127              	.LVL11:
 128              		.loc 1 220 12 view .LVU24
 129 000c FFF7FEFF 		bl	HAL_UART_Transmit
 130              	.LVL12:
 221:X-CUBE-AI/App/aiTestUtility.c **** 
 222:X-CUBE-AI/App/aiTestUtility.c ****   return (status == HAL_OK);
 131              		.loc 1 222 3 is_stmt 1 view .LVU25
 223:X-CUBE-AI/App/aiTestUtility.c **** }
 132              		.loc 1 223 1 is_stmt 0 view .LVU26
 133 0010 B0FA80F0 		clz	r0, r0
 134              	.LVL13:
 135              		.loc 1 223 1 view .LVU27
 136 0014 4009     		lsrs	r0, r0, #5
 137 0016 08BD     		pop	{r3, pc}
 138              	.L14:
 139              		.align	2
 140              	.L13:
 141 0018 00000000 		.word	huart2
 142              		.cfi_endproc
 143              	.LFE141:
 145              		.section	.text.ioRawReadBuffer,"ax",%progbits
 146              		.align	1
 147              		.global	ioRawReadBuffer
 148              		.syntax unified
 149              		.thumb
 150              		.thumb_func
 151              		.fpu fpv4-sp-d16
 153              	ioRawReadBuffer:
 154              	.LVL14:
 155              	.LFB142:
 224:X-CUBE-AI/App/aiTestUtility.c **** 
 225:X-CUBE-AI/App/aiTestUtility.c **** bool ioRawReadBuffer(uint8_t *buff, int count)
 226:X-CUBE-AI/App/aiTestUtility.c **** {
 156              		.loc 1 226 1 is_stmt 1 view -0
 157              		.cfi_startproc
 158              		@ args = 0, pretend = 0, frame = 0
 159              		@ frame_needed = 0, uses_anonymous_args = 0
 160              		.loc 1 226 1 is_stmt 0 view .LVU29
 161 0000 08B5     		push	{r3, lr}
 162              	.LCFI4:
 163              		.cfi_def_cfa_offset 8
 164              		.cfi_offset 3, -8
 165              		.cfi_offset 14, -4
 227:X-CUBE-AI/App/aiTestUtility.c ****   HAL_StatusTypeDef status;
 166              		.loc 1 227 3 is_stmt 1 view .LVU30
 228:X-CUBE-AI/App/aiTestUtility.c **** 
 229:X-CUBE-AI/App/aiTestUtility.c ****   status = HAL_UART_Receive(&UartHandle, buff, count, HAL_MAX_DELAY);
 167              		.loc 1 229 3 view .LVU31
 168              		.loc 1 229 12 is_stmt 0 view .LVU32
 169 0002 4FF0FF33 		mov	r3, #-1
 170 0006 8AB2     		uxth	r2, r1
 171 0008 0146     		mov	r1, r0
ARM GAS  C:\Users\zacfi\AppData\Local\Temp\ccqnkoWq.s 			page 8


 172              	.LVL15:
 173              		.loc 1 229 12 view .LVU33
 174 000a 0348     		ldr	r0, .L17
 175              	.LVL16:
 176              		.loc 1 229 12 view .LVU34
 177 000c FFF7FEFF 		bl	HAL_UART_Receive
 178              	.LVL17:
 230:X-CUBE-AI/App/aiTestUtility.c **** 
 231:X-CUBE-AI/App/aiTestUtility.c ****   return (status == HAL_OK);
 179              		.loc 1 231 3 is_stmt 1 view .LVU35
 232:X-CUBE-AI/App/aiTestUtility.c **** }
 180              		.loc 1 232 1 is_stmt 0 view .LVU36
 181 0010 B0FA80F0 		clz	r0, r0
 182              	.LVL18:
 183              		.loc 1 232 1 view .LVU37
 184 0014 4009     		lsrs	r0, r0, #5
 185 0016 08BD     		pop	{r3, pc}
 186              	.L18:
 187              		.align	2
 188              	.L17:
 189 0018 00000000 		.word	huart2
 190              		.cfi_endproc
 191              	.LFE142:
 193              		.section	.text.ioRawDisableLLWrite,"ax",%progbits
 194              		.align	1
 195              		.global	ioRawDisableLLWrite
 196              		.syntax unified
 197              		.thumb
 198              		.thumb_func
 199              		.fpu fpv4-sp-d16
 201              	ioRawDisableLLWrite:
 202              	.LFB143:
 233:X-CUBE-AI/App/aiTestUtility.c **** 
 234:X-CUBE-AI/App/aiTestUtility.c **** void ioRawDisableLLWrite(void)
 235:X-CUBE-AI/App/aiTestUtility.c **** {
 203              		.loc 1 235 1 is_stmt 1 view -0
 204              		.cfi_startproc
 205              		@ args = 0, pretend = 0, frame = 0
 206              		@ frame_needed = 0, uses_anonymous_args = 0
 207              		@ link register save eliminated.
 236:X-CUBE-AI/App/aiTestUtility.c ****   _ioWriteAllowed = false;
 208              		.loc 1 236 3 view .LVU39
 209              		.loc 1 236 19 is_stmt 0 view .LVU40
 210 0000 014B     		ldr	r3, .L20
 211 0002 0022     		movs	r2, #0
 212 0004 1A70     		strb	r2, [r3]
 237:X-CUBE-AI/App/aiTestUtility.c **** }
 213              		.loc 1 237 1 view .LVU41
 214 0006 7047     		bx	lr
 215              	.L21:
 216              		.align	2
 217              	.L20:
 218 0008 00000000 		.word	.LANCHOR0
 219              		.cfi_endproc
 220              	.LFE143:
 222              		.section	.text._write,"ax",%progbits
 223              		.align	1
ARM GAS  C:\Users\zacfi\AppData\Local\Temp\ccqnkoWq.s 			page 9


 224              		.global	_write
 225              		.syntax unified
 226              		.thumb
 227              		.thumb_func
 228              		.fpu fpv4-sp-d16
 230              	_write:
 231              	.LVL19:
 232              	.LFB144:
 238:X-CUBE-AI/App/aiTestUtility.c **** 
 239:X-CUBE-AI/App/aiTestUtility.c **** #endif
 240:X-CUBE-AI/App/aiTestUtility.c **** 
 241:X-CUBE-AI/App/aiTestUtility.c **** #if defined(__GNUC__) && !defined(__ARMCC_VERSION)
 242:X-CUBE-AI/App/aiTestUtility.c **** 
 243:X-CUBE-AI/App/aiTestUtility.c **** int _write(int fd, const void *buff, int count);
 244:X-CUBE-AI/App/aiTestUtility.c **** 
 245:X-CUBE-AI/App/aiTestUtility.c **** int _write(int fd, const void *buff, int count)
 246:X-CUBE-AI/App/aiTestUtility.c **** {
 233              		.loc 1 246 1 is_stmt 1 view -0
 234              		.cfi_startproc
 235              		@ args = 0, pretend = 0, frame = 0
 236              		@ frame_needed = 0, uses_anonymous_args = 0
 237              		.loc 1 246 1 is_stmt 0 view .LVU43
 238 0000 10B5     		push	{r4, lr}
 239              	.LCFI5:
 240              		.cfi_def_cfa_offset 8
 241              		.cfi_offset 4, -8
 242              		.cfi_offset 14, -4
 247:X-CUBE-AI/App/aiTestUtility.c ****   HAL_StatusTypeDef status;
 243              		.loc 1 247 3 is_stmt 1 view .LVU44
 248:X-CUBE-AI/App/aiTestUtility.c **** 
 249:X-CUBE-AI/App/aiTestUtility.c ****   if ((count < 0) && (fd != STDOUT_FILENO) && (fd != STDERR_FILENO)) {
 244              		.loc 1 249 3 view .LVU45
 245              		.loc 1 249 6 is_stmt 0 view .LVU46
 246 0002 141E     		subs	r4, r2, #0
 247 0004 04DB     		blt	.L27
 248              	.L23:
 250:X-CUBE-AI/App/aiTestUtility.c ****     errno = EBADF;
 251:X-CUBE-AI/App/aiTestUtility.c ****     return -1;
 252:X-CUBE-AI/App/aiTestUtility.c ****   }
 253:X-CUBE-AI/App/aiTestUtility.c **** 
 254:X-CUBE-AI/App/aiTestUtility.c ****   if (_ioWriteAllowed)
 249              		.loc 1 254 3 is_stmt 1 view .LVU47
 250              		.loc 1 254 7 is_stmt 0 view .LVU48
 251 0006 0D4B     		ldr	r3, .L29
 252 0008 1B78     		ldrb	r3, [r3]	@ zero_extendqisi2
 253              		.loc 1 254 6 view .LVU49
 254 000a 63B9     		cbnz	r3, .L28
 255              	.LVL20:
 256              	.L24:
 255:X-CUBE-AI/App/aiTestUtility.c ****     status = HAL_UART_Transmit(&UartHandle, (uint8_t *)buff, count,
 256:X-CUBE-AI/App/aiTestUtility.c ****         HAL_MAX_DELAY);
 257:X-CUBE-AI/App/aiTestUtility.c ****   else
 258:X-CUBE-AI/App/aiTestUtility.c ****     status = HAL_OK;
 259:X-CUBE-AI/App/aiTestUtility.c **** 
 260:X-CUBE-AI/App/aiTestUtility.c ****   return (status == HAL_OK ? count : 0);
 261:X-CUBE-AI/App/aiTestUtility.c **** }
 257              		.loc 1 261 1 view .LVU50
ARM GAS  C:\Users\zacfi\AppData\Local\Temp\ccqnkoWq.s 			page 10


 258 000c 2046     		mov	r0, r4
 259 000e 10BD     		pop	{r4, pc}
 260              	.LVL21:
 261              	.L27:
 249:X-CUBE-AI/App/aiTestUtility.c ****     errno = EBADF;
 262              		.loc 1 249 19 discriminator 1 view .LVU51
 263 0010 0128     		cmp	r0, #1
 264 0012 F8D0     		beq	.L23
 249:X-CUBE-AI/App/aiTestUtility.c ****     errno = EBADF;
 265              		.loc 1 249 44 discriminator 2 view .LVU52
 266 0014 0228     		cmp	r0, #2
 267 0016 F6D0     		beq	.L23
 250:X-CUBE-AI/App/aiTestUtility.c ****     errno = EBADF;
 268              		.loc 1 250 5 is_stmt 1 view .LVU53
 269 0018 FFF7FEFF 		bl	__errno
 270              	.LVL22:
 250:X-CUBE-AI/App/aiTestUtility.c ****     errno = EBADF;
 271              		.loc 1 250 11 is_stmt 0 view .LVU54
 272 001c 0923     		movs	r3, #9
 273 001e 0360     		str	r3, [r0]
 251:X-CUBE-AI/App/aiTestUtility.c ****   }
 274              		.loc 1 251 5 is_stmt 1 view .LVU55
 251:X-CUBE-AI/App/aiTestUtility.c ****   }
 275              		.loc 1 251 12 is_stmt 0 view .LVU56
 276 0020 4FF0FF34 		mov	r4, #-1
 277              	.LVL23:
 251:X-CUBE-AI/App/aiTestUtility.c ****   }
 278              		.loc 1 251 12 view .LVU57
 279 0024 F2E7     		b	.L24
 280              	.LVL24:
 281              	.L28:
 255:X-CUBE-AI/App/aiTestUtility.c ****     status = HAL_UART_Transmit(&UartHandle, (uint8_t *)buff, count,
 282              		.loc 1 255 5 is_stmt 1 view .LVU58
 255:X-CUBE-AI/App/aiTestUtility.c ****     status = HAL_UART_Transmit(&UartHandle, (uint8_t *)buff, count,
 283              		.loc 1 255 14 is_stmt 0 view .LVU59
 284 0026 4FF0FF33 		mov	r3, #-1
 285 002a A2B2     		uxth	r2, r4
 286              	.LVL25:
 255:X-CUBE-AI/App/aiTestUtility.c ****     status = HAL_UART_Transmit(&UartHandle, (uint8_t *)buff, count,
 287              		.loc 1 255 14 view .LVU60
 288 002c 0448     		ldr	r0, .L29+4
 289              	.LVL26:
 255:X-CUBE-AI/App/aiTestUtility.c ****     status = HAL_UART_Transmit(&UartHandle, (uint8_t *)buff, count,
 290              		.loc 1 255 14 view .LVU61
 291 002e FFF7FEFF 		bl	HAL_UART_Transmit
 292              	.LVL27:
 260:X-CUBE-AI/App/aiTestUtility.c **** }
 293              		.loc 1 260 3 is_stmt 1 view .LVU62
 260:X-CUBE-AI/App/aiTestUtility.c **** }
 294              		.loc 1 260 36 is_stmt 0 view .LVU63
 295 0032 0028     		cmp	r0, #0
 296 0034 EAD0     		beq	.L24
 297 0036 0024     		movs	r4, #0
 298              	.LVL28:
 260:X-CUBE-AI/App/aiTestUtility.c **** }
 299              		.loc 1 260 36 view .LVU64
 300 0038 E8E7     		b	.L24
ARM GAS  C:\Users\zacfi\AppData\Local\Temp\ccqnkoWq.s 			page 11


 301              	.L30:
 302 003a 00BF     		.align	2
 303              	.L29:
 304 003c 00000000 		.word	.LANCHOR0
 305 0040 00000000 		.word	huart2
 306              		.cfi_endproc
 307              	.LFE144:
 309              		.section	.text.__wrap_malloc,"ax",%progbits
 310              		.align	1
 311              		.global	__wrap_malloc
 312              		.syntax unified
 313              		.thumb
 314              		.thumb_func
 315              		.fpu fpv4-sp-d16
 317              	__wrap_malloc:
 318              	.LVL29:
 319              	.LFB145:
 262:X-CUBE-AI/App/aiTestUtility.c **** 
 263:X-CUBE-AI/App/aiTestUtility.c **** #elif defined (__ICCARM__)
 264:X-CUBE-AI/App/aiTestUtility.c **** 
 265:X-CUBE-AI/App/aiTestUtility.c **** __ATTRIBUTES  size_t __write(int handle, const unsigned char *buffer,
 266:X-CUBE-AI/App/aiTestUtility.c ****     size_t size);
 267:X-CUBE-AI/App/aiTestUtility.c **** 
 268:X-CUBE-AI/App/aiTestUtility.c **** __ATTRIBUTES  size_t __write(int handle, const unsigned char *buffer,
 269:X-CUBE-AI/App/aiTestUtility.c ****     size_t size)
 270:X-CUBE-AI/App/aiTestUtility.c **** {
 271:X-CUBE-AI/App/aiTestUtility.c ****   HAL_StatusTypeDef status;
 272:X-CUBE-AI/App/aiTestUtility.c **** 
 273:X-CUBE-AI/App/aiTestUtility.c ****   /*
 274:X-CUBE-AI/App/aiTestUtility.c ****    * This means that we should flush internal buffers.  Since we
 275:X-CUBE-AI/App/aiTestUtility.c ****    * don't we just return.  (Remember, "handle" == -1 means that all
 276:X-CUBE-AI/App/aiTestUtility.c ****    * handles should be flushed.)
 277:X-CUBE-AI/App/aiTestUtility.c ****    */
 278:X-CUBE-AI/App/aiTestUtility.c ****   if (buffer == 0)
 279:X-CUBE-AI/App/aiTestUtility.c ****     return 0;
 280:X-CUBE-AI/App/aiTestUtility.c **** 
 281:X-CUBE-AI/App/aiTestUtility.c ****   /* This template only writes to "standard out" and "standard err",
 282:X-CUBE-AI/App/aiTestUtility.c ****    * for all other file handles it returns failure.
 283:X-CUBE-AI/App/aiTestUtility.c ****    */
 284:X-CUBE-AI/App/aiTestUtility.c ****   if ((handle != _LLIO_STDOUT) && (handle != _LLIO_STDERR))
 285:X-CUBE-AI/App/aiTestUtility.c ****     return _LLIO_ERROR;
 286:X-CUBE-AI/App/aiTestUtility.c **** 
 287:X-CUBE-AI/App/aiTestUtility.c ****   if (_ioWriteAllowed)
 288:X-CUBE-AI/App/aiTestUtility.c ****     status = HAL_UART_Transmit(&UartHandle, (uint8_t *)buffer, size,
 289:X-CUBE-AI/App/aiTestUtility.c ****         HAL_MAX_DELAY);
 290:X-CUBE-AI/App/aiTestUtility.c ****   else
 291:X-CUBE-AI/App/aiTestUtility.c ****     status = HAL_OK;
 292:X-CUBE-AI/App/aiTestUtility.c **** 
 293:X-CUBE-AI/App/aiTestUtility.c ****   return (status == HAL_OK ? size : _LLIO_ERROR);
 294:X-CUBE-AI/App/aiTestUtility.c **** }
 295:X-CUBE-AI/App/aiTestUtility.c **** 
 296:X-CUBE-AI/App/aiTestUtility.c **** #elif defined (__CC_ARM) || defined(__ARMCC_VERSION)
 297:X-CUBE-AI/App/aiTestUtility.c **** 
 298:X-CUBE-AI/App/aiTestUtility.c **** int fputc(int ch, FILE *f)
 299:X-CUBE-AI/App/aiTestUtility.c **** {
 300:X-CUBE-AI/App/aiTestUtility.c ****   if (_ioWriteAllowed)
 301:X-CUBE-AI/App/aiTestUtility.c ****     HAL_UART_Transmit(&UartHandle, (uint8_t *)&ch, 1,
ARM GAS  C:\Users\zacfi\AppData\Local\Temp\ccqnkoWq.s 			page 12


 302:X-CUBE-AI/App/aiTestUtility.c ****         HAL_MAX_DELAY);
 303:X-CUBE-AI/App/aiTestUtility.c **** 
 304:X-CUBE-AI/App/aiTestUtility.c ****   return ch;
 305:X-CUBE-AI/App/aiTestUtility.c **** }
 306:X-CUBE-AI/App/aiTestUtility.c **** 
 307:X-CUBE-AI/App/aiTestUtility.c **** #else
 308:X-CUBE-AI/App/aiTestUtility.c **** #error ARM MCU tool-chain is not supported.
 309:X-CUBE-AI/App/aiTestUtility.c **** #endif
 310:X-CUBE-AI/App/aiTestUtility.c **** 
 311:X-CUBE-AI/App/aiTestUtility.c **** 
 312:X-CUBE-AI/App/aiTestUtility.c **** /* -----------------------------------------------------------------------------
 313:X-CUBE-AI/App/aiTestUtility.c ****  * HEAP Monitor functions
 314:X-CUBE-AI/App/aiTestUtility.c ****  * -----------------------------------------------------------------------------
 315:X-CUBE-AI/App/aiTestUtility.c ****  */
 316:X-CUBE-AI/App/aiTestUtility.c **** 
 317:X-CUBE-AI/App/aiTestUtility.c **** 
 318:X-CUBE-AI/App/aiTestUtility.c **** #if defined(__GNUC__) && !defined(__ARMCC_VERSION)
 319:X-CUBE-AI/App/aiTestUtility.c **** 
 320:X-CUBE-AI/App/aiTestUtility.c **** #define MAGIC_MALLOC_NUMBER 0xefdcba98
 321:X-CUBE-AI/App/aiTestUtility.c **** 
 322:X-CUBE-AI/App/aiTestUtility.c **** struct io_malloc io_malloc;
 323:X-CUBE-AI/App/aiTestUtility.c **** 
 324:X-CUBE-AI/App/aiTestUtility.c **** void* __real_malloc(size_t bytes);
 325:X-CUBE-AI/App/aiTestUtility.c **** void __real_free(void *ptr);
 326:X-CUBE-AI/App/aiTestUtility.c **** 
 327:X-CUBE-AI/App/aiTestUtility.c **** void* __wrap_malloc(size_t bytes)
 328:X-CUBE-AI/App/aiTestUtility.c **** {
 320              		.loc 1 328 1 is_stmt 1 view -0
 321              		.cfi_startproc
 322              		@ args = 0, pretend = 0, frame = 0
 323              		@ frame_needed = 0, uses_anonymous_args = 0
 324              		.loc 1 328 1 is_stmt 0 view .LVU66
 325 0000 10B5     		push	{r4, lr}
 326              	.LCFI6:
 327              		.cfi_def_cfa_offset 8
 328              		.cfi_offset 4, -8
 329              		.cfi_offset 14, -4
 329:X-CUBE-AI/App/aiTestUtility.c ****   uint8_t *ptr;
 330              		.loc 1 329 3 is_stmt 1 view .LVU67
 330:X-CUBE-AI/App/aiTestUtility.c **** 
 331:X-CUBE-AI/App/aiTestUtility.c ****   io_malloc.cfg |= 1 << 1;
 331              		.loc 1 331 3 view .LVU68
 332              		.loc 1 331 17 is_stmt 0 view .LVU69
 333 0002 154A     		ldr	r2, .L36
 334 0004 1368     		ldr	r3, [r2]
 335 0006 43F00203 		orr	r3, r3, #2
 336 000a 1360     		str	r3, [r2]
 332:X-CUBE-AI/App/aiTestUtility.c **** 
 333:X-CUBE-AI/App/aiTestUtility.c ****   /* ensure alignment for magic number */
 334:X-CUBE-AI/App/aiTestUtility.c ****   bytes = (bytes + 3) & ~3;
 337              		.loc 1 334 3 is_stmt 1 view .LVU70
 338              		.loc 1 334 18 is_stmt 0 view .LVU71
 339 000c C41C     		adds	r4, r0, #3
 340              		.loc 1 334 9 view .LVU72
 341 000e 24F00304 		bic	r4, r4, #3
 342              	.LVL30:
 335:X-CUBE-AI/App/aiTestUtility.c **** 
ARM GAS  C:\Users\zacfi\AppData\Local\Temp\ccqnkoWq.s 			page 13


 336:X-CUBE-AI/App/aiTestUtility.c ****   /* add 2x32-bit for size and magic  number */
 337:X-CUBE-AI/App/aiTestUtility.c ****   ptr = (uint8_t*)__real_malloc(bytes + 8);
 343              		.loc 1 337 3 is_stmt 1 view .LVU73
 344              		.loc 1 337 19 is_stmt 0 view .LVU74
 345 0012 04F10800 		add	r0, r4, #8
 346 0016 FFF7FEFF 		bl	__real_malloc
 347              	.LVL31:
 338:X-CUBE-AI/App/aiTestUtility.c **** 
 339:X-CUBE-AI/App/aiTestUtility.c ****   /* remember size */
 340:X-CUBE-AI/App/aiTestUtility.c ****   if (ptr) {
 348              		.loc 1 340 3 is_stmt 1 view .LVU75
 349              		.loc 1 340 6 is_stmt 0 view .LVU76
 350 001a 0346     		mov	r3, r0
 351 001c 18B1     		cbz	r0, .L32
 341:X-CUBE-AI/App/aiTestUtility.c ****     *((uint32_t*)ptr) = bytes;
 352              		.loc 1 341 5 is_stmt 1 view .LVU77
 353              		.loc 1 341 23 is_stmt 0 view .LVU78
 354 001e 0460     		str	r4, [r0]
 342:X-CUBE-AI/App/aiTestUtility.c ****     *((uint32_t*)(ptr + 4 + bytes)) = MAGIC_MALLOC_NUMBER;
 355              		.loc 1 342 5 is_stmt 1 view .LVU79
 356              		.loc 1 342 27 is_stmt 0 view .LVU80
 357 0020 221D     		adds	r2, r4, #4
 358              		.loc 1 342 37 view .LVU81
 359 0022 0E49     		ldr	r1, .L36+4
 360 0024 8150     		str	r1, [r0, r2]
 361              	.L32:
 343:X-CUBE-AI/App/aiTestUtility.c ****   }
 344:X-CUBE-AI/App/aiTestUtility.c **** 
 345:X-CUBE-AI/App/aiTestUtility.c ****   if ((ptr) && (io_malloc.cfg & 1UL)) {
 362              		.loc 1 345 3 is_stmt 1 view .LVU82
 363              		.loc 1 345 6 is_stmt 0 view .LVU83
 364 0026 9BB1     		cbz	r3, .L33
 365              		.loc 1 345 26 discriminator 1 view .LVU84
 366 0028 0B4A     		ldr	r2, .L36
 367 002a 1268     		ldr	r2, [r2]
 368              		.loc 1 345 13 discriminator 1 view .LVU85
 369 002c 12F0010F 		tst	r2, #1
 370 0030 0ED0     		beq	.L33
 346:X-CUBE-AI/App/aiTestUtility.c ****     io_malloc.alloc_req++;
 371              		.loc 1 346 5 is_stmt 1 view .LVU86
 372              		.loc 1 346 14 is_stmt 0 view .LVU87
 373 0032 094A     		ldr	r2, .L36
 374 0034 D168     		ldr	r1, [r2, #12]
 375              		.loc 1 346 24 view .LVU88
 376 0036 0131     		adds	r1, r1, #1
 377 0038 D160     		str	r1, [r2, #12]
 347:X-CUBE-AI/App/aiTestUtility.c ****     io_malloc.alloc += bytes;
 378              		.loc 1 347 5 is_stmt 1 view .LVU89
 379              		.loc 1 347 21 is_stmt 0 view .LVU90
 380 003a 5168     		ldr	r1, [r2, #4]
 381 003c 2144     		add	r1, r1, r4
 382 003e 5160     		str	r1, [r2, #4]
 348:X-CUBE-AI/App/aiTestUtility.c **** 
 349:X-CUBE-AI/App/aiTestUtility.c ****     io_malloc.used += bytes;
 383              		.loc 1 349 5 is_stmt 1 view .LVU91
 384              		.loc 1 349 20 is_stmt 0 view .LVU92
 385 0040 9069     		ldr	r0, [r2, #24]
ARM GAS  C:\Users\zacfi\AppData\Local\Temp\ccqnkoWq.s 			page 14


 386              	.LVL32:
 387              		.loc 1 349 20 view .LVU93
 388 0042 0444     		add	r4, r4, r0
 389              	.LVL33:
 390              		.loc 1 349 20 view .LVU94
 391 0044 9461     		str	r4, [r2, #24]
 350:X-CUBE-AI/App/aiTestUtility.c **** 
 351:X-CUBE-AI/App/aiTestUtility.c ****     if (io_malloc.used > io_malloc.max) {
 392              		.loc 1 351 5 is_stmt 1 view .LVU95
 393              		.loc 1 351 35 is_stmt 0 view .LVU96
 394 0046 5269     		ldr	r2, [r2, #20]
 395              		.loc 1 351 8 view .LVU97
 396 0048 9442     		cmp	r4, r2
 397 004a 01D9     		bls	.L33
 352:X-CUBE-AI/App/aiTestUtility.c ****       io_malloc.max = io_malloc.used;
 398              		.loc 1 352 7 is_stmt 1 view .LVU98
 399              		.loc 1 352 21 is_stmt 0 view .LVU99
 400 004c 024A     		ldr	r2, .L36
 401 004e 5461     		str	r4, [r2, #20]
 402              	.L33:
 353:X-CUBE-AI/App/aiTestUtility.c ****     }
 354:X-CUBE-AI/App/aiTestUtility.c **** 
 355:X-CUBE-AI/App/aiTestUtility.c **** #if _IO_MALLOC_TRACK_MODE == 1
 356:X-CUBE-AI/App/aiTestUtility.c ****     io_malloc.a_ptr[io_malloc.a_idx] = (ptr + 4);
 357:X-CUBE-AI/App/aiTestUtility.c ****     io_malloc.a_s[io_malloc.a_idx] = bytes;
 358:X-CUBE-AI/App/aiTestUtility.c ****     io_malloc.a_idx++;
 359:X-CUBE-AI/App/aiTestUtility.c **** 
 360:X-CUBE-AI/App/aiTestUtility.c ****     if (io_malloc.a_idx >= _IO_MALLOC_TRACK_MODE)
 361:X-CUBE-AI/App/aiTestUtility.c ****       io_malloc.a_idx = 0;
 362:X-CUBE-AI/App/aiTestUtility.c **** #endif
 363:X-CUBE-AI/App/aiTestUtility.c ****   }
 364:X-CUBE-AI/App/aiTestUtility.c ****   return ptr?(ptr + 4):NULL;
 403              		.loc 1 364 3 is_stmt 1 view .LVU100
 404              		.loc 1 364 23 is_stmt 0 view .LVU101
 405 0050 03B1     		cbz	r3, .L31
 406              		.loc 1 364 23 discriminator 1 view .LVU102
 407 0052 0433     		adds	r3, r3, #4
 408              	.LVL34:
 409              	.L31:
 365:X-CUBE-AI/App/aiTestUtility.c **** }
 410              		.loc 1 365 1 view .LVU103
 411 0054 1846     		mov	r0, r3
 412 0056 10BD     		pop	{r4, pc}
 413              	.L37:
 414              		.align	2
 415              	.L36:
 416 0058 00000000 		.word	.LANCHOR1
 417 005c 98BADCEF 		.word	-270746984
 418              		.cfi_endproc
 419              	.LFE145:
 421              		.section	.text.__wrap_free,"ax",%progbits
 422              		.align	1
 423              		.global	__wrap_free
 424              		.syntax unified
 425              		.thumb
 426              		.thumb_func
 427              		.fpu fpv4-sp-d16
ARM GAS  C:\Users\zacfi\AppData\Local\Temp\ccqnkoWq.s 			page 15


 429              	__wrap_free:
 430              	.LVL35:
 431              	.LFB146:
 366:X-CUBE-AI/App/aiTestUtility.c **** 
 367:X-CUBE-AI/App/aiTestUtility.c **** void __wrap_free(void *ptr)
 368:X-CUBE-AI/App/aiTestUtility.c **** {
 432              		.loc 1 368 1 is_stmt 1 view -0
 433              		.cfi_startproc
 434              		@ args = 0, pretend = 0, frame = 0
 435              		@ frame_needed = 0, uses_anonymous_args = 0
 369:X-CUBE-AI/App/aiTestUtility.c ****   uint8_t* p;
 436              		.loc 1 369 3 view .LVU105
 370:X-CUBE-AI/App/aiTestUtility.c ****   uint32_t bytes;
 437              		.loc 1 370 3 view .LVU106
 371:X-CUBE-AI/App/aiTestUtility.c **** 
 372:X-CUBE-AI/App/aiTestUtility.c ****   io_malloc.cfg |= 1 << 2;
 438              		.loc 1 372 3 view .LVU107
 439              		.loc 1 372 17 is_stmt 0 view .LVU108
 440 0000 124A     		ldr	r2, .L47
 441 0002 1368     		ldr	r3, [r2]
 442 0004 43F00403 		orr	r3, r3, #4
 443 0008 1360     		str	r3, [r2]
 373:X-CUBE-AI/App/aiTestUtility.c **** 
 374:X-CUBE-AI/App/aiTestUtility.c ****   if (!ptr)
 444              		.loc 1 374 3 is_stmt 1 view .LVU109
 445              		.loc 1 374 6 is_stmt 0 view .LVU110
 446 000a E8B1     		cbz	r0, .L43
 368:X-CUBE-AI/App/aiTestUtility.c ****   uint8_t* p;
 447              		.loc 1 368 1 view .LVU111
 448 000c 10B5     		push	{r4, lr}
 449              	.LCFI7:
 450              		.cfi_def_cfa_offset 8
 451              		.cfi_offset 4, -8
 452              		.cfi_offset 14, -4
 453 000e 0346     		mov	r3, r0
 375:X-CUBE-AI/App/aiTestUtility.c ****     return;
 376:X-CUBE-AI/App/aiTestUtility.c **** 
 377:X-CUBE-AI/App/aiTestUtility.c ****   p = (uint8_t*)ptr - 4;
 454              		.loc 1 377 3 is_stmt 1 view .LVU112
 455              		.loc 1 377 5 is_stmt 0 view .LVU113
 456 0010 0438     		subs	r0, r0, #4
 457              	.LVL36:
 378:X-CUBE-AI/App/aiTestUtility.c ****   bytes = *((uint32_t*)p);
 458              		.loc 1 378 3 is_stmt 1 view .LVU114
 459              		.loc 1 378 9 is_stmt 0 view .LVU115
 460 0012 53F8042C 		ldr	r2, [r3, #-4]
 461              	.LVL37:
 379:X-CUBE-AI/App/aiTestUtility.c **** 
 380:X-CUBE-AI/App/aiTestUtility.c ****   if (*((uint32_t*)(p + 4 + bytes)) == MAGIC_MALLOC_NUMBER) {
 462              		.loc 1 380 3 is_stmt 1 view .LVU116
 463              		.loc 1 380 6 is_stmt 0 view .LVU117
 464 0016 0E49     		ldr	r1, .L47+4
 465 0018 9C58     		ldr	r4, [r3, r2]
 466 001a 8C42     		cmp	r4, r1
 467 001c 11D0     		beq	.L46
 468              	.L40:
 381:X-CUBE-AI/App/aiTestUtility.c ****     *((uint32_t*)(p + 4 + bytes)) = 0;
ARM GAS  C:\Users\zacfi\AppData\Local\Temp\ccqnkoWq.s 			page 16


 382:X-CUBE-AI/App/aiTestUtility.c ****   }
 383:X-CUBE-AI/App/aiTestUtility.c **** 
 384:X-CUBE-AI/App/aiTestUtility.c ****   if (io_malloc.cfg & 1UL) {
 469              		.loc 1 384 3 is_stmt 1 view .LVU118
 470              		.loc 1 384 16 is_stmt 0 view .LVU119
 471 001e 0B4B     		ldr	r3, .L47
 472              	.LVL38:
 473              		.loc 1 384 16 view .LVU120
 474 0020 1B68     		ldr	r3, [r3]
 475              		.loc 1 384 6 view .LVU121
 476 0022 13F0010F 		tst	r3, #1
 477 0026 09D0     		beq	.L41
 385:X-CUBE-AI/App/aiTestUtility.c ****     io_malloc.free_req++;
 478              		.loc 1 385 5 is_stmt 1 view .LVU122
 479              		.loc 1 385 14 is_stmt 0 view .LVU123
 480 0028 084B     		ldr	r3, .L47
 481 002a 1969     		ldr	r1, [r3, #16]
 482              		.loc 1 385 23 view .LVU124
 483 002c 0131     		adds	r1, r1, #1
 484 002e 1961     		str	r1, [r3, #16]
 386:X-CUBE-AI/App/aiTestUtility.c ****     io_malloc.free += bytes;
 485              		.loc 1 386 5 is_stmt 1 view .LVU125
 486              		.loc 1 386 20 is_stmt 0 view .LVU126
 487 0030 9968     		ldr	r1, [r3, #8]
 488 0032 1144     		add	r1, r1, r2
 489 0034 9960     		str	r1, [r3, #8]
 387:X-CUBE-AI/App/aiTestUtility.c ****     io_malloc.used -= bytes;
 490              		.loc 1 387 5 is_stmt 1 view .LVU127
 491              		.loc 1 387 20 is_stmt 0 view .LVU128
 492 0036 9969     		ldr	r1, [r3, #24]
 493 0038 8A1A     		subs	r2, r1, r2
 494              	.LVL39:
 495              		.loc 1 387 20 view .LVU129
 496 003a 9A61     		str	r2, [r3, #24]
 497              	.L41:
 388:X-CUBE-AI/App/aiTestUtility.c **** 
 389:X-CUBE-AI/App/aiTestUtility.c **** #if _IO_MALLOC_TRACK_MODE == 1
 390:X-CUBE-AI/App/aiTestUtility.c ****     io_malloc.f_ptr[io_malloc.f_idx] = ptr;
 391:X-CUBE-AI/App/aiTestUtility.c ****     io_malloc.f_s[io_malloc.f_idx] = bytes;
 392:X-CUBE-AI/App/aiTestUtility.c ****     io_malloc.f_idx++;
 393:X-CUBE-AI/App/aiTestUtility.c **** 
 394:X-CUBE-AI/App/aiTestUtility.c ****     if (io_malloc.f_idx >= _IO_MALLOC_TRACK_MODE)
 395:X-CUBE-AI/App/aiTestUtility.c ****       io_malloc.f_idx = 0;
 396:X-CUBE-AI/App/aiTestUtility.c **** #endif
 397:X-CUBE-AI/App/aiTestUtility.c ****   }
 398:X-CUBE-AI/App/aiTestUtility.c ****   __real_free(p);
 498              		.loc 1 398 3 is_stmt 1 view .LVU130
 499 003c FFF7FEFF 		bl	__real_free
 500              	.LVL40:
 399:X-CUBE-AI/App/aiTestUtility.c **** }
 501              		.loc 1 399 1 is_stmt 0 view .LVU131
 502 0040 10BD     		pop	{r4, pc}
 503              	.LVL41:
 504              	.L46:
 381:X-CUBE-AI/App/aiTestUtility.c ****   }
 505              		.loc 1 381 5 is_stmt 1 view .LVU132
 381:X-CUBE-AI/App/aiTestUtility.c ****   }
ARM GAS  C:\Users\zacfi\AppData\Local\Temp\ccqnkoWq.s 			page 17


 506              		.loc 1 381 35 is_stmt 0 view .LVU133
 507 0042 0021     		movs	r1, #0
 508 0044 9950     		str	r1, [r3, r2]
 509 0046 EAE7     		b	.L40
 510              	.LVL42:
 511              	.L43:
 512              	.LCFI8:
 513              		.cfi_def_cfa_offset 0
 514              		.cfi_restore 4
 515              		.cfi_restore 14
 381:X-CUBE-AI/App/aiTestUtility.c ****   }
 516              		.loc 1 381 35 view .LVU134
 517 0048 7047     		bx	lr
 518              	.L48:
 519 004a 00BF     		.align	2
 520              	.L47:
 521 004c 00000000 		.word	.LANCHOR1
 522 0050 98BADCEF 		.word	-270746984
 523              		.cfi_endproc
 524              	.LFE146:
 526              		.section	.rodata.stackMonInit.str1.4,"aMS",%progbits,1
 527              		.align	2
 528              	.LC0:
 529 0000 453A204D 		.ascii	"E: MSP is not the active stack (stack monitoring is"
 529      53502069 
 529      73206E6F 
 529      74207468 
 529      65206163 
 530 0033 20646973 		.ascii	" disabled)\015\000"
 530      61626C65 
 530      64290D00 
 531 003f 00       		.align	2
 532              	.LC1:
 533 0040 453A2021 		.ascii	"E: !stack overflow detected %d > %d\015\012\000"
 533      73746163 
 533      6B206F76 
 533      6572666C 
 533      6F772064 
 534              		.section	.text.stackMonInit,"ax",%progbits
 535              		.align	1
 536              		.global	stackMonInit
 537              		.syntax unified
 538              		.thumb
 539              		.thumb_func
 540              		.fpu fpv4-sp-d16
 542              	stackMonInit:
 543              	.LVL43:
 544              	.LFB147:
 400:X-CUBE-AI/App/aiTestUtility.c **** 
 401:X-CUBE-AI/App/aiTestUtility.c **** #endif
 402:X-CUBE-AI/App/aiTestUtility.c **** 
 403:X-CUBE-AI/App/aiTestUtility.c **** 
 404:X-CUBE-AI/App/aiTestUtility.c **** /* -----------------------------------------------------------------------------
 405:X-CUBE-AI/App/aiTestUtility.c ****  * STACK Monitor functions
 406:X-CUBE-AI/App/aiTestUtility.c ****  * -----------------------------------------------------------------------------
 407:X-CUBE-AI/App/aiTestUtility.c ****  */
 408:X-CUBE-AI/App/aiTestUtility.c **** 
ARM GAS  C:\Users\zacfi\AppData\Local\Temp\ccqnkoWq.s 			page 18


 409:X-CUBE-AI/App/aiTestUtility.c **** #if defined(__GNUC__) && !defined(__ARMCC_VERSION)
 410:X-CUBE-AI/App/aiTestUtility.c **** extern uint32_t _estack[];
 411:X-CUBE-AI/App/aiTestUtility.c **** #elif defined (__ICCARM__)
 412:X-CUBE-AI/App/aiTestUtility.c **** extern int CSTACK$$Limit;
 413:X-CUBE-AI/App/aiTestUtility.c **** extern int CSTACK$$Base;
 414:X-CUBE-AI/App/aiTestUtility.c **** #endif
 415:X-CUBE-AI/App/aiTestUtility.c **** 
 416:X-CUBE-AI/App/aiTestUtility.c **** struct io_stack io_stack;
 417:X-CUBE-AI/App/aiTestUtility.c **** 
 418:X-CUBE-AI/App/aiTestUtility.c **** void stackMonInit(uint32_t ctrl, uint32_t cstack, uint32_t msize)
 419:X-CUBE-AI/App/aiTestUtility.c **** {
 545              		.loc 1 419 1 is_stmt 1 view -0
 546              		.cfi_startproc
 547              		@ args = 0, pretend = 0, frame = 0
 548              		@ frame_needed = 0, uses_anonymous_args = 0
 549              		.loc 1 419 1 is_stmt 0 view .LVU136
 550 0000 F8B5     		push	{r3, r4, r5, r6, r7, lr}
 551              	.LCFI9:
 552              		.cfi_def_cfa_offset 24
 553              		.cfi_offset 3, -24
 554              		.cfi_offset 4, -20
 555              		.cfi_offset 5, -16
 556              		.cfi_offset 6, -12
 557              		.cfi_offset 7, -8
 558              		.cfi_offset 14, -4
 559 0002 0546     		mov	r5, r0
 560 0004 0F46     		mov	r7, r1
 561 0006 1646     		mov	r6, r2
 420:X-CUBE-AI/App/aiTestUtility.c ****   memset(&io_stack, 0, sizeof(struct io_stack));
 562              		.loc 1 420 3 is_stmt 1 view .LVU137
 563 0008 154C     		ldr	r4, .L56
 564 000a 2022     		movs	r2, #32
 565              	.LVL44:
 566              		.loc 1 420 3 is_stmt 0 view .LVU138
 567 000c 0021     		movs	r1, #0
 568              	.LVL45:
 569              		.loc 1 420 3 view .LVU139
 570 000e 2046     		mov	r0, r4
 571              	.LVL46:
 572              		.loc 1 420 3 view .LVU140
 573 0010 FFF7FEFF 		bl	memset
 574              	.LVL47:
 421:X-CUBE-AI/App/aiTestUtility.c **** 
 422:X-CUBE-AI/App/aiTestUtility.c ****   /* Reading ARM Core registers */
 423:X-CUBE-AI/App/aiTestUtility.c ****   io_stack.ctrl = ctrl;
 575              		.loc 1 423 3 is_stmt 1 view .LVU141
 576              		.loc 1 423 17 is_stmt 0 view .LVU142
 577 0014 2560     		str	r5, [r4]
 424:X-CUBE-AI/App/aiTestUtility.c ****   io_stack.cstack = cstack;
 578              		.loc 1 424 3 is_stmt 1 view .LVU143
 579              		.loc 1 424 19 is_stmt 0 view .LVU144
 580 0016 A761     		str	r7, [r4, #24]
 425:X-CUBE-AI/App/aiTestUtility.c **** 
 426:X-CUBE-AI/App/aiTestUtility.c **** #if defined(__GNUC__) && !defined(__ARMCC_VERSION)
 427:X-CUBE-AI/App/aiTestUtility.c ****   io_stack.estack = (uint32_t)_estack;
 581              		.loc 1 427 3 is_stmt 1 view .LVU145
 582              		.loc 1 427 21 is_stmt 0 view .LVU146
ARM GAS  C:\Users\zacfi\AppData\Local\Temp\ccqnkoWq.s 			page 19


 583 0018 124B     		ldr	r3, .L56+4
 584              		.loc 1 427 19 view .LVU147
 585 001a 2361     		str	r3, [r4, #16]
 428:X-CUBE-AI/App/aiTestUtility.c ****   io_stack.bstack = io_stack.estack - msize;
 586              		.loc 1 428 3 is_stmt 1 view .LVU148
 587              		.loc 1 428 37 is_stmt 0 view .LVU149
 588 001c 9B1B     		subs	r3, r3, r6
 589              		.loc 1 428 19 view .LVU150
 590 001e E361     		str	r3, [r4, #28]
 429:X-CUBE-AI/App/aiTestUtility.c ****   io_stack.mstack_size = msize;
 591              		.loc 1 429 3 is_stmt 1 view .LVU151
 592              		.loc 1 429 24 is_stmt 0 view .LVU152
 593 0020 6661     		str	r6, [r4, #20]
 430:X-CUBE-AI/App/aiTestUtility.c **** #elif defined (__ICCARM__)
 431:X-CUBE-AI/App/aiTestUtility.c ****   io_stack.estack = (uint32_t)&CSTACK$$Limit;
 432:X-CUBE-AI/App/aiTestUtility.c ****   io_stack.bstack = (uint32_t)&CSTACK$$Base;
 433:X-CUBE-AI/App/aiTestUtility.c ****   io_stack.mstack_size = (uint32_t)&CSTACK$$Limit - (uint32_t)&CSTACK$$Base;
 434:X-CUBE-AI/App/aiTestUtility.c **** #endif
 435:X-CUBE-AI/App/aiTestUtility.c **** 
 436:X-CUBE-AI/App/aiTestUtility.c ****   /* Check that MSP is the active stack */
 437:X-CUBE-AI/App/aiTestUtility.c ****   if (io_stack.ctrl & CONTROL_SPSEL_Msk) {
 594              		.loc 1 437 3 is_stmt 1 view .LVU153
 595              		.loc 1 437 6 is_stmt 0 view .LVU154
 596 0022 15F0020F 		tst	r5, #2
 597 0026 0ED1     		bne	.L54
 438:X-CUBE-AI/App/aiTestUtility.c ****     printf("E: MSP is not the active stack (stack monitoring is disabled)\r\n");
 439:X-CUBE-AI/App/aiTestUtility.c ****     io_stack.stack_mon = false;
 440:X-CUBE-AI/App/aiTestUtility.c ****   } else
 441:X-CUBE-AI/App/aiTestUtility.c ****     io_stack.stack_mon = true;
 598              		.loc 1 441 5 is_stmt 1 view .LVU155
 599              		.loc 1 441 24 is_stmt 0 view .LVU156
 600 0028 0D4B     		ldr	r3, .L56
 601 002a 0122     		movs	r2, #1
 602 002c 1A71     		strb	r2, [r3, #4]
 603              	.L51:
 442:X-CUBE-AI/App/aiTestUtility.c **** 
 443:X-CUBE-AI/App/aiTestUtility.c ****   /* Calculating used stack before test */
 444:X-CUBE-AI/App/aiTestUtility.c ****   io_stack.ustack_size = io_stack.estack - io_stack.cstack;
 604              		.loc 1 444 3 is_stmt 1 view .LVU157
 605              		.loc 1 444 34 is_stmt 0 view .LVU158
 606 002e 0C4B     		ldr	r3, .L56
 607 0030 1969     		ldr	r1, [r3, #16]
 608              		.loc 1 444 52 view .LVU159
 609 0032 9A69     		ldr	r2, [r3, #24]
 610              		.loc 1 444 42 view .LVU160
 611 0034 891A     		subs	r1, r1, r2
 612              		.loc 1 444 24 view .LVU161
 613 0036 D960     		str	r1, [r3, #12]
 445:X-CUBE-AI/App/aiTestUtility.c **** 
 446:X-CUBE-AI/App/aiTestUtility.c ****   if ((io_stack.stack_mon) && (io_stack.ustack_size > io_stack.mstack_size)) {
 614              		.loc 1 446 3 is_stmt 1 view .LVU162
 615              		.loc 1 446 16 is_stmt 0 view .LVU163
 616 0038 1B79     		ldrb	r3, [r3, #4]	@ zero_extendqisi2
 617              		.loc 1 446 6 view .LVU164
 618 003a 1BB1     		cbz	r3, .L49
 619              		.loc 1 446 63 discriminator 1 view .LVU165
 620 003c 084B     		ldr	r3, .L56
ARM GAS  C:\Users\zacfi\AppData\Local\Temp\ccqnkoWq.s 			page 20


 621 003e 5A69     		ldr	r2, [r3, #20]
 622              		.loc 1 446 28 discriminator 1 view .LVU166
 623 0040 9142     		cmp	r1, r2
 624 0042 06D8     		bhi	.L55
 625              	.L49:
 447:X-CUBE-AI/App/aiTestUtility.c ****     printf("E: !stack overflow detected %d > %d\r\n", (int)io_stack.ustack_size,
 448:X-CUBE-AI/App/aiTestUtility.c ****         (int)io_stack.mstack_size);
 449:X-CUBE-AI/App/aiTestUtility.c ****     io_stack.stack_mon = false;
 450:X-CUBE-AI/App/aiTestUtility.c ****   }
 451:X-CUBE-AI/App/aiTestUtility.c **** }
 626              		.loc 1 451 1 view .LVU167
 627 0044 F8BD     		pop	{r3, r4, r5, r6, r7, pc}
 628              	.LVL48:
 629              	.L54:
 438:X-CUBE-AI/App/aiTestUtility.c ****     io_stack.stack_mon = false;
 630              		.loc 1 438 5 is_stmt 1 view .LVU168
 631 0046 0848     		ldr	r0, .L56+8
 632 0048 FFF7FEFF 		bl	puts
 633              	.LVL49:
 439:X-CUBE-AI/App/aiTestUtility.c ****   } else
 634              		.loc 1 439 5 view .LVU169
 439:X-CUBE-AI/App/aiTestUtility.c ****   } else
 635              		.loc 1 439 24 is_stmt 0 view .LVU170
 636 004c 0022     		movs	r2, #0
 637 004e 2271     		strb	r2, [r4, #4]
 638 0050 EDE7     		b	.L51
 639              	.L55:
 447:X-CUBE-AI/App/aiTestUtility.c ****     printf("E: !stack overflow detected %d > %d\r\n", (int)io_stack.ustack_size,
 640              		.loc 1 447 5 is_stmt 1 view .LVU171
 641 0052 0648     		ldr	r0, .L56+12
 642 0054 FFF7FEFF 		bl	printf
 643              	.LVL50:
 449:X-CUBE-AI/App/aiTestUtility.c ****   }
 644              		.loc 1 449 5 view .LVU172
 449:X-CUBE-AI/App/aiTestUtility.c ****   }
 645              		.loc 1 449 24 is_stmt 0 view .LVU173
 646 0058 014B     		ldr	r3, .L56
 647 005a 0022     		movs	r2, #0
 648 005c 1A71     		strb	r2, [r3, #4]
 649              		.loc 1 451 1 view .LVU174
 650 005e F1E7     		b	.L49
 651              	.L57:
 652              		.align	2
 653              	.L56:
 654 0060 00000000 		.word	.LANCHOR2
 655 0064 00000000 		.word	_estack
 656 0068 00000000 		.word	.LC0
 657 006c 40000000 		.word	.LC1
 658              		.cfi_endproc
 659              	.LFE147:
 661              		.section	.text.dwtIpInit,"ax",%progbits
 662              		.align	1
 663              		.global	dwtIpInit
 664              		.syntax unified
 665              		.thumb
 666              		.thumb_func
 667              		.fpu fpv4-sp-d16
ARM GAS  C:\Users\zacfi\AppData\Local\Temp\ccqnkoWq.s 			page 21


 669              	dwtIpInit:
 670              	.LFB149:
 452:X-CUBE-AI/App/aiTestUtility.c **** 
 453:X-CUBE-AI/App/aiTestUtility.c **** /* -----------------------------------------------------------------------------
 454:X-CUBE-AI/App/aiTestUtility.c ****  * HW-setting functions
 455:X-CUBE-AI/App/aiTestUtility.c ****  * -----------------------------------------------------------------------------
 456:X-CUBE-AI/App/aiTestUtility.c ****  */
 457:X-CUBE-AI/App/aiTestUtility.c **** 
 458:X-CUBE-AI/App/aiTestUtility.c **** struct cyclesCount cyclesCount;
 459:X-CUBE-AI/App/aiTestUtility.c **** 
 460:X-CUBE-AI/App/aiTestUtility.c **** __STATIC_INLINE void crcIpInit(void)
 461:X-CUBE-AI/App/aiTestUtility.c **** {
 462:X-CUBE-AI/App/aiTestUtility.c **** #if defined(STM32H7)
 463:X-CUBE-AI/App/aiTestUtility.c ****   /* By default the CRC IP clock is enabled */
 464:X-CUBE-AI/App/aiTestUtility.c ****   __HAL_RCC_CRC_CLK_ENABLE();
 465:X-CUBE-AI/App/aiTestUtility.c **** #elif defined(STM32MP1)
 466:X-CUBE-AI/App/aiTestUtility.c ****   __HAL_RCC_CRC2_CLK_ENABLE();
 467:X-CUBE-AI/App/aiTestUtility.c **** #else
 468:X-CUBE-AI/App/aiTestUtility.c ****   if (!__HAL_RCC_CRC_IS_CLK_ENABLED())
 469:X-CUBE-AI/App/aiTestUtility.c ****     printf("W: CRC IP clock is NOT enabled\r\n");
 470:X-CUBE-AI/App/aiTestUtility.c **** 
 471:X-CUBE-AI/App/aiTestUtility.c ****   /* By default the CRC IP clock is enabled */
 472:X-CUBE-AI/App/aiTestUtility.c ****   __HAL_RCC_CRC_CLK_ENABLE();
 473:X-CUBE-AI/App/aiTestUtility.c **** #endif
 474:X-CUBE-AI/App/aiTestUtility.c **** }
 475:X-CUBE-AI/App/aiTestUtility.c **** 
 476:X-CUBE-AI/App/aiTestUtility.c **** void dwtIpInit(void)
 477:X-CUBE-AI/App/aiTestUtility.c **** {
 671              		.loc 1 477 1 is_stmt 1 view -0
 672              		.cfi_startproc
 673              		@ args = 0, pretend = 0, frame = 0
 674              		@ frame_needed = 0, uses_anonymous_args = 0
 675              		@ link register save eliminated.
 478:X-CUBE-AI/App/aiTestUtility.c ****   CoreDebug->DEMCR |= CoreDebug_DEMCR_TRCENA_Msk;
 676              		.loc 1 478 3 view .LVU176
 677              		.loc 1 478 20 is_stmt 0 view .LVU177
 678 0000 084A     		ldr	r2, .L59
 679 0002 D2F8FC30 		ldr	r3, [r2, #252]
 680 0006 43F08073 		orr	r3, r3, #16777216
 681 000a C2F8FC30 		str	r3, [r2, #252]
 479:X-CUBE-AI/App/aiTestUtility.c **** 
 480:X-CUBE-AI/App/aiTestUtility.c **** #ifdef STM32F7
 481:X-CUBE-AI/App/aiTestUtility.c ****   DWT->LAR = 0xC5ACCE55;
 482:X-CUBE-AI/App/aiTestUtility.c **** #endif
 483:X-CUBE-AI/App/aiTestUtility.c **** 
 484:X-CUBE-AI/App/aiTestUtility.c ****   DWT->CYCCNT = 0;
 682              		.loc 1 484 3 is_stmt 1 view .LVU178
 683              		.loc 1 484 15 is_stmt 0 view .LVU179
 684 000e A2F55D42 		sub	r2, r2, #56576
 685 0012 0023     		movs	r3, #0
 686 0014 5360     		str	r3, [r2, #4]
 485:X-CUBE-AI/App/aiTestUtility.c ****   DWT->CTRL |= DWT_CTRL_CYCCNTENA_Msk | DWT_CTRL_CPIEVTENA_Msk;
 687              		.loc 1 485 3 is_stmt 1 view .LVU180
 688              		.loc 1 485 13 is_stmt 0 view .LVU181
 689 0016 1368     		ldr	r3, [r2]
 690 0018 43F40033 		orr	r3, r3, #131072
 691 001c 43F00103 		orr	r3, r3, #1
ARM GAS  C:\Users\zacfi\AppData\Local\Temp\ccqnkoWq.s 			page 22


 692 0020 1360     		str	r3, [r2]
 486:X-CUBE-AI/App/aiTestUtility.c **** 
 487:X-CUBE-AI/App/aiTestUtility.c **** }
 693              		.loc 1 487 1 view .LVU182
 694 0022 7047     		bx	lr
 695              	.L60:
 696              		.align	2
 697              	.L59:
 698 0024 00ED00E0 		.word	-536810240
 699              		.cfi_endproc
 700              	.LFE149:
 702              		.section	.text.systemCoreClock,"ax",%progbits
 703              		.align	1
 704              		.global	systemCoreClock
 705              		.syntax unified
 706              		.thumb
 707              		.thumb_func
 708              		.fpu fpv4-sp-d16
 710              	systemCoreClock:
 711              	.LFB150:
 488:X-CUBE-AI/App/aiTestUtility.c **** 
 489:X-CUBE-AI/App/aiTestUtility.c **** uint32_t systemCoreClock(void)
 490:X-CUBE-AI/App/aiTestUtility.c **** {
 712              		.loc 1 490 1 is_stmt 1 view -0
 713              		.cfi_startproc
 714              		@ args = 0, pretend = 0, frame = 0
 715              		@ frame_needed = 0, uses_anonymous_args = 0
 716 0000 08B5     		push	{r3, lr}
 717              	.LCFI10:
 718              		.cfi_def_cfa_offset 8
 719              		.cfi_offset 3, -8
 720              		.cfi_offset 14, -4
 491:X-CUBE-AI/App/aiTestUtility.c **** #if defined(STM32MP1)
 492:X-CUBE-AI/App/aiTestUtility.c ****   return HAL_RCC_GetSystemCoreClockFreq();
 493:X-CUBE-AI/App/aiTestUtility.c **** #elif !defined(STM32H7)
 494:X-CUBE-AI/App/aiTestUtility.c ****   return HAL_RCC_GetHCLKFreq();
 721              		.loc 1 494 3 view .LVU184
 722              		.loc 1 494 10 is_stmt 0 view .LVU185
 723 0002 FFF7FEFF 		bl	HAL_RCC_GetHCLKFreq
 724              	.LVL51:
 495:X-CUBE-AI/App/aiTestUtility.c **** #else
 496:X-CUBE-AI/App/aiTestUtility.c ****   return HAL_RCC_GetSysClockFreq();
 497:X-CUBE-AI/App/aiTestUtility.c **** #endif
 498:X-CUBE-AI/App/aiTestUtility.c **** }
 725              		.loc 1 498 1 view .LVU186
 726 0006 08BD     		pop	{r3, pc}
 727              		.cfi_endproc
 728              	.LFE150:
 730              		.global	__aeabi_uldivmod
 731              		.section	.text.dwtCyclesToTime,"ax",%progbits
 732              		.align	1
 733              		.global	dwtCyclesToTime
 734              		.syntax unified
 735              		.thumb
 736              		.thumb_func
 737              		.fpu fpv4-sp-d16
 739              	dwtCyclesToTime:
ARM GAS  C:\Users\zacfi\AppData\Local\Temp\ccqnkoWq.s 			page 23


 740              	.LVL52:
 741              	.LFB151:
 499:X-CUBE-AI/App/aiTestUtility.c **** 
 500:X-CUBE-AI/App/aiTestUtility.c **** int dwtCyclesToTime(uint64_t clks, struct dwtTime *t)
 501:X-CUBE-AI/App/aiTestUtility.c **** {
 742              		.loc 1 501 1 is_stmt 1 view -0
 743              		.cfi_startproc
 744              		@ args = 0, pretend = 0, frame = 8
 745              		@ frame_needed = 0, uses_anonymous_args = 0
 502:X-CUBE-AI/App/aiTestUtility.c ****   if (!t)
 746              		.loc 1 502 3 view .LVU188
 747              		.loc 1 502 6 is_stmt 0 view .LVU189
 748 0000 002A     		cmp	r2, #0
 749 0002 6BD0     		beq	.L65
 501:X-CUBE-AI/App/aiTestUtility.c ****   if (!t)
 750              		.loc 1 501 1 view .LVU190
 751 0004 2DE9F04F 		push	{r4, r5, r6, r7, r8, r9, r10, fp, lr}
 752              	.LCFI11:
 753              		.cfi_def_cfa_offset 36
 754              		.cfi_offset 4, -36
 755              		.cfi_offset 5, -32
 756              		.cfi_offset 6, -28
 757              		.cfi_offset 7, -24
 758              		.cfi_offset 8, -20
 759              		.cfi_offset 9, -16
 760              		.cfi_offset 10, -12
 761              		.cfi_offset 11, -8
 762              		.cfi_offset 14, -4
 763 0008 83B0     		sub	sp, sp, #12
 764              	.LCFI12:
 765              		.cfi_def_cfa_offset 48
 766 000a 0446     		mov	r4, r0
 767 000c 0E46     		mov	r6, r1
 768 000e 9346     		mov	fp, r2
 503:X-CUBE-AI/App/aiTestUtility.c ****     return -1;
 504:X-CUBE-AI/App/aiTestUtility.c ****   uint32_t fcpu = systemCoreClock();
 769              		.loc 1 504 3 is_stmt 1 view .LVU191
 770              		.loc 1 504 19 is_stmt 0 view .LVU192
 771 0010 FFF7FEFF 		bl	systemCoreClock
 772              	.LVL53:
 773              		.loc 1 504 19 view .LVU193
 774 0014 8146     		mov	r9, r0
 775              	.LVL54:
 505:X-CUBE-AI/App/aiTestUtility.c ****   uint64_t s  = clks / fcpu;
 776              		.loc 1 505 3 is_stmt 1 view .LVU194
 777              		.loc 1 505 22 is_stmt 0 view .LVU195
 778 0016 4FF00008 		mov	r8, #0
 779              		.loc 1 505 12 view .LVU196
 780 001a 0246     		mov	r2, r0
 781 001c 4346     		mov	r3, r8
 782 001e 2046     		mov	r0, r4
 783              	.LVL55:
 784              		.loc 1 505 12 view .LVU197
 785 0020 3146     		mov	r1, r6
 786 0022 FFF7FEFF 		bl	__aeabi_uldivmod
 787              	.LVL56:
 788              		.loc 1 505 12 view .LVU198
ARM GAS  C:\Users\zacfi\AppData\Local\Temp\ccqnkoWq.s 			page 24


 789 0026 8246     		mov	r10, r0
 790 0028 0746     		mov	r7, r0
 791              	.LVL57:
 506:X-CUBE-AI/App/aiTestUtility.c ****   uint64_t ms = (clks * 1000) / fcpu;
 792              		.loc 1 506 3 is_stmt 1 view .LVU199
 793              		.loc 1 506 23 is_stmt 0 view .LVU200
 794 002a 7301     		lsls	r3, r6, #5
 795 002c 43EAD463 		orr	r3, r3, r4, lsr #27
 796 0030 6501     		lsls	r5, r4, #5
 797 0032 B5EB040C 		subs	ip, r5, r4
 798 0036 63EB0603 		sbc	r3, r3, r6
 799 003a 9B00     		lsls	r3, r3, #2
 800 003c 43EA9C73 		orr	r3, r3, ip, lsr #30
 801 0040 4FEA8C0C 		lsl	ip, ip, #2
 802 0044 1CEB040C 		adds	ip, ip, r4
 803 0048 46EB0301 		adc	r1, r6, r3
 804              	.LVL58:
 805              		.loc 1 506 23 view .LVU201
 806 004c C900     		lsls	r1, r1, #3
 807              		.loc 1 506 12 view .LVU202
 808 004e 4A46     		mov	r2, r9
 809 0050 4346     		mov	r3, r8
 810 0052 4FEACC00 		lsl	r0, ip, #3
 811              		.loc 1 506 12 view .LVU203
 812 0056 41EA5C71 		orr	r1, r1, ip, lsr #29
 813 005a FFF7FEFF 		bl	__aeabi_uldivmod
 814              	.LVL59:
 815 005e 0190     		str	r0, [sp, #4]
 816              	.LVL60:
 507:X-CUBE-AI/App/aiTestUtility.c ****   uint64_t us = (clks * 1000 * 1000) / fcpu;
 817              		.loc 1 507 3 is_stmt 1 view .LVU204
 818              		.loc 1 507 30 is_stmt 0 view .LVU205
 819 0060 7101     		lsls	r1, r6, #5
 820              	.LVL61:
 821              		.loc 1 507 30 view .LVU206
 822 0062 41EAD461 		orr	r1, r1, r4, lsr #27
 823 0066 281B     		subs	r0, r5, r4
 824              		.loc 1 507 30 view .LVU207
 825 0068 61EB0601 		sbc	r1, r1, r6
 826 006c 4902     		lsls	r1, r1, #9
 827 006e 41EAD051 		orr	r1, r1, r0, lsr #23
 828 0072 4002     		lsls	r0, r0, #9
 829 0074 0019     		adds	r0, r0, r4
 830 0076 46EB0101 		adc	r1, r6, r1
 831 007a 8B01     		lsls	r3, r1, #6
 832 007c 43EA9063 		orr	r3, r3, r0, lsr #26
 833 0080 8501     		lsls	r5, r0, #6
 834 0082 281A     		subs	r0, r5, r0
 835 0084 63EB0101 		sbc	r1, r3, r1
 836 0088 0019     		adds	r0, r0, r4
 837              		.loc 1 507 12 view .LVU208
 838 008a 4A46     		mov	r2, r9
 839 008c 4346     		mov	r3, r8
 840 008e 46EB0101 		adc	r1, r6, r1
 841 0092 FFF7FEFF 		bl	__aeabi_uldivmod
 842              	.LVL62:
 508:X-CUBE-AI/App/aiTestUtility.c ****   ms -= (s * 1000);
ARM GAS  C:\Users\zacfi\AppData\Local\Temp\ccqnkoWq.s 			page 25


 843              		.loc 1 508 3 is_stmt 1 view .LVU209
 844              		.loc 1 508 12 is_stmt 0 view .LVU210
 845 0096 4FEA4A13 		lsl	r3, r10, #5
 846 009a B3EB0A02 		subs	r2, r3, r10
 847 009e 0AEB8202 		add	r2, r10, r2, lsl #2
 848              		.loc 1 508 6 view .LVU211
 849 00a2 0199     		ldr	r1, [sp, #4]
 850              	.LVL63:
 851              		.loc 1 508 6 view .LVU212
 852 00a4 A1EBC202 		sub	r2, r1, r2, lsl #3
 509:X-CUBE-AI/App/aiTestUtility.c ****   us -= (ms * 1000 + s * 1000000);
 853              		.loc 1 509 3 is_stmt 1 view .LVU213
 854              		.loc 1 509 13 is_stmt 0 view .LVU214
 855 00a8 C2EB4211 		rsb	r1, r2, r2, lsl #5
 856 00ac 02EB8101 		add	r1, r2, r1, lsl #2
 857              		.loc 1 509 24 view .LVU215
 858 00b0 B3EB0A03 		subs	r3, r3, r10
 859 00b4 0AEB4323 		add	r3, r10, r3, lsl #9
 860 00b8 C3EB8313 		rsb	r3, r3, r3, lsl #6
 861 00bc DB19     		adds	r3, r3, r7
 862              		.loc 1 509 20 view .LVU216
 863 00be 03EBC103 		add	r3, r3, r1, lsl #3
 864              		.loc 1 509 6 view .LVU217
 865 00c2 C31A     		subs	r3, r0, r3
 510:X-CUBE-AI/App/aiTestUtility.c ****   t->fcpu = fcpu;
 866              		.loc 1 510 3 is_stmt 1 view .LVU218
 867              		.loc 1 510 11 is_stmt 0 view .LVU219
 868 00c4 CBF80090 		str	r9, [fp]
 511:X-CUBE-AI/App/aiTestUtility.c ****   t->s = s;
 869              		.loc 1 511 3 is_stmt 1 view .LVU220
 870              		.loc 1 511 8 is_stmt 0 view .LVU221
 871 00c8 CBF804A0 		str	r10, [fp, #4]
 512:X-CUBE-AI/App/aiTestUtility.c ****   t->ms = ms;
 872              		.loc 1 512 3 is_stmt 1 view .LVU222
 873              		.loc 1 512 9 is_stmt 0 view .LVU223
 874 00cc CBF80820 		str	r2, [fp, #8]
 513:X-CUBE-AI/App/aiTestUtility.c ****   t->us = us;
 875              		.loc 1 513 3 is_stmt 1 view .LVU224
 876              		.loc 1 513 9 is_stmt 0 view .LVU225
 877 00d0 CBF80C30 		str	r3, [fp, #12]
 514:X-CUBE-AI/App/aiTestUtility.c ****   return 0;
 878              		.loc 1 514 3 is_stmt 1 view .LVU226
 879              		.loc 1 514 10 is_stmt 0 view .LVU227
 880 00d4 4046     		mov	r0, r8
 515:X-CUBE-AI/App/aiTestUtility.c **** }
 881              		.loc 1 515 1 view .LVU228
 882 00d6 03B0     		add	sp, sp, #12
 883              	.LCFI13:
 884              		.cfi_def_cfa_offset 36
 885              		@ sp needed
 886 00d8 BDE8F08F 		pop	{r4, r5, r6, r7, r8, r9, r10, fp, pc}
 887              	.LVL64:
 888              	.L65:
 889              	.LCFI14:
 890              		.cfi_def_cfa_offset 0
 891              		.cfi_restore 4
 892              		.cfi_restore 5
ARM GAS  C:\Users\zacfi\AppData\Local\Temp\ccqnkoWq.s 			page 26


 893              		.cfi_restore 6
 894              		.cfi_restore 7
 895              		.cfi_restore 8
 896              		.cfi_restore 9
 897              		.cfi_restore 10
 898              		.cfi_restore 11
 899              		.cfi_restore 14
 503:X-CUBE-AI/App/aiTestUtility.c ****   uint32_t fcpu = systemCoreClock();
 900              		.loc 1 503 12 view .LVU229
 901 00dc 4FF0FF30 		mov	r0, #-1
 902              	.LVL65:
 903              		.loc 1 515 1 view .LVU230
 904 00e0 7047     		bx	lr
 905              		.cfi_endproc
 906              	.LFE151:
 908              		.global	__aeabi_ul2f
 909              		.section	.text.dwtCyclesToFloatMs,"ax",%progbits
 910              		.align	1
 911              		.global	dwtCyclesToFloatMs
 912              		.syntax unified
 913              		.thumb
 914              		.thumb_func
 915              		.fpu fpv4-sp-d16
 917              	dwtCyclesToFloatMs:
 918              	.LVL66:
 919              	.LFB152:
 516:X-CUBE-AI/App/aiTestUtility.c **** 
 517:X-CUBE-AI/App/aiTestUtility.c **** float dwtCyclesToFloatMs(uint64_t clks)
 518:X-CUBE-AI/App/aiTestUtility.c **** {
 920              		.loc 1 518 1 is_stmt 1 view -0
 921              		.cfi_startproc
 922              		@ args = 0, pretend = 0, frame = 0
 923              		@ frame_needed = 0, uses_anonymous_args = 0
 924              		.loc 1 518 1 is_stmt 0 view .LVU232
 925 0000 38B5     		push	{r3, r4, r5, lr}
 926              	.LCFI15:
 927              		.cfi_def_cfa_offset 16
 928              		.cfi_offset 3, -16
 929              		.cfi_offset 4, -12
 930              		.cfi_offset 5, -8
 931              		.cfi_offset 14, -4
 932 0002 2DED028B 		vpush.64	{d8}
 933              	.LCFI16:
 934              		.cfi_def_cfa_offset 24
 935              		.cfi_offset 80, -24
 936              		.cfi_offset 81, -20
 937 0006 0546     		mov	r5, r0
 938 0008 0C46     		mov	r4, r1
 519:X-CUBE-AI/App/aiTestUtility.c ****   float res;
 939              		.loc 1 519 3 is_stmt 1 view .LVU233
 520:X-CUBE-AI/App/aiTestUtility.c ****   float fcpu = (float)systemCoreClock();
 940              		.loc 1 520 3 view .LVU234
 941              		.loc 1 520 23 is_stmt 0 view .LVU235
 942 000a FFF7FEFF 		bl	systemCoreClock
 943              	.LVL67:
 944              		.loc 1 520 23 view .LVU236
 945 000e 08EE100A 		vmov	s16, r0	@ int
ARM GAS  C:\Users\zacfi\AppData\Local\Temp\ccqnkoWq.s 			page 27


 946              		.loc 1 520 9 view .LVU237
 947 0012 B8EE488A 		vcvt.f32.u32	s16, s16
 948              	.LVL68:
 521:X-CUBE-AI/App/aiTestUtility.c ****   res = ((float)clks * (float)1000.0) / fcpu;
 949              		.loc 1 521 3 is_stmt 1 view .LVU238
 950              		.loc 1 521 10 is_stmt 0 view .LVU239
 951 0016 2846     		mov	r0, r5
 952 0018 2146     		mov	r1, r4
 953 001a FFF7FEFF 		bl	__aeabi_ul2f
 954              	.LVL69:
 955 001e 00EE100A 		vmov	s0, r0
 956              		.loc 1 521 22 view .LVU240
 957 0022 DFED047A 		vldr.32	s15, .L72
 958 0026 20EE270A 		vmul.f32	s0, s0, s15
 959              	.LVL70:
 522:X-CUBE-AI/App/aiTestUtility.c ****   return res;
 960              		.loc 1 522 3 is_stmt 1 view .LVU241
 523:X-CUBE-AI/App/aiTestUtility.c **** }
 961              		.loc 1 523 1 is_stmt 0 view .LVU242
 962 002a 80EE080A 		vdiv.f32	s0, s0, s16
 963              	.LVL71:
 964              		.loc 1 523 1 view .LVU243
 965 002e BDEC028B 		vldm	sp!, {d8}
 966              	.LCFI17:
 967              		.cfi_restore 80
 968              		.cfi_restore 81
 969              		.cfi_def_cfa_offset 16
 970              	.LVL72:
 971              		.loc 1 523 1 view .LVU244
 972 0032 38BD     		pop	{r3, r4, r5, pc}
 973              	.L73:
 974              		.align	2
 975              	.L72:
 976 0034 00007A44 		.word	1148846080
 977              		.cfi_endproc
 978              	.LFE152:
 980              		.section	.text.getFlashCacheConf,"ax",%progbits
 981              		.align	1
 982              		.global	getFlashCacheConf
 983              		.syntax unified
 984              		.thumb
 985              		.thumb_func
 986              		.fpu fpv4-sp-d16
 988              	getFlashCacheConf:
 989              	.LFB155:
 524:X-CUBE-AI/App/aiTestUtility.c **** 
 525:X-CUBE-AI/App/aiTestUtility.c **** __STATIC_INLINE const char *devIdToStr(uint16_t dev_id)
 526:X-CUBE-AI/App/aiTestUtility.c **** {
 527:X-CUBE-AI/App/aiTestUtility.c ****   /* DEV_ID field from DBGMCU register */
 528:X-CUBE-AI/App/aiTestUtility.c ****   const char *str;
 529:X-CUBE-AI/App/aiTestUtility.c ****   switch (dev_id) {
 530:X-CUBE-AI/App/aiTestUtility.c ****   case 0x422: str = "STM32F303xB/C"; break;
 531:X-CUBE-AI/App/aiTestUtility.c ****   case 0x438: str = "STM32F303x6/8"; break;
 532:X-CUBE-AI/App/aiTestUtility.c ****   case 0x446: str = "STM32F303xD/E"; break;
 533:X-CUBE-AI/App/aiTestUtility.c ****   case 0x431: str = "STM32F411xC/E"; break;
 534:X-CUBE-AI/App/aiTestUtility.c ****   case 0x423: str = "STM32F401xB/C"; break;
 535:X-CUBE-AI/App/aiTestUtility.c ****   case 0x433: str = "STM32F401xD/E"; break;
ARM GAS  C:\Users\zacfi\AppData\Local\Temp\ccqnkoWq.s 			page 28


 536:X-CUBE-AI/App/aiTestUtility.c ****   case 0x435: str = "STM32L43xxx"; break;
 537:X-CUBE-AI/App/aiTestUtility.c ****   case 0x462: str = "STM32L45xxx"; break;
 538:X-CUBE-AI/App/aiTestUtility.c ****   case 0x415: str = "STM32L4x6xx"; break;
 539:X-CUBE-AI/App/aiTestUtility.c ****   case 0x470: str = "STM32L4Rxxx"; break;
 540:X-CUBE-AI/App/aiTestUtility.c ****   case 0x472: str = "STM32L5[5,6]2xx"; break;
 541:X-CUBE-AI/App/aiTestUtility.c ****   case 0x449: str = "STM32F74xxx"; break;
 542:X-CUBE-AI/App/aiTestUtility.c ****   case 0x450: str = "STM32H743/53/50xx and STM32H745/55/47/57xx"; break; /* see RM0433 & RM0399 */
 543:X-CUBE-AI/App/aiTestUtility.c ****   case 0x451: str = "STM32F7[6,7]xxx"; break; /* see RM0410 */
 544:X-CUBE-AI/App/aiTestUtility.c ****   default:    str = "UNKNOWN";
 545:X-CUBE-AI/App/aiTestUtility.c ****   }
 546:X-CUBE-AI/App/aiTestUtility.c ****   return str;
 547:X-CUBE-AI/App/aiTestUtility.c **** }
 548:X-CUBE-AI/App/aiTestUtility.c **** 
 549:X-CUBE-AI/App/aiTestUtility.c **** #if defined(DUAL_CORE) && defined(STM32H7) && defined(CORE_CM4)
 550:X-CUBE-AI/App/aiTestUtility.c **** #define _STM32H7_DUAL_CORE_CM4
 551:X-CUBE-AI/App/aiTestUtility.c **** #endif
 552:X-CUBE-AI/App/aiTestUtility.c **** 
 553:X-CUBE-AI/App/aiTestUtility.c **** #if !defined(STM32F3) && !defined(STM32MP1) && !defined(_STM32H7_DUAL_CORE_CM4)
 554:X-CUBE-AI/App/aiTestUtility.c **** __STATIC_INLINE const char* bitToStr(uint32_t val)
 555:X-CUBE-AI/App/aiTestUtility.c **** {
 556:X-CUBE-AI/App/aiTestUtility.c ****   if (val)
 557:X-CUBE-AI/App/aiTestUtility.c ****     return "True";
 558:X-CUBE-AI/App/aiTestUtility.c ****   else
 559:X-CUBE-AI/App/aiTestUtility.c ****     return "False";
 560:X-CUBE-AI/App/aiTestUtility.c **** }
 561:X-CUBE-AI/App/aiTestUtility.c **** #endif
 562:X-CUBE-AI/App/aiTestUtility.c **** 
 563:X-CUBE-AI/App/aiTestUtility.c **** static uint32_t mconf;
 564:X-CUBE-AI/App/aiTestUtility.c **** 
 565:X-CUBE-AI/App/aiTestUtility.c **** uint32_t getFlashCacheConf(void)
 566:X-CUBE-AI/App/aiTestUtility.c **** {
 990              		.loc 1 566 1 is_stmt 1 view -0
 991              		.cfi_startproc
 992              		@ args = 0, pretend = 0, frame = 0
 993              		@ frame_needed = 0, uses_anonymous_args = 0
 994              		@ link register save eliminated.
 567:X-CUBE-AI/App/aiTestUtility.c ****   return mconf;
 995              		.loc 1 567 3 view .LVU246
 568:X-CUBE-AI/App/aiTestUtility.c **** }
 996              		.loc 1 568 1 is_stmt 0 view .LVU247
 997 0000 014B     		ldr	r3, .L75
 998 0002 1868     		ldr	r0, [r3]
 999 0004 7047     		bx	lr
 1000              	.L76:
 1001 0006 00BF     		.align	2
 1002              	.L75:
 1003 0008 00000000 		.word	.LANCHOR3
 1004              		.cfi_endproc
 1005              	.LFE155:
 1007              		.section	.rodata.systemSettingLog.str1.4,"aMS",%progbits,1
 1008              		.align	2
 1009              	.LC2:
 1010 0000 554E4B4E 		.ascii	"UNKNOWN\000"
 1010      4F574E00 
 1011              		.align	2
 1012              	.LC3:
 1013 0008 53544D33 		.ascii	"STM32F303x6/8\000"
ARM GAS  C:\Users\zacfi\AppData\Local\Temp\ccqnkoWq.s 			page 29


 1013      32463330 
 1013      3378362F 
 1013      3800
 1014 0016 0000     		.align	2
 1015              	.LC4:
 1016 0018 53544D33 		.ascii	"STM32F303xD/E\000"
 1016      32463330 
 1016      3378442F 
 1016      4500
 1017 0026 0000     		.align	2
 1018              	.LC5:
 1019 0028 53544D33 		.ascii	"STM32F411xC/E\000"
 1019      32463431 
 1019      3178432F 
 1019      4500
 1020 0036 0000     		.align	2
 1021              	.LC6:
 1022 0038 53544D33 		.ascii	"STM32F401xB/C\000"
 1022      32463430 
 1022      3178422F 
 1022      4300
 1023 0046 0000     		.align	2
 1024              	.LC7:
 1025 0048 53544D33 		.ascii	"STM32F401xD/E\000"
 1025      32463430 
 1025      3178442F 
 1025      4500
 1026 0056 0000     		.align	2
 1027              	.LC8:
 1028 0058 53544D33 		.ascii	"STM32L43xxx\000"
 1028      324C3433 
 1028      78787800 
 1029              		.align	2
 1030              	.LC9:
 1031 0064 53544D33 		.ascii	"STM32L45xxx\000"
 1031      324C3435 
 1031      78787800 
 1032              		.align	2
 1033              	.LC10:
 1034 0070 53544D33 		.ascii	"STM32L4x6xx\000"
 1034      324C3478 
 1034      36787800 
 1035              		.align	2
 1036              	.LC11:
 1037 007c 53544D33 		.ascii	"STM32L4Rxxx\000"
 1037      324C3452 
 1037      78787800 
 1038              		.align	2
 1039              	.LC12:
 1040 0088 53544D33 		.ascii	"STM32L5[5,6]2xx\000"
 1040      324C355B 
 1040      352C365D 
 1040      32787800 
 1041              		.align	2
 1042              	.LC13:
 1043 0098 53544D33 		.ascii	"STM32F74xxx\000"
 1043      32463734 
ARM GAS  C:\Users\zacfi\AppData\Local\Temp\ccqnkoWq.s 			page 30


 1043      78787800 
 1044              		.align	2
 1045              	.LC14:
 1046 00a4 53544D33 		.ascii	"STM32H743/53/50xx and STM32H745/55/47/57xx\000"
 1046      32483734 
 1046      332F3533 
 1046      2F353078 
 1046      7820616E 
 1047 00cf 00       		.align	2
 1048              	.LC15:
 1049 00d0 53544D33 		.ascii	"STM32F7[6,7]xxx\000"
 1049      3246375B 
 1049      362C375D 
 1049      78787800 
 1050              		.align	2
 1051              	.LC16:
 1052 00e0 53544D33 		.ascii	"STM32F303xB/C\000"
 1052      32463330 
 1052      3378422F 
 1052      4300
 1053 00ee 0000     		.align	2
 1054              	.LC17:
 1055 00f0 46616C73 		.ascii	"False\000"
 1055      6500
 1056 00f6 0000     		.align	2
 1057              	.LC18:
 1058 00f8 54727565 		.ascii	"True\000"
 1058      00
 1059 00fd 000000   		.align	2
 1060              	.LC19:
 1061 0100 436F6D70 		.ascii	"Compiled with GCC %d.%d.%d\015\012\000"
 1061      696C6564 
 1061      20776974 
 1061      68204743 
 1061      43202564 
 1062 011d 000000   		.align	2
 1063              	.LC20:
 1064 0120 53544D33 		.ascii	"STM32 Runtime configuration...\015\000"
 1064      32205275 
 1064      6E74696D 
 1064      6520636F 
 1064      6E666967 
 1065              		.align	2
 1066              	.LC21:
 1067 0140 20446576 		.ascii	" Device       : DevID:0x%04x (%s) RevID:0x%04x\015\012"
 1067      69636520 
 1067      20202020 
 1067      20203A20 
 1067      44657649 
 1068 0170 00       		.ascii	"\000"
 1069 0171 000000   		.align	2
 1070              	.LC22:
 1071 0174 616E6420 		.ascii	"and used\000"
 1071      75736564 
 1071      00
 1072 017d 000000   		.align	2
 1073              	.LC23:
ARM GAS  C:\Users\zacfi\AppData\Local\Temp\ccqnkoWq.s 			page 31


 1074 0180 46505520 		.ascii	"FPU PRESENT\000"
 1074      50524553 
 1074      454E5400 
 1075              		.align	2
 1076              	.LC24:
 1077 018c 20436F72 		.ascii	" Core Arch.   : M%d - %s %s\015\012\000"
 1077      65204172 
 1077      63682E20 
 1077      20203A20 
 1077      4D256420 
 1078 01aa 0000     		.align	2
 1079              	.LC25:
 1080 01ac 2048414C 		.ascii	" HAL version  : 0x%08x\015\012\000"
 1080      20766572 
 1080      73696F6E 
 1080      20203A20 
 1080      30782530 
 1081 01c5 000000   		.align	2
 1082              	.LC26:
 1083 01c8 20737973 		.ascii	" system clock : %u MHz\015\012\000"
 1083      74656D20 
 1083      636C6F63 
 1083      6B203A20 
 1083      2575204D 
 1084 01e1 000000   		.align	2
 1085              	.LC27:
 1086 01e4 20464C41 		.ascii	" FLASH conf.  : ACR=0x%08x - Prefetch=%s $I/$D=(%s,"
 1086      53482063 
 1086      6F6E662E 
 1086      20203A20 
 1086      4143523D 
 1087 0217 25732920 		.ascii	"%s) latency=%d\015\012\000"
 1087      6C617465 
 1087      6E63793D 
 1087      25640D0A 
 1087      00
 1088              		.align	2
 1089              	.LC28:
 1090 0228 573A2043 		.ascii	"W: CRC IP clock is NOT enabled\015\000"
 1090      52432049 
 1090      5020636C 
 1090      6F636B20 
 1090      6973204E 
 1091              		.align	2
 1092              	.LC29:
 1093 0248 2043616C 		.ascii	" Calibration  : HAL_Delay(1)=%d.%03d ms\015\012\000"
 1093      69627261 
 1093      74696F6E 
 1093      20203A20 
 1093      48414C5F 
 1094              		.section	.text.systemSettingLog,"ax",%progbits
 1095              		.align	1
 1096              		.global	systemSettingLog
 1097              		.syntax unified
 1098              		.thumb
 1099              		.thumb_func
 1100              		.fpu fpv4-sp-d16
ARM GAS  C:\Users\zacfi\AppData\Local\Temp\ccqnkoWq.s 			page 32


 1102              	systemSettingLog:
 1103              	.LFB156:
 569:X-CUBE-AI/App/aiTestUtility.c **** 
 570:X-CUBE-AI/App/aiTestUtility.c **** void systemSettingLog(void)
 571:X-CUBE-AI/App/aiTestUtility.c **** {
 1104              		.loc 1 571 1 is_stmt 1 view -0
 1105              		.cfi_startproc
 1106              		@ args = 0, pretend = 0, frame = 24
 1107              		@ frame_needed = 0, uses_anonymous_args = 0
 1108 0000 70B5     		push	{r4, r5, r6, lr}
 1109              	.LCFI18:
 1110              		.cfi_def_cfa_offset 16
 1111              		.cfi_offset 4, -16
 1112              		.cfi_offset 5, -12
 1113              		.cfi_offset 6, -8
 1114              		.cfi_offset 14, -4
 1115 0002 88B0     		sub	sp, sp, #32
 1116              	.LCFI19:
 1117              		.cfi_def_cfa_offset 48
 572:X-CUBE-AI/App/aiTestUtility.c ****   struct dwtTime t;
 1118              		.loc 1 572 3 view .LVU249
 573:X-CUBE-AI/App/aiTestUtility.c ****   uint32_t st;
 1119              		.loc 1 573 3 view .LVU250
 574:X-CUBE-AI/App/aiTestUtility.c **** 
 575:X-CUBE-AI/App/aiTestUtility.c **** #if !defined(STM32F3) && !defined(STM32L5)
 576:X-CUBE-AI/App/aiTestUtility.c ****   uint32_t acr = FLASH->ACR ;
 1120              		.loc 1 576 3 view .LVU251
 1121              		.loc 1 576 12 is_stmt 0 view .LVU252
 1122 0004 8D4B     		ldr	r3, .L107
 1123 0006 1C68     		ldr	r4, [r3]
 1124              	.LVL73:
 577:X-CUBE-AI/App/aiTestUtility.c **** #endif
 578:X-CUBE-AI/App/aiTestUtility.c ****   uint32_t val;
 1125              		.loc 1 578 3 is_stmt 1 view .LVU253
 579:X-CUBE-AI/App/aiTestUtility.c **** 
 580:X-CUBE-AI/App/aiTestUtility.c ****   /* Display ARM Complier version */
 581:X-CUBE-AI/App/aiTestUtility.c **** 
 582:X-CUBE-AI/App/aiTestUtility.c **** #if defined (__ARMCC_VERSION) && (__ARMCC_VERSION >= 6010050)
 583:X-CUBE-AI/App/aiTestUtility.c ****   printf("Compiled with MDK-ARM Keil (Arm Compiler 6) %d\r\n", __ARMCC_VERSION);
 584:X-CUBE-AI/App/aiTestUtility.c **** #elif defined(__GNUC__)
 585:X-CUBE-AI/App/aiTestUtility.c ****   printf("Compiled with GCC %d.%d.%d\r\n", __GNUC__, __GNUC_MINOR__,
 1126              		.loc 1 585 3 view .LVU254
 1127 0008 0123     		movs	r3, #1
 1128 000a 0222     		movs	r2, #2
 1129 000c 0A21     		movs	r1, #10
 1130 000e 8C48     		ldr	r0, .L107+4
 1131 0010 FFF7FEFF 		bl	printf
 1132              	.LVL74:
 586:X-CUBE-AI/App/aiTestUtility.c ****       __GNUC_PATCHLEVEL__);
 587:X-CUBE-AI/App/aiTestUtility.c **** #elif defined(__ICCARM__)
 588:X-CUBE-AI/App/aiTestUtility.c ****   printf("Compiled with IAR %d (build %d)\r\n", __IAR_SYSTEMS_ICC__,
 589:X-CUBE-AI/App/aiTestUtility.c ****       __BUILD_NUMBER__
 590:X-CUBE-AI/App/aiTestUtility.c ****   );
 591:X-CUBE-AI/App/aiTestUtility.c **** #elif defined (__CC_ARM)
 592:X-CUBE-AI/App/aiTestUtility.c ****   printf("Compiled with MDK-ARM Keil %d\r\n", __ARMCC_VERSION);
 593:X-CUBE-AI/App/aiTestUtility.c **** #endif
 594:X-CUBE-AI/App/aiTestUtility.c **** 
ARM GAS  C:\Users\zacfi\AppData\Local\Temp\ccqnkoWq.s 			page 33


 595:X-CUBE-AI/App/aiTestUtility.c **** 
 596:X-CUBE-AI/App/aiTestUtility.c ****   /* Display Device configuration */
 597:X-CUBE-AI/App/aiTestUtility.c **** 
 598:X-CUBE-AI/App/aiTestUtility.c ****   printf("STM32 Runtime configuration...\r\n");
 1133              		.loc 1 598 3 view .LVU255
 1134 0014 8B48     		ldr	r0, .L107+8
 1135 0016 FFF7FEFF 		bl	puts
 1136              	.LVL75:
 599:X-CUBE-AI/App/aiTestUtility.c **** 
 600:X-CUBE-AI/App/aiTestUtility.c ****   printf(" Device       : DevID:0x%04x (%s) RevID:0x%04x\r\n",
 1137              		.loc 1 600 3 view .LVU256
 601:X-CUBE-AI/App/aiTestUtility.c ****       (int)HAL_GetDEVID(),
 1138              		.loc 1 601 12 is_stmt 0 view .LVU257
 1139 001a FFF7FEFF 		bl	HAL_GetDEVID
 1140              	.LVL76:
 1141 001e 0546     		mov	r5, r0
 602:X-CUBE-AI/App/aiTestUtility.c ****       devIdToStr(HAL_GetDEVID()),
 1142              		.loc 1 602 18 view .LVU258
 1143 0020 FFF7FEFF 		bl	HAL_GetDEVID
 1144              	.LVL77:
 600:X-CUBE-AI/App/aiTestUtility.c ****       (int)HAL_GetDEVID(),
 1145              		.loc 1 600 3 view .LVU259
 1146 0024 83B2     		uxth	r3, r0
 1147              	.LVL78:
 1148              	.LBB27:
 1149              	.LBI27:
 525:X-CUBE-AI/App/aiTestUtility.c **** {
 1150              		.loc 1 525 29 is_stmt 1 view .LVU260
 1151              	.LBB28:
 528:X-CUBE-AI/App/aiTestUtility.c ****   switch (dev_id) {
 1152              		.loc 1 528 3 view .LVU261
 529:X-CUBE-AI/App/aiTestUtility.c ****   case 0x422: str = "STM32F303xB/C"; break;
 1153              		.loc 1 529 3 view .LVU262
 1154 0026 A3F21543 		subw	r3, r3, #1045
 1155              	.LVL79:
 529:X-CUBE-AI/App/aiTestUtility.c ****   case 0x422: str = "STM32F303xB/C"; break;
 1156              		.loc 1 529 3 is_stmt 0 view .LVU263
 1157 002a 5D2B     		cmp	r3, #93
 1158 002c 00F2F880 		bhi	.L78
 1159 0030 DFE813F0 		tbh	[pc, r3, lsl #1]
 1160              	.L80:
 1161 0034 EA00     		.2byte	(.L93-.L80)/2
 1162 0036 F600     		.2byte	(.L78-.L80)/2
 1163 0038 F600     		.2byte	(.L78-.L80)/2
 1164 003a F600     		.2byte	(.L78-.L80)/2
 1165 003c F600     		.2byte	(.L78-.L80)/2
 1166 003e F600     		.2byte	(.L78-.L80)/2
 1167 0040 F600     		.2byte	(.L78-.L80)/2
 1168 0042 F600     		.2byte	(.L78-.L80)/2
 1169 0044 F600     		.2byte	(.L78-.L80)/2
 1170 0046 F600     		.2byte	(.L78-.L80)/2
 1171 0048 F600     		.2byte	(.L78-.L80)/2
 1172 004a F600     		.2byte	(.L78-.L80)/2
 1173 004c F600     		.2byte	(.L78-.L80)/2
 1174 004e 5E00     		.2byte	(.L92-.L80)/2
 1175 0050 E200     		.2byte	(.L91-.L80)/2
 1176 0052 F600     		.2byte	(.L78-.L80)/2
ARM GAS  C:\Users\zacfi\AppData\Local\Temp\ccqnkoWq.s 			page 34


 1177 0054 F600     		.2byte	(.L78-.L80)/2
 1178 0056 F600     		.2byte	(.L78-.L80)/2
 1179 0058 F600     		.2byte	(.L78-.L80)/2
 1180 005a F600     		.2byte	(.L78-.L80)/2
 1181 005c F600     		.2byte	(.L78-.L80)/2
 1182 005e F600     		.2byte	(.L78-.L80)/2
 1183 0060 F600     		.2byte	(.L78-.L80)/2
 1184 0062 F600     		.2byte	(.L78-.L80)/2
 1185 0064 F600     		.2byte	(.L78-.L80)/2
 1186 0066 F600     		.2byte	(.L78-.L80)/2
 1187 0068 F600     		.2byte	(.L78-.L80)/2
 1188 006a F600     		.2byte	(.L78-.L80)/2
 1189 006c E000     		.2byte	(.L90-.L80)/2
 1190 006e F600     		.2byte	(.L78-.L80)/2
 1191 0070 E400     		.2byte	(.L89-.L80)/2
 1192 0072 F600     		.2byte	(.L78-.L80)/2
 1193 0074 E600     		.2byte	(.L88-.L80)/2
 1194 0076 F600     		.2byte	(.L78-.L80)/2
 1195 0078 F600     		.2byte	(.L78-.L80)/2
 1196 007a F800     		.2byte	(.L101-.L80)/2
 1197 007c F600     		.2byte	(.L78-.L80)/2
 1198 007e F600     		.2byte	(.L78-.L80)/2
 1199 0080 F600     		.2byte	(.L78-.L80)/2
 1200 0082 F600     		.2byte	(.L78-.L80)/2
 1201 0084 F600     		.2byte	(.L78-.L80)/2
 1202 0086 F600     		.2byte	(.L78-.L80)/2
 1203 0088 F600     		.2byte	(.L78-.L80)/2
 1204 008a F600     		.2byte	(.L78-.L80)/2
 1205 008c F600     		.2byte	(.L78-.L80)/2
 1206 008e F600     		.2byte	(.L78-.L80)/2
 1207 0090 F600     		.2byte	(.L78-.L80)/2
 1208 0092 F600     		.2byte	(.L78-.L80)/2
 1209 0094 F600     		.2byte	(.L78-.L80)/2
 1210 0096 6000     		.2byte	(.L86-.L80)/2
 1211 0098 F600     		.2byte	(.L78-.L80)/2
 1212 009a F600     		.2byte	(.L78-.L80)/2
 1213 009c F000     		.2byte	(.L85-.L80)/2
 1214 009e F600     		.2byte	(.L78-.L80)/2
 1215 00a0 F600     		.2byte	(.L78-.L80)/2
 1216 00a2 F600     		.2byte	(.L78-.L80)/2
 1217 00a4 F600     		.2byte	(.L78-.L80)/2
 1218 00a6 F600     		.2byte	(.L78-.L80)/2
 1219 00a8 F600     		.2byte	(.L78-.L80)/2
 1220 00aa F200     		.2byte	(.L84-.L80)/2
 1221 00ac F400     		.2byte	(.L83-.L80)/2
 1222 00ae F600     		.2byte	(.L78-.L80)/2
 1223 00b0 F600     		.2byte	(.L78-.L80)/2
 1224 00b2 F600     		.2byte	(.L78-.L80)/2
 1225 00b4 F600     		.2byte	(.L78-.L80)/2
 1226 00b6 F600     		.2byte	(.L78-.L80)/2
 1227 00b8 F600     		.2byte	(.L78-.L80)/2
 1228 00ba F600     		.2byte	(.L78-.L80)/2
 1229 00bc F600     		.2byte	(.L78-.L80)/2
 1230 00be F600     		.2byte	(.L78-.L80)/2
 1231 00c0 F600     		.2byte	(.L78-.L80)/2
 1232 00c2 F600     		.2byte	(.L78-.L80)/2
 1233 00c4 F600     		.2byte	(.L78-.L80)/2
ARM GAS  C:\Users\zacfi\AppData\Local\Temp\ccqnkoWq.s 			page 35


 1234 00c6 F600     		.2byte	(.L78-.L80)/2
 1235 00c8 F600     		.2byte	(.L78-.L80)/2
 1236 00ca F600     		.2byte	(.L78-.L80)/2
 1237 00cc F600     		.2byte	(.L78-.L80)/2
 1238 00ce E800     		.2byte	(.L82-.L80)/2
 1239 00d0 F600     		.2byte	(.L78-.L80)/2
 1240 00d2 F600     		.2byte	(.L78-.L80)/2
 1241 00d4 F600     		.2byte	(.L78-.L80)/2
 1242 00d6 F600     		.2byte	(.L78-.L80)/2
 1243 00d8 F600     		.2byte	(.L78-.L80)/2
 1244 00da F600     		.2byte	(.L78-.L80)/2
 1245 00dc F600     		.2byte	(.L78-.L80)/2
 1246 00de F600     		.2byte	(.L78-.L80)/2
 1247 00e0 F600     		.2byte	(.L78-.L80)/2
 1248 00e2 F600     		.2byte	(.L78-.L80)/2
 1249 00e4 F600     		.2byte	(.L78-.L80)/2
 1250 00e6 F600     		.2byte	(.L78-.L80)/2
 1251 00e8 F600     		.2byte	(.L78-.L80)/2
 1252 00ea EC00     		.2byte	(.L81-.L80)/2
 1253 00ec F600     		.2byte	(.L78-.L80)/2
 1254 00ee EE00     		.2byte	(.L79-.L80)/2
 1255              		.p2align 1
 1256              	.L92:
 1257              	.LBE28:
 1258              	.LBE27:
 600:X-CUBE-AI/App/aiTestUtility.c ****       (int)HAL_GetDEVID(),
 1259              		.loc 1 600 3 view .LVU264
 1260 00f0 554E     		ldr	r6, .L107+12
 1261 00f2 00E0     		b	.L87
 1262              	.L86:
 1263              	.LBB31:
 1264              	.LBB29:
 532:X-CUBE-AI/App/aiTestUtility.c ****   case 0x431: str = "STM32F411xC/E"; break;
 1265              		.loc 1 532 15 is_stmt 1 view .LVU265
 1266              	.LVL80:
 532:X-CUBE-AI/App/aiTestUtility.c ****   case 0x431: str = "STM32F411xC/E"; break;
 1267              		.loc 1 532 38 view .LVU266
 532:X-CUBE-AI/App/aiTestUtility.c ****   case 0x431: str = "STM32F411xC/E"; break;
 1268              		.loc 1 532 19 is_stmt 0 view .LVU267
 1269 00f4 554E     		ldr	r6, .L107+16
 1270              	.LVL81:
 1271              	.L87:
 546:X-CUBE-AI/App/aiTestUtility.c **** }
 1272              		.loc 1 546 3 is_stmt 1 view .LVU268
 546:X-CUBE-AI/App/aiTestUtility.c **** }
 1273              		.loc 1 546 3 is_stmt 0 view .LVU269
 1274              	.LBE29:
 1275              	.LBE31:
 603:X-CUBE-AI/App/aiTestUtility.c ****       (int)HAL_GetREVID()
 1276              		.loc 1 603 12 view .LVU270
 1277 00f6 FFF7FEFF 		bl	HAL_GetREVID
 1278              	.LVL82:
 1279 00fa 0346     		mov	r3, r0
 600:X-CUBE-AI/App/aiTestUtility.c ****       (int)HAL_GetDEVID(),
 1280              		.loc 1 600 3 view .LVU271
 1281 00fc 3246     		mov	r2, r6
 1282 00fe 2946     		mov	r1, r5
ARM GAS  C:\Users\zacfi\AppData\Local\Temp\ccqnkoWq.s 			page 36


 1283 0100 5348     		ldr	r0, .L107+20
 1284 0102 FFF7FEFF 		bl	printf
 1285              	.LVL83:
 604:X-CUBE-AI/App/aiTestUtility.c ****   );
 605:X-CUBE-AI/App/aiTestUtility.c **** 
 606:X-CUBE-AI/App/aiTestUtility.c ****   printf(" Core Arch.   : M%d - %s %s\r\n",
 1286              		.loc 1 606 3 is_stmt 1 view .LVU272
 1287 0106 534B     		ldr	r3, .L107+24
 1288 0108 534A     		ldr	r2, .L107+28
 1289 010a 0421     		movs	r1, #4
 1290 010c 5348     		ldr	r0, .L107+32
 1291 010e FFF7FEFF 		bl	printf
 1292              	.LVL84:
 607:X-CUBE-AI/App/aiTestUtility.c ****       __CORTEX_M,
 608:X-CUBE-AI/App/aiTestUtility.c **** #if (__FPU_PRESENT == 1)
 609:X-CUBE-AI/App/aiTestUtility.c ****       "FPU PRESENT",
 610:X-CUBE-AI/App/aiTestUtility.c ****       __FPU_USED ? "and used" : "and not used!"
 611:X-CUBE-AI/App/aiTestUtility.c **** #else
 612:X-CUBE-AI/App/aiTestUtility.c ****           "!FPU NOT PRESENT",
 613:X-CUBE-AI/App/aiTestUtility.c ****           ""
 614:X-CUBE-AI/App/aiTestUtility.c **** #endif
 615:X-CUBE-AI/App/aiTestUtility.c ****   );
 616:X-CUBE-AI/App/aiTestUtility.c **** 
 617:X-CUBE-AI/App/aiTestUtility.c **** #if (__FPU_PRESENT == 1) && __FPU_USED
 618:X-CUBE-AI/App/aiTestUtility.c ****   mconf = (1 << 16);  /* FPU present and used */
 1293              		.loc 1 618 3 view .LVU273
 1294              		.loc 1 618 9 is_stmt 0 view .LVU274
 1295 0112 534D     		ldr	r5, .L107+36
 1296 0114 4FF48033 		mov	r3, #65536
 1297 0118 2B60     		str	r3, [r5]
 619:X-CUBE-AI/App/aiTestUtility.c **** #endif
 620:X-CUBE-AI/App/aiTestUtility.c **** 
 621:X-CUBE-AI/App/aiTestUtility.c ****   printf(" HAL version  : 0x%08x\r\n", (int)HAL_GetHalVersion());
 1298              		.loc 1 621 3 is_stmt 1 view .LVU275
 1299              		.loc 1 621 45 is_stmt 0 view .LVU276
 1300 011a FFF7FEFF 		bl	HAL_GetHalVersion
 1301              	.LVL85:
 1302 011e 0146     		mov	r1, r0
 1303              		.loc 1 621 3 view .LVU277
 1304 0120 5048     		ldr	r0, .L107+40
 1305 0122 FFF7FEFF 		bl	printf
 1306              	.LVL86:
 622:X-CUBE-AI/App/aiTestUtility.c **** 
 623:X-CUBE-AI/App/aiTestUtility.c ****   val = systemCoreClock()/1000000;
 1307              		.loc 1 623 3 is_stmt 1 view .LVU278
 1308              		.loc 1 623 9 is_stmt 0 view .LVU279
 1309 0126 FFF7FEFF 		bl	systemCoreClock
 1310              	.LVL87:
 1311              		.loc 1 623 7 view .LVU280
 1312 012a 4F49     		ldr	r1, .L107+44
 1313 012c A1FB0031 		umull	r3, r1, r1, r0
 1314              	.LVL88:
 624:X-CUBE-AI/App/aiTestUtility.c **** 
 625:X-CUBE-AI/App/aiTestUtility.c **** #if !defined(STM32H7)
 626:X-CUBE-AI/App/aiTestUtility.c ****   printf(" system clock : %u MHz\r\n", (int)val);
 1315              		.loc 1 626 3 is_stmt 1 view .LVU281
 1316 0130 890C     		lsrs	r1, r1, #18
ARM GAS  C:\Users\zacfi\AppData\Local\Temp\ccqnkoWq.s 			page 37


 1317              	.LVL89:
 1318              		.loc 1 626 3 is_stmt 0 view .LVU282
 1319 0132 4E48     		ldr	r0, .L107+48
 1320 0134 FFF7FEFF 		bl	printf
 1321              	.LVL90:
 627:X-CUBE-AI/App/aiTestUtility.c **** #else
 628:X-CUBE-AI/App/aiTestUtility.c ****   printf(" SYSCLK clock : %u MHz\r\n", (int)val);
 629:X-CUBE-AI/App/aiTestUtility.c ****   printf(" HCLK clock   : %u MHz\r\n", (int)HAL_RCC_GetHCLKFreq()/1000000);
 630:X-CUBE-AI/App/aiTestUtility.c **** #endif
 631:X-CUBE-AI/App/aiTestUtility.c **** 
 632:X-CUBE-AI/App/aiTestUtility.c **** #if defined(STM32F7) || defined(STM32H7)
 633:X-CUBE-AI/App/aiTestUtility.c ****   val = SCB->CCR;
 634:X-CUBE-AI/App/aiTestUtility.c **** #if !defined(STM32H7)
 635:X-CUBE-AI/App/aiTestUtility.c ****   mconf |= (2 << 24);  /* F7 conf. */
 636:X-CUBE-AI/App/aiTestUtility.c ****   mconf |= ((acr & FLASH_ACR_LATENCY_Msk) >> FLASH_ACR_LATENCY_Pos);
 637:X-CUBE-AI/App/aiTestUtility.c ****   if ((acr & FLASH_ACR_PRFTEN_Msk) >> FLASH_ACR_PRFTEN_Pos)
 638:X-CUBE-AI/App/aiTestUtility.c ****     mconf |= (1 << 8);
 639:X-CUBE-AI/App/aiTestUtility.c ****   if ((acr & FLASH_ACR_ARTEN_Msk) >> FLASH_ACR_ARTEN_Pos)
 640:X-CUBE-AI/App/aiTestUtility.c ****     mconf |= (1 << 9);
 641:X-CUBE-AI/App/aiTestUtility.c ****   printf(" FLASH conf.  : ACR=0x%08x - Prefetch=%s ART=%s latency=%d\r\n",
 642:X-CUBE-AI/App/aiTestUtility.c ****       (int)acr,
 643:X-CUBE-AI/App/aiTestUtility.c ****       bitToStr((acr & FLASH_ACR_PRFTEN_Msk) >> FLASH_ACR_PRFTEN_Pos),
 644:X-CUBE-AI/App/aiTestUtility.c ****       bitToStr((acr & FLASH_ACR_ARTEN_Msk) >> FLASH_ACR_ARTEN_Pos),
 645:X-CUBE-AI/App/aiTestUtility.c ****       (int)((acr & FLASH_ACR_LATENCY_Msk) >> FLASH_ACR_LATENCY_Pos));
 646:X-CUBE-AI/App/aiTestUtility.c **** #else
 647:X-CUBE-AI/App/aiTestUtility.c ****   mconf |= (3 << 24);  /* H7 conf. */
 648:X-CUBE-AI/App/aiTestUtility.c ****   mconf |= (acr & FLASH_ACR_LATENCY_Msk) >> FLASH_ACR_LATENCY_Pos;
 649:X-CUBE-AI/App/aiTestUtility.c ****   printf(" FLASH conf.  : ACR=0x%08x - latency=%d\r\n",
 650:X-CUBE-AI/App/aiTestUtility.c ****       (int)acr,
 651:X-CUBE-AI/App/aiTestUtility.c ****       (int)((acr & FLASH_ACR_LATENCY_Msk) >> FLASH_ACR_LATENCY_Pos));
 652:X-CUBE-AI/App/aiTestUtility.c **** #endif
 653:X-CUBE-AI/App/aiTestUtility.c **** #if !defined(CORE_CM4)
 654:X-CUBE-AI/App/aiTestUtility.c ****   if (val & SCB_CCR_IC_Msk)
 655:X-CUBE-AI/App/aiTestUtility.c ****     mconf |= (1 << 10);
 656:X-CUBE-AI/App/aiTestUtility.c ****   if (val & SCB_CCR_DC_Msk)
 657:X-CUBE-AI/App/aiTestUtility.c ****     mconf |= (1 << 11);
 658:X-CUBE-AI/App/aiTestUtility.c ****   printf(" CACHE conf.  : $I/$D=(%s,%s)\r\n",
 659:X-CUBE-AI/App/aiTestUtility.c ****       bitToStr(val & SCB_CCR_IC_Msk),
 660:X-CUBE-AI/App/aiTestUtility.c ****       bitToStr(val & SCB_CCR_DC_Msk));
 661:X-CUBE-AI/App/aiTestUtility.c **** #endif
 662:X-CUBE-AI/App/aiTestUtility.c **** #else
 663:X-CUBE-AI/App/aiTestUtility.c **** #if !defined(STM32F3) && !defined(STM32L5) && !defined(STM32MP1)
 664:X-CUBE-AI/App/aiTestUtility.c ****   mconf |= (1 << 24);  /* F4/L4 conf. */
 1322              		.loc 1 664 3 is_stmt 1 view .LVU283
 1323              		.loc 1 664 9 is_stmt 0 view .LVU284
 1324 0138 2B68     		ldr	r3, [r5]
 1325 013a 43F08073 		orr	r3, r3, #16777216
 1326 013e 2B60     		str	r3, [r5]
 665:X-CUBE-AI/App/aiTestUtility.c ****   mconf |= ((acr & FLASH_ACR_LATENCY_Msk) >> FLASH_ACR_LATENCY_Pos);
 1327              		.loc 1 665 3 is_stmt 1 view .LVU285
 1328              		.loc 1 665 43 is_stmt 0 view .LVU286
 1329 0140 04F00F02 		and	r2, r4, #15
 1330              		.loc 1 665 9 view .LVU287
 1331 0144 1343     		orrs	r3, r3, r2
 1332 0146 2B60     		str	r3, [r5]
 666:X-CUBE-AI/App/aiTestUtility.c ****   if ((acr & FLASH_ACR_PRFTEN_Msk) >> FLASH_ACR_PRFTEN_Pos)
 1333              		.loc 1 666 3 is_stmt 1 view .LVU288
ARM GAS  C:\Users\zacfi\AppData\Local\Temp\ccqnkoWq.s 			page 38


 1334              		.loc 1 666 6 is_stmt 0 view .LVU289
 1335 0148 14F4807F 		tst	r4, #256
 1336 014c 02D0     		beq	.L94
 667:X-CUBE-AI/App/aiTestUtility.c ****     mconf |= (1 << 8);
 1337              		.loc 1 667 5 is_stmt 1 view .LVU290
 1338              		.loc 1 667 11 is_stmt 0 view .LVU291
 1339 014e 43F48073 		orr	r3, r3, #256
 1340 0152 2B60     		str	r3, [r5]
 1341              	.L94:
 668:X-CUBE-AI/App/aiTestUtility.c ****   if ((acr & FLASH_ACR_ICEN_Msk) >> FLASH_ACR_ICEN_Pos)
 1342              		.loc 1 668 3 is_stmt 1 view .LVU292
 1343              		.loc 1 668 6 is_stmt 0 view .LVU293
 1344 0154 14F4007F 		tst	r4, #512
 1345 0158 04D0     		beq	.L95
 669:X-CUBE-AI/App/aiTestUtility.c ****     mconf |= (1 << 9);
 1346              		.loc 1 669 5 is_stmt 1 view .LVU294
 1347              		.loc 1 669 11 is_stmt 0 view .LVU295
 1348 015a 414A     		ldr	r2, .L107+36
 1349 015c 1368     		ldr	r3, [r2]
 1350 015e 43F40073 		orr	r3, r3, #512
 1351 0162 1360     		str	r3, [r2]
 1352              	.L95:
 670:X-CUBE-AI/App/aiTestUtility.c ****   if ((acr & FLASH_ACR_DCEN_Msk) >> FLASH_ACR_DCEN_Pos)
 1353              		.loc 1 670 3 is_stmt 1 view .LVU296
 1354              		.loc 1 670 6 is_stmt 0 view .LVU297
 1355 0164 14F4806F 		tst	r4, #1024
 1356 0168 04D0     		beq	.L96
 671:X-CUBE-AI/App/aiTestUtility.c ****     mconf |= (1 << 10);
 1357              		.loc 1 671 5 is_stmt 1 view .LVU298
 1358              		.loc 1 671 11 is_stmt 0 view .LVU299
 1359 016a 3D4A     		ldr	r2, .L107+36
 1360 016c 1368     		ldr	r3, [r2]
 1361 016e 43F48063 		orr	r3, r3, #1024
 1362 0172 1360     		str	r3, [r2]
 1363              	.L96:
 672:X-CUBE-AI/App/aiTestUtility.c ****   printf(" FLASH conf.  : ACR=0x%08x - Prefetch=%s $I/$D=(%s,%s) latency=%d\r\n",
 1364              		.loc 1 672 3 is_stmt 1 view .LVU300
 1365              	.LVL91:
 1366              	.LBB32:
 1367              	.LBI32:
 554:X-CUBE-AI/App/aiTestUtility.c **** {
 1368              		.loc 1 554 29 view .LVU301
 1369              	.LBB33:
 556:X-CUBE-AI/App/aiTestUtility.c ****     return "True";
 1370              		.loc 1 556 3 view .LVU302
 556:X-CUBE-AI/App/aiTestUtility.c ****     return "True";
 1371              		.loc 1 556 6 is_stmt 0 view .LVU303
 1372 0174 14F4807F 		tst	r4, #256
 1373 0178 56D0     		beq	.L102
 557:X-CUBE-AI/App/aiTestUtility.c ****   else
 1374              		.loc 1 557 12 view .LVU304
 1375 017a 3D4A     		ldr	r2, .L107+52
 1376              	.L97:
 1377              	.LVL92:
 557:X-CUBE-AI/App/aiTestUtility.c ****   else
 1378              		.loc 1 557 12 view .LVU305
 1379              	.LBE33:
ARM GAS  C:\Users\zacfi\AppData\Local\Temp\ccqnkoWq.s 			page 39


 1380              	.LBE32:
 1381              	.LBB35:
 1382              	.LBI35:
 554:X-CUBE-AI/App/aiTestUtility.c **** {
 1383              		.loc 1 554 29 is_stmt 1 view .LVU306
 1384              	.LBB36:
 556:X-CUBE-AI/App/aiTestUtility.c ****     return "True";
 1385              		.loc 1 556 3 view .LVU307
 556:X-CUBE-AI/App/aiTestUtility.c ****     return "True";
 1386              		.loc 1 556 6 is_stmt 0 view .LVU308
 1387 017c 14F4007F 		tst	r4, #512
 1388 0180 54D0     		beq	.L103
 557:X-CUBE-AI/App/aiTestUtility.c ****   else
 1389              		.loc 1 557 12 view .LVU309
 1390 0182 3B4B     		ldr	r3, .L107+52
 1391              	.L98:
 1392              	.LVL93:
 557:X-CUBE-AI/App/aiTestUtility.c ****   else
 1393              		.loc 1 557 12 view .LVU310
 1394              	.LBE36:
 1395              	.LBE35:
 1396              	.LBB38:
 1397              	.LBI38:
 554:X-CUBE-AI/App/aiTestUtility.c **** {
 1398              		.loc 1 554 29 is_stmt 1 view .LVU311
 1399              	.LBB39:
 556:X-CUBE-AI/App/aiTestUtility.c ****     return "True";
 1400              		.loc 1 556 3 view .LVU312
 556:X-CUBE-AI/App/aiTestUtility.c ****     return "True";
 1401              		.loc 1 556 6 is_stmt 0 view .LVU313
 1402 0184 14F4806F 		tst	r4, #1024
 1403 0188 52D0     		beq	.L104
 557:X-CUBE-AI/App/aiTestUtility.c ****   else
 1404              		.loc 1 557 12 view .LVU314
 1405 018a 3949     		ldr	r1, .L107+52
 1406              	.L99:
 1407              	.LVL94:
 557:X-CUBE-AI/App/aiTestUtility.c ****   else
 1408              		.loc 1 557 12 view .LVU315
 1409              	.LBE39:
 1410              	.LBE38:
 1411              		.loc 1 672 3 view .LVU316
 1412 018c 04F00F00 		and	r0, r4, #15
 1413 0190 0190     		str	r0, [sp, #4]
 1414 0192 0091     		str	r1, [sp]
 1415 0194 2146     		mov	r1, r4
 1416 0196 3748     		ldr	r0, .L107+56
 1417 0198 FFF7FEFF 		bl	printf
 1418              	.LVL95:
 673:X-CUBE-AI/App/aiTestUtility.c ****       (int)acr,
 674:X-CUBE-AI/App/aiTestUtility.c ****       bitToStr((acr & FLASH_ACR_PRFTEN_Msk) >> FLASH_ACR_PRFTEN_Pos),
 675:X-CUBE-AI/App/aiTestUtility.c ****       bitToStr((acr & FLASH_ACR_ICEN_Msk) >> FLASH_ACR_ICEN_Pos),
 676:X-CUBE-AI/App/aiTestUtility.c ****       bitToStr((acr & FLASH_ACR_DCEN_Msk) >> FLASH_ACR_DCEN_Pos),
 677:X-CUBE-AI/App/aiTestUtility.c ****       (int)((acr & FLASH_ACR_LATENCY_Msk) >> FLASH_ACR_LATENCY_Pos));
 678:X-CUBE-AI/App/aiTestUtility.c **** #endif
 679:X-CUBE-AI/App/aiTestUtility.c **** #if defined(STM32L5)
 680:X-CUBE-AI/App/aiTestUtility.c ****   mconf |= (4 << 24); /* L5 conf. */
ARM GAS  C:\Users\zacfi\AppData\Local\Temp\ccqnkoWq.s 			page 40


 681:X-CUBE-AI/App/aiTestUtility.c ****   printf(" ICACHE       : %s\r\n", bitToStr(READ_BIT(ICACHE->CR, ICACHE_CR_EN)));
 682:X-CUBE-AI/App/aiTestUtility.c ****   if (READ_BIT(ICACHE->CR, ICACHE_CR_EN))
 683:X-CUBE-AI/App/aiTestUtility.c ****     mconf |= (1 << 9);
 684:X-CUBE-AI/App/aiTestUtility.c **** #endif
 685:X-CUBE-AI/App/aiTestUtility.c **** #endif
 686:X-CUBE-AI/App/aiTestUtility.c **** 
 687:X-CUBE-AI/App/aiTestUtility.c ****   /* Init CRC and DWT */
 688:X-CUBE-AI/App/aiTestUtility.c ****   crcIpInit();
 1419              		.loc 1 688 3 is_stmt 1 view .LVU317
 1420              	.LBB41:
 1421              	.LBI41:
 460:X-CUBE-AI/App/aiTestUtility.c **** {
 1422              		.loc 1 460 22 view .LVU318
 1423              	.LBB42:
 468:X-CUBE-AI/App/aiTestUtility.c ****     printf("W: CRC IP clock is NOT enabled\r\n");
 1424              		.loc 1 468 3 view .LVU319
 468:X-CUBE-AI/App/aiTestUtility.c ****     printf("W: CRC IP clock is NOT enabled\r\n");
 1425              		.loc 1 468 8 is_stmt 0 view .LVU320
 1426 019c 364B     		ldr	r3, .L107+60
 1427 019e 1B6B     		ldr	r3, [r3, #48]
 468:X-CUBE-AI/App/aiTestUtility.c ****     printf("W: CRC IP clock is NOT enabled\r\n");
 1428              		.loc 1 468 6 view .LVU321
 1429 01a0 13F4805F 		tst	r3, #4096
 1430 01a4 46D0     		beq	.L106
 1431              	.L100:
 472:X-CUBE-AI/App/aiTestUtility.c **** #endif
 1432              		.loc 1 472 3 is_stmt 1 view .LVU322
 1433              	.LBB43:
 472:X-CUBE-AI/App/aiTestUtility.c **** #endif
 1434              		.loc 1 472 3 view .LVU323
 1435 01a6 0024     		movs	r4, #0
 1436              	.LVL96:
 472:X-CUBE-AI/App/aiTestUtility.c **** #endif
 1437              		.loc 1 472 3 is_stmt 0 view .LVU324
 1438 01a8 0394     		str	r4, [sp, #12]
 472:X-CUBE-AI/App/aiTestUtility.c **** #endif
 1439              		.loc 1 472 3 is_stmt 1 view .LVU325
 1440 01aa 334B     		ldr	r3, .L107+60
 1441 01ac 1A6B     		ldr	r2, [r3, #48]
 1442 01ae 42F48052 		orr	r2, r2, #4096
 1443 01b2 1A63     		str	r2, [r3, #48]
 472:X-CUBE-AI/App/aiTestUtility.c **** #endif
 1444              		.loc 1 472 3 view .LVU326
 1445 01b4 1B6B     		ldr	r3, [r3, #48]
 1446 01b6 03F48053 		and	r3, r3, #4096
 1447 01ba 0393     		str	r3, [sp, #12]
 472:X-CUBE-AI/App/aiTestUtility.c **** #endif
 1448              		.loc 1 472 3 view .LVU327
 1449 01bc 039B     		ldr	r3, [sp, #12]
 1450              	.LBE43:
 472:X-CUBE-AI/App/aiTestUtility.c **** #endif
 1451              		.loc 1 472 3 view .LVU328
 1452              	.LBE42:
 1453              	.LBE41:
 689:X-CUBE-AI/App/aiTestUtility.c ****   dwtIpInit();
 1454              		.loc 1 689 3 view .LVU329
 1455 01be FFF7FEFF 		bl	dwtIpInit
ARM GAS  C:\Users\zacfi\AppData\Local\Temp\ccqnkoWq.s 			page 41


 1456              	.LVL97:
 690:X-CUBE-AI/App/aiTestUtility.c **** 
 691:X-CUBE-AI/App/aiTestUtility.c ****   /* Display HAL tick Calibration */
 692:X-CUBE-AI/App/aiTestUtility.c ****   dwtReset();
 1457              		.loc 1 692 3 view .LVU330
 1458              	.LBB45:
 1459              	.LBI45:
 1460              		.file 2 "X-CUBE-AI/App/aiTestUtility.h"
   1:X-CUBE-AI/App/aiTestUtility.h **** /**
   2:X-CUBE-AI/App/aiTestUtility.h ****  ******************************************************************************
   3:X-CUBE-AI/App/aiTestUtility.h ****  * @file    aiTestUtility.h
   4:X-CUBE-AI/App/aiTestUtility.h ****  * @author  MCD Vertical Application Team
   5:X-CUBE-AI/App/aiTestUtility.h ****  * @brief   STM32 Utility functions for STM32 AI test application
   6:X-CUBE-AI/App/aiTestUtility.h ****  ******************************************************************************
   7:X-CUBE-AI/App/aiTestUtility.h ****  * @attention
   8:X-CUBE-AI/App/aiTestUtility.h ****  *
   9:X-CUBE-AI/App/aiTestUtility.h ****  * <h2><center>&copy; Copyright (c) 2020 STMicroelectronics.
  10:X-CUBE-AI/App/aiTestUtility.h ****  * All rights reserved.</center></h2>
  11:X-CUBE-AI/App/aiTestUtility.h ****  *
  12:X-CUBE-AI/App/aiTestUtility.h ****  * This software component is licensed by ST under Ultimate Liberty license
  13:X-CUBE-AI/App/aiTestUtility.h ****  * SLA0044, the "License"; You may not use this file except in compliance with
  14:X-CUBE-AI/App/aiTestUtility.h ****  * the License. You may obtain a copy of the License at:
  15:X-CUBE-AI/App/aiTestUtility.h ****  *                             www.st.com/SLA0044
  16:X-CUBE-AI/App/aiTestUtility.h ****  *
  17:X-CUBE-AI/App/aiTestUtility.h ****  ******************************************************************************
  18:X-CUBE-AI/App/aiTestUtility.h ****  */
  19:X-CUBE-AI/App/aiTestUtility.h **** 
  20:X-CUBE-AI/App/aiTestUtility.h **** #ifndef __AI_TEST_UTILITY_H__
  21:X-CUBE-AI/App/aiTestUtility.h **** #define __AI_TEST_UTILITY_H__
  22:X-CUBE-AI/App/aiTestUtility.h **** 
  23:X-CUBE-AI/App/aiTestUtility.h **** #include <stdint.h>
  24:X-CUBE-AI/App/aiTestUtility.h **** #include <stdbool.h>
  25:X-CUBE-AI/App/aiTestUtility.h **** 
  26:X-CUBE-AI/App/aiTestUtility.h **** #include <bsp_ai.h>  /* generated STM32 platform file to import the HAL and the UART definition */
  27:X-CUBE-AI/App/aiTestUtility.h **** 
  28:X-CUBE-AI/App/aiTestUtility.h **** 
  29:X-CUBE-AI/App/aiTestUtility.h **** #ifdef __cplusplus
  30:X-CUBE-AI/App/aiTestUtility.h **** extern "C" {
  31:X-CUBE-AI/App/aiTestUtility.h **** #endif
  32:X-CUBE-AI/App/aiTestUtility.h **** 
  33:X-CUBE-AI/App/aiTestUtility.h **** #if defined (__ARMCC_VERSION) && (__ARMCC_VERSION >= 6010050) /* Keil ARM Compiler 6 toolchain */
  34:X-CUBE-AI/App/aiTestUtility.h **** #define _APP_STACK_MONITOR_ 0   /* not yet supported */
  35:X-CUBE-AI/App/aiTestUtility.h **** #define _APP_HEAP_MONITOR_  0   /* not yet supported */	
  36:X-CUBE-AI/App/aiTestUtility.h **** #elif defined(__GNUC__) && !defined (__ARMCC_VERSION) /* GNU GCC toolchain */
  37:X-CUBE-AI/App/aiTestUtility.h **** #define _APP_STACK_MONITOR_ 1
  38:X-CUBE-AI/App/aiTestUtility.h **** #define _APP_HEAP_MONITOR_  1
  39:X-CUBE-AI/App/aiTestUtility.h **** #elif defined (__ICCARM__) /* IAR toolchain */
  40:X-CUBE-AI/App/aiTestUtility.h **** #define _APP_STACK_MONITOR_ 1
  41:X-CUBE-AI/App/aiTestUtility.h **** #define _APP_HEAP_MONITOR_  0   /* not yet supported */
  42:X-CUBE-AI/App/aiTestUtility.h **** #else
  43:X-CUBE-AI/App/aiTestUtility.h **** #define _APP_STACK_MONITOR_ 0   /* not yet supported */
  44:X-CUBE-AI/App/aiTestUtility.h **** #define _APP_HEAP_MONITOR_  0   /* not yet supported */
  45:X-CUBE-AI/App/aiTestUtility.h **** #endif
  46:X-CUBE-AI/App/aiTestUtility.h **** 
  47:X-CUBE-AI/App/aiTestUtility.h **** 
  48:X-CUBE-AI/App/aiTestUtility.h **** #if defined(CHECK_STM32_FAMILY)
  49:X-CUBE-AI/App/aiTestUtility.h **** #if !defined(STM32F7) && !defined(STM32L4) && !defined(STM32L5) && !defined(STM32F4) && !defined(ST
ARM GAS  C:\Users\zacfi\AppData\Local\Temp\ccqnkoWq.s 			page 42


  50:X-CUBE-AI/App/aiTestUtility.h **** #error Only STM32H7, STM32F7, STM32F4, STM32L4, STM32L5 or STM32F3 device are supported
  51:X-CUBE-AI/App/aiTestUtility.h **** #endif
  52:X-CUBE-AI/App/aiTestUtility.h **** #endif
  53:X-CUBE-AI/App/aiTestUtility.h **** 
  54:X-CUBE-AI/App/aiTestUtility.h **** /* -----------------------------------------------------------------------------
  55:X-CUBE-AI/App/aiTestUtility.h ****  * MISC definitions
  56:X-CUBE-AI/App/aiTestUtility.h ****  * -----------------------------------------------------------------------------
  57:X-CUBE-AI/App/aiTestUtility.h ****  */
  58:X-CUBE-AI/App/aiTestUtility.h **** 
  59:X-CUBE-AI/App/aiTestUtility.h **** #define _CONCAT_ARG(a, b)     a ## b
  60:X-CUBE-AI/App/aiTestUtility.h **** #define _CONCAT(a, b)         _CONCAT_ARG(a, b)
  61:X-CUBE-AI/App/aiTestUtility.h **** 
  62:X-CUBE-AI/App/aiTestUtility.h **** #if defined(_MSC_VER)
  63:X-CUBE-AI/App/aiTestUtility.h ****   #define MEM_ALIGNED(x)
  64:X-CUBE-AI/App/aiTestUtility.h **** #elif defined(__ICCARM__) || defined (__IAR_SYSTEMS_ICC__)
  65:X-CUBE-AI/App/aiTestUtility.h ****   #define MEM_ALIGNED(x)         _CONCAT(MEM_ALIGNED_,x)
  66:X-CUBE-AI/App/aiTestUtility.h ****   #define MEM_ALIGNED_1          _Pragma("data_alignment = 1")
  67:X-CUBE-AI/App/aiTestUtility.h ****   #define MEM_ALIGNED_2          _Pragma("data_alignment = 2")
  68:X-CUBE-AI/App/aiTestUtility.h ****   #define MEM_ALIGNED_4          _Pragma("data_alignment = 4")
  69:X-CUBE-AI/App/aiTestUtility.h ****   #define MEM_ALIGNED_8          _Pragma("data_alignment = 8")
  70:X-CUBE-AI/App/aiTestUtility.h ****   #define MEM_ALIGNED_16         _Pragma("data_alignment = 16")
  71:X-CUBE-AI/App/aiTestUtility.h **** #elif defined(__CC_ARM)
  72:X-CUBE-AI/App/aiTestUtility.h ****   #define MEM_ALIGNED(x)         __attribute__((aligned (x)))
  73:X-CUBE-AI/App/aiTestUtility.h **** #elif defined(__GNUC__)
  74:X-CUBE-AI/App/aiTestUtility.h ****   #define MEM_ALIGNED(x)         __attribute__((aligned(x)))
  75:X-CUBE-AI/App/aiTestUtility.h **** #else
  76:X-CUBE-AI/App/aiTestUtility.h ****   #define MEM_ALIGNED(x)
  77:X-CUBE-AI/App/aiTestUtility.h **** #endif
  78:X-CUBE-AI/App/aiTestUtility.h **** 
  79:X-CUBE-AI/App/aiTestUtility.h **** /* -----------------------------------------------------------------------------
  80:X-CUBE-AI/App/aiTestUtility.h ****  * HEAP monitor functions
  81:X-CUBE-AI/App/aiTestUtility.h ****  * -----------------------------------------------------------------------------
  82:X-CUBE-AI/App/aiTestUtility.h ****  */
  83:X-CUBE-AI/App/aiTestUtility.h **** 
  84:X-CUBE-AI/App/aiTestUtility.h **** #define _IO_MALLOC_TRACK_MODE 0  /* allows to track the allocated/released @/s */
  85:X-CUBE-AI/App/aiTestUtility.h **** #define _IO_MALLOC_TRACK_DEPTH_SIZE (16)
  86:X-CUBE-AI/App/aiTestUtility.h **** 
  87:X-CUBE-AI/App/aiTestUtility.h **** struct io_malloc {
  88:X-CUBE-AI/App/aiTestUtility.h ****   uint32_t cfg;           /* configuration and state */
  89:X-CUBE-AI/App/aiTestUtility.h ****   uint32_t alloc;         /* accumulated size of allocated memory */
  90:X-CUBE-AI/App/aiTestUtility.h ****   uint32_t free;          /* accumulated size of freed memory */
  91:X-CUBE-AI/App/aiTestUtility.h ****   uint32_t alloc_req;     /* number of requested alloc */
  92:X-CUBE-AI/App/aiTestUtility.h ****   uint32_t free_req;      /* number of requested free */
  93:X-CUBE-AI/App/aiTestUtility.h ****   uint32_t max;           /* maximum allocated memory */
  94:X-CUBE-AI/App/aiTestUtility.h ****   uint32_t used;          /* current allocated memory */
  95:X-CUBE-AI/App/aiTestUtility.h **** #if _IO_MALLOC_TRACK_MODE == 1
  96:X-CUBE-AI/App/aiTestUtility.h ****   void* a_ptr[_IO_MALLOC_TRACK_DEPTH_SIZE];
  97:X-CUBE-AI/App/aiTestUtility.h ****   size_t a_s[_IO_MALLOC_TRACK_DEPTH_SIZE];
  98:X-CUBE-AI/App/aiTestUtility.h ****   int a_idx;
  99:X-CUBE-AI/App/aiTestUtility.h ****   void *f_ptr[_IO_MALLOC_TRACK_DEPTH_SIZE];
 100:X-CUBE-AI/App/aiTestUtility.h ****   size_t f_s[_IO_MALLOC_TRACK_DEPTH_SIZE];
 101:X-CUBE-AI/App/aiTestUtility.h ****   int f_idx;
 102:X-CUBE-AI/App/aiTestUtility.h **** #endif
 103:X-CUBE-AI/App/aiTestUtility.h **** };
 104:X-CUBE-AI/App/aiTestUtility.h **** 
 105:X-CUBE-AI/App/aiTestUtility.h **** extern struct io_malloc io_malloc;
 106:X-CUBE-AI/App/aiTestUtility.h **** 
ARM GAS  C:\Users\zacfi\AppData\Local\Temp\ccqnkoWq.s 			page 43


 107:X-CUBE-AI/App/aiTestUtility.h **** 
 108:X-CUBE-AI/App/aiTestUtility.h **** #if defined(__GNUC__) && !defined(__ARMCC_VERSION)
 109:X-CUBE-AI/App/aiTestUtility.h **** #define MON_ALLOC_RESET()\
 110:X-CUBE-AI/App/aiTestUtility.h ****     memset(&io_malloc, 0, sizeof(struct io_malloc));\
 111:X-CUBE-AI/App/aiTestUtility.h ****     /* force a call of wrap functions */\
 112:X-CUBE-AI/App/aiTestUtility.h ****     free(malloc(10))
 113:X-CUBE-AI/App/aiTestUtility.h **** #else
 114:X-CUBE-AI/App/aiTestUtility.h **** #define MON_ALLOC_RESET()
 115:X-CUBE-AI/App/aiTestUtility.h **** #endif
 116:X-CUBE-AI/App/aiTestUtility.h **** 
 117:X-CUBE-AI/App/aiTestUtility.h **** #if defined(_APP_HEAP_MONITOR_) && _APP_HEAP_MONITOR_ == 1
 118:X-CUBE-AI/App/aiTestUtility.h **** 
 119:X-CUBE-AI/App/aiTestUtility.h **** #define MON_ALLOC_ENABLE() io_malloc.cfg |= 1UL
 120:X-CUBE-AI/App/aiTestUtility.h **** 
 121:X-CUBE-AI/App/aiTestUtility.h **** #define MON_ALLOC_DISABLE() io_malloc.cfg &= ~1UL
 122:X-CUBE-AI/App/aiTestUtility.h **** 
 123:X-CUBE-AI/App/aiTestUtility.h **** #define MON_ALLOC_REPORT() \
 124:X-CUBE-AI/App/aiTestUtility.h ****     printf(" used heap    : %ld:%ld %ld:%ld (req:allocated,req:released) max=%ld cur=%ld (cfg=%ld)\
 125:X-CUBE-AI/App/aiTestUtility.h ****         io_malloc.alloc_req, io_malloc.alloc, \
 126:X-CUBE-AI/App/aiTestUtility.h ****         io_malloc.free_req, io_malloc.free, \
 127:X-CUBE-AI/App/aiTestUtility.h ****         io_malloc.max, io_malloc.used, \
 128:X-CUBE-AI/App/aiTestUtility.h ****         (io_malloc.cfg & (3 << 1)) >> 1)
 129:X-CUBE-AI/App/aiTestUtility.h **** 
 130:X-CUBE-AI/App/aiTestUtility.h **** #define MON_ALLOC_MAX_USED() (int)io_malloc.max
 131:X-CUBE-AI/App/aiTestUtility.h **** #define MON_ALLOC_USED() (int)io_malloc.used
 132:X-CUBE-AI/App/aiTestUtility.h **** 
 133:X-CUBE-AI/App/aiTestUtility.h **** #else
 134:X-CUBE-AI/App/aiTestUtility.h **** 
 135:X-CUBE-AI/App/aiTestUtility.h **** #define MON_ALLOC_ENABLE()
 136:X-CUBE-AI/App/aiTestUtility.h **** #define MON_ALLOC_DISABLE()
 137:X-CUBE-AI/App/aiTestUtility.h **** 
 138:X-CUBE-AI/App/aiTestUtility.h **** #define MON_ALLOC_REPORT() \
 139:X-CUBE-AI/App/aiTestUtility.h ****     printf(" used heap    : DISABLED or NOT YET SUPPORTED\r\n")
 140:X-CUBE-AI/App/aiTestUtility.h **** 
 141:X-CUBE-AI/App/aiTestUtility.h **** #define MON_ALLOC_MAX_USED() (-1)
 142:X-CUBE-AI/App/aiTestUtility.h **** #define MON_ALLOC_USED() (-1)
 143:X-CUBE-AI/App/aiTestUtility.h **** 
 144:X-CUBE-AI/App/aiTestUtility.h **** #endif
 145:X-CUBE-AI/App/aiTestUtility.h **** 
 146:X-CUBE-AI/App/aiTestUtility.h **** 
 147:X-CUBE-AI/App/aiTestUtility.h **** /* -----------------------------------------------------------------------------
 148:X-CUBE-AI/App/aiTestUtility.h ****  * STACK monitor functions
 149:X-CUBE-AI/App/aiTestUtility.h ****  * -----------------------------------------------------------------------------
 150:X-CUBE-AI/App/aiTestUtility.h ****  */
 151:X-CUBE-AI/App/aiTestUtility.h **** 
 152:X-CUBE-AI/App/aiTestUtility.h **** struct io_stack {
 153:X-CUBE-AI/App/aiTestUtility.h ****   uint32_t ctrl;
 154:X-CUBE-AI/App/aiTestUtility.h ****   bool stack_mon;
 155:X-CUBE-AI/App/aiTestUtility.h ****   int32_t  susage;
 156:X-CUBE-AI/App/aiTestUtility.h **** 
 157:X-CUBE-AI/App/aiTestUtility.h ****   uint32_t ustack_size; /* used stack before test */
 158:X-CUBE-AI/App/aiTestUtility.h ****   uint32_t estack;      /* end of stack @ */
 159:X-CUBE-AI/App/aiTestUtility.h ****   uint32_t mstack_size; /* minimal master stack size */
 160:X-CUBE-AI/App/aiTestUtility.h ****   uint32_t cstack;      /* current stack @ */
 161:X-CUBE-AI/App/aiTestUtility.h ****   uint32_t bstack;      /* base stack @ */
 162:X-CUBE-AI/App/aiTestUtility.h **** };
 163:X-CUBE-AI/App/aiTestUtility.h **** 
ARM GAS  C:\Users\zacfi\AppData\Local\Temp\ccqnkoWq.s 			page 44


 164:X-CUBE-AI/App/aiTestUtility.h **** extern struct io_stack io_stack;
 165:X-CUBE-AI/App/aiTestUtility.h **** 
 166:X-CUBE-AI/App/aiTestUtility.h **** void stackMonInit(uint32_t ctrl, uint32_t cstack, uint32_t msize);
 167:X-CUBE-AI/App/aiTestUtility.h **** 
 168:X-CUBE-AI/App/aiTestUtility.h **** #if defined(_APP_STACK_MONITOR_) && _APP_STACK_MONITOR_ == 1
 169:X-CUBE-AI/App/aiTestUtility.h **** 
 170:X-CUBE-AI/App/aiTestUtility.h **** #define MON_STACK_INIT() stackMonInit(__get_CONTROL(), __get_MSP(), MIN_STACK_SIZE)
 171:X-CUBE-AI/App/aiTestUtility.h **** 
 172:X-CUBE-AI/App/aiTestUtility.h **** #define MON_STACK_MARK()\
 173:X-CUBE-AI/App/aiTestUtility.h ****     if (io_stack.stack_mon) {\
 174:X-CUBE-AI/App/aiTestUtility.h ****       uint32_t *pw =  (uint32_t*)((io_stack.bstack + 3) & (~3));\
 175:X-CUBE-AI/App/aiTestUtility.h ****       while ((uint32_t)pw < io_stack.cstack) {\
 176:X-CUBE-AI/App/aiTestUtility.h ****         *pw = 0xDEDEDEDE;\
 177:X-CUBE-AI/App/aiTestUtility.h ****         pw++;\
 178:X-CUBE-AI/App/aiTestUtility.h ****       }\
 179:X-CUBE-AI/App/aiTestUtility.h ****     }
 180:X-CUBE-AI/App/aiTestUtility.h **** 
 181:X-CUBE-AI/App/aiTestUtility.h **** #define MON_STACK_CHECK0()\
 182:X-CUBE-AI/App/aiTestUtility.h ****     if (__get_MSP() != io_stack.cstack) {\
 183:X-CUBE-AI/App/aiTestUtility.h ****       printf("E: !current stack address is not coherent 0x%08lx instead 0x%08lx\r\n",\
 184:X-CUBE-AI/App/aiTestUtility.h ****           __get_MSP(), io_stack.cstack);\
 185:X-CUBE-AI/App/aiTestUtility.h ****     }
 186:X-CUBE-AI/App/aiTestUtility.h **** 
 187:X-CUBE-AI/App/aiTestUtility.h **** #define MON_STACK_EVALUATE()\
 188:X-CUBE-AI/App/aiTestUtility.h ****     /* Calculating the used stack */\
 189:X-CUBE-AI/App/aiTestUtility.h ****     io_stack.susage = 0UL;\
 190:X-CUBE-AI/App/aiTestUtility.h ****     if (io_stack.stack_mon) {\
 191:X-CUBE-AI/App/aiTestUtility.h ****       uint32_t rstack = io_stack.mstack_size - io_stack.ustack_size;\
 192:X-CUBE-AI/App/aiTestUtility.h ****       uint32_t *pr =  (uint32_t*)((io_stack.bstack + 3) & (~3));\
 193:X-CUBE-AI/App/aiTestUtility.h ****       bool overflow = false;\
 194:X-CUBE-AI/App/aiTestUtility.h ****       \
 195:X-CUBE-AI/App/aiTestUtility.h ****       /* check potential stack overflow with 8 last words*/\
 196:X-CUBE-AI/App/aiTestUtility.h ****     for (int i = 0; i < 8; i++) {\
 197:X-CUBE-AI/App/aiTestUtility.h ****       if (*pr != 0xDEDEDEDE)\
 198:X-CUBE-AI/App/aiTestUtility.h ****       overflow = true;\
 199:X-CUBE-AI/App/aiTestUtility.h ****       pr++;\
 200:X-CUBE-AI/App/aiTestUtility.h ****     }\
 201:X-CUBE-AI/App/aiTestUtility.h ****     if (!overflow) {\
 202:X-CUBE-AI/App/aiTestUtility.h ****       io_stack.susage = 8*4;\
 203:X-CUBE-AI/App/aiTestUtility.h ****       while ((*pr == 0xDEDEDEDE) && ((uint32_t)pr < io_stack.cstack)) { pr++; io_stack.susage += 4;
 204:X-CUBE-AI/App/aiTestUtility.h ****       io_stack.susage = rstack - io_stack.susage;\
 205:X-CUBE-AI/App/aiTestUtility.h ****     } else {\
 206:X-CUBE-AI/App/aiTestUtility.h ****       io_stack.susage = -1;\
 207:X-CUBE-AI/App/aiTestUtility.h ****       printf("E: !stack overflow detected > %ld\r\n", rstack);\
 208:X-CUBE-AI/App/aiTestUtility.h ****       printf("note: MIN_STACK_SIZE value/definition should be verified (app_x-cube-ai.h & linker fi
 209:X-CUBE-AI/App/aiTestUtility.h ****     }\
 210:X-CUBE-AI/App/aiTestUtility.h ****     }
 211:X-CUBE-AI/App/aiTestUtility.h **** 
 212:X-CUBE-AI/App/aiTestUtility.h **** #define MON_STACK_REPORT()\
 213:X-CUBE-AI/App/aiTestUtility.h ****     if (io_stack.stack_mon)\
 214:X-CUBE-AI/App/aiTestUtility.h ****     printf(" used stack   : %ld bytes\r\n", io_stack.susage);\
 215:X-CUBE-AI/App/aiTestUtility.h ****     else\
 216:X-CUBE-AI/App/aiTestUtility.h ****     printf(" used stack   : NOT CALCULATED\r\n")
 217:X-CUBE-AI/App/aiTestUtility.h **** 
 218:X-CUBE-AI/App/aiTestUtility.h **** #define MON_STACK_STATE(msg)\
 219:X-CUBE-AI/App/aiTestUtility.h ****     printf("D: %s (0x%08lx-0x%08lx %ld/%ld ctrl=0x%08lx\r\n",msg,\
 220:X-CUBE-AI/App/aiTestUtility.h ****         io_stack.estack, io_stack.cstack, io_stack.ustack_size, io_stack.mstack_size, io_stack.ctrl
ARM GAS  C:\Users\zacfi\AppData\Local\Temp\ccqnkoWq.s 			page 45


 221:X-CUBE-AI/App/aiTestUtility.h **** 
 222:X-CUBE-AI/App/aiTestUtility.h **** #else
 223:X-CUBE-AI/App/aiTestUtility.h **** 
 224:X-CUBE-AI/App/aiTestUtility.h **** #define MON_STACK_INIT()
 225:X-CUBE-AI/App/aiTestUtility.h **** #define MON_STACK_MARK()
 226:X-CUBE-AI/App/aiTestUtility.h **** #define MON_STACK_CHECK0()
 227:X-CUBE-AI/App/aiTestUtility.h **** #define MON_STACK_EVALUATE()
 228:X-CUBE-AI/App/aiTestUtility.h **** 
 229:X-CUBE-AI/App/aiTestUtility.h **** #define MON_STACK_REPORT()\
 230:X-CUBE-AI/App/aiTestUtility.h ****     printf(" used stack   : DISABLED\r\n");
 231:X-CUBE-AI/App/aiTestUtility.h **** 
 232:X-CUBE-AI/App/aiTestUtility.h **** #define MON_STACK_STATE(msg);
 233:X-CUBE-AI/App/aiTestUtility.h **** 
 234:X-CUBE-AI/App/aiTestUtility.h **** #endif
 235:X-CUBE-AI/App/aiTestUtility.h **** 
 236:X-CUBE-AI/App/aiTestUtility.h **** 
 237:X-CUBE-AI/App/aiTestUtility.h **** /* -----------------------------------------------------------------------------
 238:X-CUBE-AI/App/aiTestUtility.h ****  * Timer/clock count services
 239:X-CUBE-AI/App/aiTestUtility.h ****  * -----------------------------------------------------------------------------
 240:X-CUBE-AI/App/aiTestUtility.h ****  */
 241:X-CUBE-AI/App/aiTestUtility.h **** 
 242:X-CUBE-AI/App/aiTestUtility.h **** struct dwtTime {
 243:X-CUBE-AI/App/aiTestUtility.h ****   uint32_t fcpu;
 244:X-CUBE-AI/App/aiTestUtility.h ****   int s;
 245:X-CUBE-AI/App/aiTestUtility.h ****   int ms;
 246:X-CUBE-AI/App/aiTestUtility.h ****   int us;
 247:X-CUBE-AI/App/aiTestUtility.h **** };
 248:X-CUBE-AI/App/aiTestUtility.h **** 
 249:X-CUBE-AI/App/aiTestUtility.h **** void dwtIpInit(void);
 250:X-CUBE-AI/App/aiTestUtility.h **** 
 251:X-CUBE-AI/App/aiTestUtility.h **** __STATIC_INLINE void dwtReset(void) {
 1461              		.loc 2 251 22 view .LVU331
 1462              	.LBB46:
 252:X-CUBE-AI/App/aiTestUtility.h ****   DWT->CYCCNT = 0; /* Clear DWT cycle counter */
 1463              		.loc 2 252 3 view .LVU332
 1464              		.loc 2 252 15 is_stmt 0 view .LVU333
 1465 01c2 2E4D     		ldr	r5, .L107+64
 1466 01c4 6C60     		str	r4, [r5, #4]
 1467              	.LBE46:
 1468              	.LBE45:
 693:X-CUBE-AI/App/aiTestUtility.c ****   HAL_Delay(100);
 1469              		.loc 1 693 3 is_stmt 1 view .LVU334
 1470 01c6 6420     		movs	r0, #100
 1471 01c8 FFF7FEFF 		bl	HAL_Delay
 1472              	.LVL98:
 694:X-CUBE-AI/App/aiTestUtility.c ****   st = dwtGetCycles();
 1473              		.loc 1 694 3 view .LVU335
 1474              	.LBB47:
 1475              	.LBI47:
 253:X-CUBE-AI/App/aiTestUtility.h **** }
 254:X-CUBE-AI/App/aiTestUtility.h **** 
 255:X-CUBE-AI/App/aiTestUtility.h **** __STATIC_INLINE  uint32_t dwtGetCycles(void) {
 1476              		.loc 2 255 27 view .LVU336
 1477              	.LBB48:
 256:X-CUBE-AI/App/aiTestUtility.h ****   return DWT->CYCCNT;
 1478              		.loc 2 256 3 view .LVU337
 1479              		.loc 2 256 13 is_stmt 0 view .LVU338
ARM GAS  C:\Users\zacfi\AppData\Local\Temp\ccqnkoWq.s 			page 46


 1480 01cc 6868     		ldr	r0, [r5, #4]
 1481              	.LVL99:
 1482              		.loc 2 256 13 view .LVU339
 1483              	.LBE48:
 1484              	.LBE47:
 695:X-CUBE-AI/App/aiTestUtility.c ****   dwtCyclesToTime(st/100, &t);
 1485              		.loc 1 695 3 is_stmt 1 view .LVU340
 1486              		.loc 1 695 21 is_stmt 0 view .LVU341
 1487 01ce 2C4B     		ldr	r3, .L107+68
 1488 01d0 A3FB0030 		umull	r3, r0, r3, r0
 1489              	.LVL100:
 1490              		.loc 1 695 3 view .LVU342
 1491 01d4 04AA     		add	r2, sp, #16
 1492 01d6 4009     		lsrs	r0, r0, #5
 1493 01d8 2146     		mov	r1, r4
 1494 01da FFF7FEFF 		bl	dwtCyclesToTime
 1495              	.LVL101:
 696:X-CUBE-AI/App/aiTestUtility.c **** 
 697:X-CUBE-AI/App/aiTestUtility.c ****   printf(" Calibration  : HAL_Delay(1)=%d.%03d ms\r\n",
 1496              		.loc 1 697 3 is_stmt 1 view .LVU343
 1497 01de 079A     		ldr	r2, [sp, #28]
 1498 01e0 0599     		ldr	r1, [sp, #20]
 1499 01e2 069B     		ldr	r3, [sp, #24]
 1500 01e4 6420     		movs	r0, #100
 1501 01e6 00FB0131 		mla	r1, r0, r1, r3
 1502 01ea 2648     		ldr	r0, .L107+72
 1503 01ec FFF7FEFF 		bl	printf
 1504              	.LVL102:
 698:X-CUBE-AI/App/aiTestUtility.c ****       t.s * 100 + t.ms, t.us);
 699:X-CUBE-AI/App/aiTestUtility.c **** }
 1505              		.loc 1 699 1 is_stmt 0 view .LVU344
 1506 01f0 08B0     		add	sp, sp, #32
 1507              	.LCFI20:
 1508              		.cfi_remember_state
 1509              		.cfi_def_cfa_offset 16
 1510              		@ sp needed
 1511 01f2 70BD     		pop	{r4, r5, r6, pc}
 1512              	.LVL103:
 1513              	.L90:
 1514              	.LCFI21:
 1515              		.cfi_restore_state
 1516              	.LBB49:
 1517              	.LBB30:
 533:X-CUBE-AI/App/aiTestUtility.c ****   case 0x423: str = "STM32F401xB/C"; break;
 1518              		.loc 1 533 15 is_stmt 1 view .LVU345
 533:X-CUBE-AI/App/aiTestUtility.c ****   case 0x423: str = "STM32F401xB/C"; break;
 1519              		.loc 1 533 38 view .LVU346
 533:X-CUBE-AI/App/aiTestUtility.c ****   case 0x423: str = "STM32F401xB/C"; break;
 1520              		.loc 1 533 19 is_stmt 0 view .LVU347
 1521 01f4 244E     		ldr	r6, .L107+76
 533:X-CUBE-AI/App/aiTestUtility.c ****   case 0x423: str = "STM32F401xB/C"; break;
 1522              		.loc 1 533 3 view .LVU348
 1523 01f6 7EE7     		b	.L87
 1524              	.LVL104:
 1525              	.L91:
 534:X-CUBE-AI/App/aiTestUtility.c ****   case 0x433: str = "STM32F401xD/E"; break;
 1526              		.loc 1 534 15 is_stmt 1 view .LVU349
ARM GAS  C:\Users\zacfi\AppData\Local\Temp\ccqnkoWq.s 			page 47


 534:X-CUBE-AI/App/aiTestUtility.c ****   case 0x433: str = "STM32F401xD/E"; break;
 1527              		.loc 1 534 38 view .LVU350
 534:X-CUBE-AI/App/aiTestUtility.c ****   case 0x433: str = "STM32F401xD/E"; break;
 1528              		.loc 1 534 19 is_stmt 0 view .LVU351
 1529 01f8 244E     		ldr	r6, .L107+80
 534:X-CUBE-AI/App/aiTestUtility.c ****   case 0x433: str = "STM32F401xD/E"; break;
 1530              		.loc 1 534 3 view .LVU352
 1531 01fa 7CE7     		b	.L87
 1532              	.LVL105:
 1533              	.L89:
 535:X-CUBE-AI/App/aiTestUtility.c ****   case 0x435: str = "STM32L43xxx"; break;
 1534              		.loc 1 535 15 is_stmt 1 view .LVU353
 535:X-CUBE-AI/App/aiTestUtility.c ****   case 0x435: str = "STM32L43xxx"; break;
 1535              		.loc 1 535 38 view .LVU354
 535:X-CUBE-AI/App/aiTestUtility.c ****   case 0x435: str = "STM32L43xxx"; break;
 1536              		.loc 1 535 19 is_stmt 0 view .LVU355
 1537 01fc 244E     		ldr	r6, .L107+84
 535:X-CUBE-AI/App/aiTestUtility.c ****   case 0x435: str = "STM32L43xxx"; break;
 1538              		.loc 1 535 3 view .LVU356
 1539 01fe 7AE7     		b	.L87
 1540              	.LVL106:
 1541              	.L88:
 536:X-CUBE-AI/App/aiTestUtility.c ****   case 0x462: str = "STM32L45xxx"; break;
 1542              		.loc 1 536 15 is_stmt 1 view .LVU357
 536:X-CUBE-AI/App/aiTestUtility.c ****   case 0x462: str = "STM32L45xxx"; break;
 1543              		.loc 1 536 36 view .LVU358
 536:X-CUBE-AI/App/aiTestUtility.c ****   case 0x462: str = "STM32L45xxx"; break;
 1544              		.loc 1 536 19 is_stmt 0 view .LVU359
 1545 0200 244E     		ldr	r6, .L107+88
 536:X-CUBE-AI/App/aiTestUtility.c ****   case 0x462: str = "STM32L45xxx"; break;
 1546              		.loc 1 536 3 view .LVU360
 1547 0202 78E7     		b	.L87
 1548              	.LVL107:
 1549              	.L82:
 537:X-CUBE-AI/App/aiTestUtility.c ****   case 0x415: str = "STM32L4x6xx"; break;
 1550              		.loc 1 537 15 is_stmt 1 view .LVU361
 537:X-CUBE-AI/App/aiTestUtility.c ****   case 0x415: str = "STM32L4x6xx"; break;
 1551              		.loc 1 537 36 view .LVU362
 537:X-CUBE-AI/App/aiTestUtility.c ****   case 0x415: str = "STM32L4x6xx"; break;
 1552              		.loc 1 537 19 is_stmt 0 view .LVU363
 1553 0204 244E     		ldr	r6, .L107+92
 537:X-CUBE-AI/App/aiTestUtility.c ****   case 0x415: str = "STM32L4x6xx"; break;
 1554              		.loc 1 537 3 view .LVU364
 1555 0206 76E7     		b	.L87
 1556              	.LVL108:
 1557              	.L93:
 538:X-CUBE-AI/App/aiTestUtility.c ****   case 0x470: str = "STM32L4Rxxx"; break;
 1558              		.loc 1 538 15 is_stmt 1 view .LVU365
 538:X-CUBE-AI/App/aiTestUtility.c ****   case 0x470: str = "STM32L4Rxxx"; break;
 1559              		.loc 1 538 36 view .LVU366
 538:X-CUBE-AI/App/aiTestUtility.c ****   case 0x470: str = "STM32L4Rxxx"; break;
 1560              		.loc 1 538 19 is_stmt 0 view .LVU367
 1561 0208 244E     		ldr	r6, .L107+96
 538:X-CUBE-AI/App/aiTestUtility.c ****   case 0x470: str = "STM32L4Rxxx"; break;
 1562              		.loc 1 538 3 view .LVU368
 1563 020a 74E7     		b	.L87
 1564              	.LVL109:
ARM GAS  C:\Users\zacfi\AppData\Local\Temp\ccqnkoWq.s 			page 48


 1565              	.L81:
 539:X-CUBE-AI/App/aiTestUtility.c ****   case 0x472: str = "STM32L5[5,6]2xx"; break;
 1566              		.loc 1 539 15 is_stmt 1 view .LVU369
 539:X-CUBE-AI/App/aiTestUtility.c ****   case 0x472: str = "STM32L5[5,6]2xx"; break;
 1567              		.loc 1 539 36 view .LVU370
 539:X-CUBE-AI/App/aiTestUtility.c ****   case 0x472: str = "STM32L5[5,6]2xx"; break;
 1568              		.loc 1 539 19 is_stmt 0 view .LVU371
 1569 020c 244E     		ldr	r6, .L107+100
 539:X-CUBE-AI/App/aiTestUtility.c ****   case 0x472: str = "STM32L5[5,6]2xx"; break;
 1570              		.loc 1 539 3 view .LVU372
 1571 020e 72E7     		b	.L87
 1572              	.LVL110:
 1573              	.L79:
 540:X-CUBE-AI/App/aiTestUtility.c ****   case 0x449: str = "STM32F74xxx"; break;
 1574              		.loc 1 540 15 is_stmt 1 view .LVU373
 540:X-CUBE-AI/App/aiTestUtility.c ****   case 0x449: str = "STM32F74xxx"; break;
 1575              		.loc 1 540 40 view .LVU374
 540:X-CUBE-AI/App/aiTestUtility.c ****   case 0x449: str = "STM32F74xxx"; break;
 1576              		.loc 1 540 19 is_stmt 0 view .LVU375
 1577 0210 244E     		ldr	r6, .L107+104
 540:X-CUBE-AI/App/aiTestUtility.c ****   case 0x449: str = "STM32F74xxx"; break;
 1578              		.loc 1 540 3 view .LVU376
 1579 0212 70E7     		b	.L87
 1580              	.LVL111:
 1581              	.L85:
 541:X-CUBE-AI/App/aiTestUtility.c ****   case 0x450: str = "STM32H743/53/50xx and STM32H745/55/47/57xx"; break; /* see RM0433 & RM0399 */
 1582              		.loc 1 541 15 is_stmt 1 view .LVU377
 541:X-CUBE-AI/App/aiTestUtility.c ****   case 0x450: str = "STM32H743/53/50xx and STM32H745/55/47/57xx"; break; /* see RM0433 & RM0399 */
 1583              		.loc 1 541 36 view .LVU378
 541:X-CUBE-AI/App/aiTestUtility.c ****   case 0x450: str = "STM32H743/53/50xx and STM32H745/55/47/57xx"; break; /* see RM0433 & RM0399 */
 1584              		.loc 1 541 19 is_stmt 0 view .LVU379
 1585 0214 244E     		ldr	r6, .L107+108
 541:X-CUBE-AI/App/aiTestUtility.c ****   case 0x450: str = "STM32H743/53/50xx and STM32H745/55/47/57xx"; break; /* see RM0433 & RM0399 */
 1586              		.loc 1 541 3 view .LVU380
 1587 0216 6EE7     		b	.L87
 1588              	.LVL112:
 1589              	.L84:
 542:X-CUBE-AI/App/aiTestUtility.c ****   case 0x451: str = "STM32F7[6,7]xxx"; break; /* see RM0410 */
 1590              		.loc 1 542 15 is_stmt 1 view .LVU381
 542:X-CUBE-AI/App/aiTestUtility.c ****   case 0x451: str = "STM32F7[6,7]xxx"; break; /* see RM0410 */
 1591              		.loc 1 542 67 view .LVU382
 542:X-CUBE-AI/App/aiTestUtility.c ****   case 0x451: str = "STM32F7[6,7]xxx"; break; /* see RM0410 */
 1592              		.loc 1 542 19 is_stmt 0 view .LVU383
 1593 0218 244E     		ldr	r6, .L107+112
 542:X-CUBE-AI/App/aiTestUtility.c ****   case 0x451: str = "STM32F7[6,7]xxx"; break; /* see RM0410 */
 1594              		.loc 1 542 3 view .LVU384
 1595 021a 6CE7     		b	.L87
 1596              	.LVL113:
 1597              	.L83:
 543:X-CUBE-AI/App/aiTestUtility.c ****   default:    str = "UNKNOWN";
 1598              		.loc 1 543 15 is_stmt 1 view .LVU385
 543:X-CUBE-AI/App/aiTestUtility.c ****   default:    str = "UNKNOWN";
 1599              		.loc 1 543 40 view .LVU386
 543:X-CUBE-AI/App/aiTestUtility.c ****   default:    str = "UNKNOWN";
 1600              		.loc 1 543 19 is_stmt 0 view .LVU387
 1601 021c 244E     		ldr	r6, .L107+116
 543:X-CUBE-AI/App/aiTestUtility.c ****   default:    str = "UNKNOWN";
ARM GAS  C:\Users\zacfi\AppData\Local\Temp\ccqnkoWq.s 			page 49


 1602              		.loc 1 543 3 view .LVU388
 1603 021e 6AE7     		b	.L87
 1604              	.LVL114:
 1605              	.L78:
 544:X-CUBE-AI/App/aiTestUtility.c ****   }
 1606              		.loc 1 544 15 is_stmt 1 view .LVU389
 544:X-CUBE-AI/App/aiTestUtility.c ****   }
 1607              		.loc 1 544 19 is_stmt 0 view .LVU390
 1608 0220 244E     		ldr	r6, .L107+120
 1609 0222 68E7     		b	.L87
 1610              	.LVL115:
 1611              	.L101:
 531:X-CUBE-AI/App/aiTestUtility.c ****   case 0x446: str = "STM32F303xD/E"; break;
 1612              		.loc 1 531 19 view .LVU391
 1613 0224 244E     		ldr	r6, .L107+124
 1614 0226 66E7     		b	.L87
 1615              	.LVL116:
 1616              	.L102:
 531:X-CUBE-AI/App/aiTestUtility.c ****   case 0x446: str = "STM32F303xD/E"; break;
 1617              		.loc 1 531 19 view .LVU392
 1618              	.LBE30:
 1619              	.LBE49:
 1620              	.LBB50:
 1621              	.LBB34:
 559:X-CUBE-AI/App/aiTestUtility.c **** }
 1622              		.loc 1 559 12 view .LVU393
 1623 0228 244A     		ldr	r2, .L107+128
 1624 022a A7E7     		b	.L97
 1625              	.LVL117:
 1626              	.L103:
 559:X-CUBE-AI/App/aiTestUtility.c **** }
 1627              		.loc 1 559 12 view .LVU394
 1628              	.LBE34:
 1629              	.LBE50:
 1630              	.LBB51:
 1631              	.LBB37:
 1632 022c 234B     		ldr	r3, .L107+128
 1633 022e A9E7     		b	.L98
 1634              	.LVL118:
 1635              	.L104:
 559:X-CUBE-AI/App/aiTestUtility.c **** }
 1636              		.loc 1 559 12 view .LVU395
 1637              	.LBE37:
 1638              	.LBE51:
 1639              	.LBB52:
 1640              	.LBB40:
 1641 0230 2249     		ldr	r1, .L107+128
 1642 0232 ABE7     		b	.L99
 1643              	.LVL119:
 1644              	.L106:
 559:X-CUBE-AI/App/aiTestUtility.c **** }
 1645              		.loc 1 559 12 view .LVU396
 1646              	.LBE40:
 1647              	.LBE52:
 1648              	.LBB53:
 1649              	.LBB44:
 469:X-CUBE-AI/App/aiTestUtility.c **** 
ARM GAS  C:\Users\zacfi\AppData\Local\Temp\ccqnkoWq.s 			page 50


 1650              		.loc 1 469 5 is_stmt 1 view .LVU397
 1651 0234 2248     		ldr	r0, .L107+132
 1652 0236 FFF7FEFF 		bl	puts
 1653              	.LVL120:
 1654 023a B4E7     		b	.L100
 1655              	.L108:
 1656              		.align	2
 1657              	.L107:
 1658 023c 003C0240 		.word	1073888256
 1659 0240 00010000 		.word	.LC19
 1660 0244 20010000 		.word	.LC20
 1661 0248 E0000000 		.word	.LC16
 1662 024c 18000000 		.word	.LC4
 1663 0250 40010000 		.word	.LC21
 1664 0254 74010000 		.word	.LC22
 1665 0258 80010000 		.word	.LC23
 1666 025c 8C010000 		.word	.LC24
 1667 0260 00000000 		.word	.LANCHOR3
 1668 0264 AC010000 		.word	.LC25
 1669 0268 83DE1B43 		.word	1125899907
 1670 026c C8010000 		.word	.LC26
 1671 0270 F8000000 		.word	.LC18
 1672 0274 E4010000 		.word	.LC27
 1673 0278 00380240 		.word	1073887232
 1674 027c 001000E0 		.word	-536866816
 1675 0280 1F85EB51 		.word	1374389535
 1676 0284 48020000 		.word	.LC29
 1677 0288 28000000 		.word	.LC5
 1678 028c 38000000 		.word	.LC6
 1679 0290 48000000 		.word	.LC7
 1680 0294 58000000 		.word	.LC8
 1681 0298 64000000 		.word	.LC9
 1682 029c 70000000 		.word	.LC10
 1683 02a0 7C000000 		.word	.LC11
 1684 02a4 88000000 		.word	.LC12
 1685 02a8 98000000 		.word	.LC13
 1686 02ac A4000000 		.word	.LC14
 1687 02b0 D0000000 		.word	.LC15
 1688 02b4 00000000 		.word	.LC2
 1689 02b8 08000000 		.word	.LC3
 1690 02bc F0000000 		.word	.LC17
 1691 02c0 28020000 		.word	.LC28
 1692              	.LBE44:
 1693              	.LBE53:
 1694              		.cfi_endproc
 1695              	.LFE156:
 1697              		.global	cyclesCount
 1698              		.global	io_stack
 1699              		.global	io_malloc
 1700              		.section	.bss.cyclesCount,"aw",%nobits
 1701              		.align	2
 1704              	cyclesCount:
 1705 0000 00000000 		.space	12
 1705      00000000 
 1705      00000000 
 1706              		.section	.bss.io_malloc,"aw",%nobits
 1707              		.align	2
ARM GAS  C:\Users\zacfi\AppData\Local\Temp\ccqnkoWq.s 			page 51


 1708              		.set	.LANCHOR1,. + 0
 1711              	io_malloc:
 1712 0000 00000000 		.space	28
 1712      00000000 
 1712      00000000 
 1712      00000000 
 1712      00000000 
 1713              		.section	.bss.io_stack,"aw",%nobits
 1714              		.align	2
 1715              		.set	.LANCHOR2,. + 0
 1718              	io_stack:
 1719 0000 00000000 		.space	32
 1719      00000000 
 1719      00000000 
 1719      00000000 
 1719      00000000 
 1720              		.section	.bss.mconf,"aw",%nobits
 1721              		.align	2
 1722              		.set	.LANCHOR3,. + 0
 1725              	mconf:
 1726 0000 00000000 		.space	4
 1727              		.section	.data._ioWriteAllowed,"aw"
 1728              		.set	.LANCHOR0,. + 0
 1731              	_ioWriteAllowed:
 1732 0000 01       		.byte	1
 1733              		.text
 1734              	.Letext0:
 1735              		.file 3 "c:\\gnu\\gnu_arm_embedded_toolchain\\10-2020-q4-major\\arm-none-eabi\\include\\machine\\_
 1736              		.file 4 "c:\\gnu\\gnu_arm_embedded_toolchain\\10-2020-q4-major\\lib\\gcc\\arm-none-eabi\\10.2.1\\i
 1737              		.file 5 "c:\\gnu\\gnu_arm_embedded_toolchain\\10-2020-q4-major\\arm-none-eabi\\include\\sys\\_stdi
 1738              		.file 6 "Drivers/CMSIS/Include/core_cm4.h"
 1739              		.file 7 "Drivers/CMSIS/Device/ST/STM32F4xx/Include/stm32f446xx.h"
 1740              		.file 8 "Drivers/CMSIS/Device/ST/STM32F4xx/Include/stm32f4xx.h"
 1741              		.file 9 "Drivers/STM32F4xx_HAL_Driver/Inc/stm32f4xx_hal_def.h"
 1742              		.file 10 "Drivers/STM32F4xx_HAL_Driver/Inc/stm32f4xx_hal_dma.h"
 1743              		.file 11 "Drivers/STM32F4xx_HAL_Driver/Inc/stm32f4xx_hal_uart.h"
 1744              		.file 12 "Middlewares/ST/AI/Inc/ai_platform.h"
 1745              		.file 13 "c:\\gnu\\gnu_arm_embedded_toolchain\\10-2020-q4-major\\arm-none-eabi\\include\\stdio.h"
 1746              		.file 14 "Drivers/STM32F4xx_HAL_Driver/Inc/stm32f4xx_hal.h"
 1747              		.file 15 "Drivers/STM32F4xx_HAL_Driver/Inc/stm32f4xx_hal_rcc.h"
 1748              		.file 16 "<built-in>"
 1749              		.file 17 "c:\\gnu\\gnu_arm_embedded_toolchain\\10-2020-q4-major\\arm-none-eabi\\include\\sys\\errn
ARM GAS  C:\Users\zacfi\AppData\Local\Temp\ccqnkoWq.s 			page 52

