ARM GAS  C:\Users\zacfi\AppData\Local\Temp\cc8f0CWG.s 			page 1


   1              		.cpu cortex-m4
   2              		.eabi_attribute 27, 1
   3              		.eabi_attribute 28, 1
   4              		.eabi_attribute 20, 1
   5              		.eabi_attribute 21, 1
   6              		.eabi_attribute 23, 3
   7              		.eabi_attribute 24, 1
   8              		.eabi_attribute 25, 1
   9              		.eabi_attribute 26, 1
  10              		.eabi_attribute 30, 1
  11              		.eabi_attribute 34, 1
  12              		.eabi_attribute 18, 4
  13              		.file	"app_x-cube-ai.c"
  14              		.text
  15              	.Ltext0:
  16              		.cfi_sections	.debug_frame
  17              		.section	.text.MX_X_CUBE_AI_Init,"ax",%progbits
  18              		.align	1
  19              		.global	MX_X_CUBE_AI_Init
  20              		.arch armv7e-m
  21              		.syntax unified
  22              		.thumb
  23              		.thumb_func
  24              		.fpu fpv4-sp-d16
  26              	MX_X_CUBE_AI_Init:
  27              	.LFB133:
  28              		.file 1 "X-CUBE-AI/App/app_x-cube-ai.c"
   1:X-CUBE-AI/App/app_x-cube-ai.c **** 
   2:X-CUBE-AI/App/app_x-cube-ai.c **** #ifdef __cplusplus
   3:X-CUBE-AI/App/app_x-cube-ai.c ****  extern "C" {
   4:X-CUBE-AI/App/app_x-cube-ai.c **** #endif
   5:X-CUBE-AI/App/app_x-cube-ai.c **** /**
   6:X-CUBE-AI/App/app_x-cube-ai.c ****   ******************************************************************************
   7:X-CUBE-AI/App/app_x-cube-ai.c ****   * @file           : app_x-cube-ai.c
   8:X-CUBE-AI/App/app_x-cube-ai.c ****   * @brief          : AI program body
   9:X-CUBE-AI/App/app_x-cube-ai.c ****   ******************************************************************************
  10:X-CUBE-AI/App/app_x-cube-ai.c ****   * This notice applies to any and all portions of this file
  11:X-CUBE-AI/App/app_x-cube-ai.c ****   * that are not between comment pairs USER CODE BEGIN and
  12:X-CUBE-AI/App/app_x-cube-ai.c ****   * USER CODE END. Other portions of this file, whether
  13:X-CUBE-AI/App/app_x-cube-ai.c ****   * inserted by the user or by software development tools
  14:X-CUBE-AI/App/app_x-cube-ai.c ****   * are owned by their respective copyright owners.
  15:X-CUBE-AI/App/app_x-cube-ai.c ****   *
  16:X-CUBE-AI/App/app_x-cube-ai.c ****   * Copyright (c) 2018 STMicroelectronics International N.V.
  17:X-CUBE-AI/App/app_x-cube-ai.c ****   * All rights reserved.
  18:X-CUBE-AI/App/app_x-cube-ai.c ****   *
  19:X-CUBE-AI/App/app_x-cube-ai.c ****   * Redistribution and use in source and binary forms, with or without
  20:X-CUBE-AI/App/app_x-cube-ai.c ****   * modification, are permitted, provided that the following conditions are met:
  21:X-CUBE-AI/App/app_x-cube-ai.c ****   *
  22:X-CUBE-AI/App/app_x-cube-ai.c ****   * 1. Redistribution of source code must retain the above copyright notice,
  23:X-CUBE-AI/App/app_x-cube-ai.c ****   *    this list of conditions and the following disclaimer.
  24:X-CUBE-AI/App/app_x-cube-ai.c ****   * 2. Redistributions in binary form must reproduce the above copyright notice,
  25:X-CUBE-AI/App/app_x-cube-ai.c ****   *    this list of conditions and the following disclaimer in the documentation
  26:X-CUBE-AI/App/app_x-cube-ai.c ****   *    and/or other materials provided with the distribution.
  27:X-CUBE-AI/App/app_x-cube-ai.c ****   * 3. Neither the name of STMicroelectronics nor the names of other
  28:X-CUBE-AI/App/app_x-cube-ai.c ****   *    contributors to this software may be used to endorse or promote products
  29:X-CUBE-AI/App/app_x-cube-ai.c ****   *    derived from this software without specific written permission.
  30:X-CUBE-AI/App/app_x-cube-ai.c ****   * 4. This software, including modifications and/or derivative works of this
ARM GAS  C:\Users\zacfi\AppData\Local\Temp\cc8f0CWG.s 			page 2


  31:X-CUBE-AI/App/app_x-cube-ai.c ****   *    software, must execute solely and exclusively on microcontroller or
  32:X-CUBE-AI/App/app_x-cube-ai.c ****   *    microprocessor devices manufactured by or for STMicroelectronics.
  33:X-CUBE-AI/App/app_x-cube-ai.c ****   * 5. Redistribution and use of this software other than as permitted under
  34:X-CUBE-AI/App/app_x-cube-ai.c ****   *    this license is void and will automatically terminate your rights under
  35:X-CUBE-AI/App/app_x-cube-ai.c ****   *    this license.
  36:X-CUBE-AI/App/app_x-cube-ai.c ****   *
  37:X-CUBE-AI/App/app_x-cube-ai.c ****   * THIS SOFTWARE IS PROVIDED BY STMICROELECTRONICS AND CONTRIBUTORS "AS IS"
  38:X-CUBE-AI/App/app_x-cube-ai.c ****   * AND ANY EXPRESS, IMPLIED OR STATUTORY WARRANTIES, INCLUDING, BUT NOT
  39:X-CUBE-AI/App/app_x-cube-ai.c ****   * LIMITED TO, THE IMPLIED WARRANTIES OF MERCHANTABILITY, FITNESS FOR A
  40:X-CUBE-AI/App/app_x-cube-ai.c ****   * PARTICULAR PURPOSE AND NON-INFRINGEMENT OF THIRD PARTY INTELLECTUAL PROPERTY
  41:X-CUBE-AI/App/app_x-cube-ai.c ****   * RIGHTS ARE DISCLAIMED TO THE FULLEST EXTENT PERMITTED BY LAW. IN NO EVENT
  42:X-CUBE-AI/App/app_x-cube-ai.c ****   * SHALL STMICROELECTRONICS OR CONTRIBUTORS BE LIABLE FOR ANY DIRECT, INDIRECT,
  43:X-CUBE-AI/App/app_x-cube-ai.c ****   * INCIDENTAL, SPECIAL, EXEMPLARY, OR CONSEQUENTIAL DAMAGES (INCLUDING, BUT NOT
  44:X-CUBE-AI/App/app_x-cube-ai.c ****   * LIMITED TO, PROCUREMENT OF SUBSTITUTE GOODS OR SERVICES; LOSS OF USE, DATA,
  45:X-CUBE-AI/App/app_x-cube-ai.c ****   * OR PROFITS; OR BUSINESS INTERRUPTION) HOWEVER CAUSED AND ON ANY THEORY OF
  46:X-CUBE-AI/App/app_x-cube-ai.c ****   * LIABILITY, WHETHER IN CONTRACT, STRICT LIABILITY, OR TORT (INCLUDING
  47:X-CUBE-AI/App/app_x-cube-ai.c ****   * NEGLIGENCE OR OTHERWISE) ARISING IN ANY WAY OUT OF THE USE OF THIS SOFTWARE,
  48:X-CUBE-AI/App/app_x-cube-ai.c ****   * EVEN IF ADVISED OF THE POSSIBILITY OF SUCH DAMAGE.
  49:X-CUBE-AI/App/app_x-cube-ai.c ****   *
  50:X-CUBE-AI/App/app_x-cube-ai.c ****   ******************************************************************************
  51:X-CUBE-AI/App/app_x-cube-ai.c ****   */
  52:X-CUBE-AI/App/app_x-cube-ai.c **** /* Includes ------------------------------------------------------------------*/
  53:X-CUBE-AI/App/app_x-cube-ai.c **** /* System headers */
  54:X-CUBE-AI/App/app_x-cube-ai.c **** #include <stdint.h>
  55:X-CUBE-AI/App/app_x-cube-ai.c **** #include <stdlib.h>
  56:X-CUBE-AI/App/app_x-cube-ai.c **** #include <stdio.h>
  57:X-CUBE-AI/App/app_x-cube-ai.c **** #include <inttypes.h>
  58:X-CUBE-AI/App/app_x-cube-ai.c **** #include <string.h>
  59:X-CUBE-AI/App/app_x-cube-ai.c **** 
  60:X-CUBE-AI/App/app_x-cube-ai.c **** #include "app_x-cube-ai.h"
  61:X-CUBE-AI/App/app_x-cube-ai.c **** #include "bsp_ai.h"
  62:X-CUBE-AI/App/app_x-cube-ai.c **** #include "aiSystemPerformance.h"
  63:X-CUBE-AI/App/app_x-cube-ai.c **** #include "ai_datatypes_defines.h"
  64:X-CUBE-AI/App/app_x-cube-ai.c **** 
  65:X-CUBE-AI/App/app_x-cube-ai.c **** /* USER CODE BEGIN includes */
  66:X-CUBE-AI/App/app_x-cube-ai.c **** /* USER CODE END includes */
  67:X-CUBE-AI/App/app_x-cube-ai.c **** 
  68:X-CUBE-AI/App/app_x-cube-ai.c **** /*************************************************************************
  69:X-CUBE-AI/App/app_x-cube-ai.c ****   *
  70:X-CUBE-AI/App/app_x-cube-ai.c ****   */
  71:X-CUBE-AI/App/app_x-cube-ai.c **** void MX_X_CUBE_AI_Init(void)
  72:X-CUBE-AI/App/app_x-cube-ai.c **** {
  29              		.loc 1 72 1 view -0
  30              		.cfi_startproc
  31              		@ args = 0, pretend = 0, frame = 0
  32              		@ frame_needed = 0, uses_anonymous_args = 0
  33 0000 08B5     		push	{r3, lr}
  34              	.LCFI0:
  35              		.cfi_def_cfa_offset 8
  36              		.cfi_offset 3, -8
  37              		.cfi_offset 14, -4
  73:X-CUBE-AI/App/app_x-cube-ai.c ****     MX_UARTx_Init();
  38              		.loc 1 73 5 view .LVU1
  39 0002 FFF7FEFF 		bl	MX_USART2_UART_Init
  40              	.LVL0:
  74:X-CUBE-AI/App/app_x-cube-ai.c ****     aiSystemPerformanceInit();
  41              		.loc 1 74 5 view .LVU2
ARM GAS  C:\Users\zacfi\AppData\Local\Temp\cc8f0CWG.s 			page 3


  42 0006 FFF7FEFF 		bl	aiSystemPerformanceInit
  43              	.LVL1:
  75:X-CUBE-AI/App/app_x-cube-ai.c ****     /* USER CODE BEGIN 5 */
  76:X-CUBE-AI/App/app_x-cube-ai.c ****     /* USER CODE END 5 */
  77:X-CUBE-AI/App/app_x-cube-ai.c **** }
  44              		.loc 1 77 1 is_stmt 0 view .LVU3
  45 000a 08BD     		pop	{r3, pc}
  46              		.cfi_endproc
  47              	.LFE133:
  49              		.section	.text.MX_X_CUBE_AI_Process,"ax",%progbits
  50              		.align	1
  51              		.global	MX_X_CUBE_AI_Process
  52              		.syntax unified
  53              		.thumb
  54              		.thumb_func
  55              		.fpu fpv4-sp-d16
  57              	MX_X_CUBE_AI_Process:
  58              	.LFB134:
  78:X-CUBE-AI/App/app_x-cube-ai.c **** 
  79:X-CUBE-AI/App/app_x-cube-ai.c **** void MX_X_CUBE_AI_Process(void)
  80:X-CUBE-AI/App/app_x-cube-ai.c **** {
  59              		.loc 1 80 1 is_stmt 1 view -0
  60              		.cfi_startproc
  61              		@ args = 0, pretend = 0, frame = 0
  62              		@ frame_needed = 0, uses_anonymous_args = 0
  63 0000 08B5     		push	{r3, lr}
  64              	.LCFI1:
  65              		.cfi_def_cfa_offset 8
  66              		.cfi_offset 3, -8
  67              		.cfi_offset 14, -4
  81:X-CUBE-AI/App/app_x-cube-ai.c ****     aiSystemPerformanceProcess();
  68              		.loc 1 81 5 view .LVU5
  69 0002 FFF7FEFF 		bl	aiSystemPerformanceProcess
  70              	.LVL2:
  82:X-CUBE-AI/App/app_x-cube-ai.c ****     HAL_Delay(1000); /* delay 1s */
  71              		.loc 1 82 5 view .LVU6
  72 0006 4FF47A70 		mov	r0, #1000
  73 000a FFF7FEFF 		bl	HAL_Delay
  74              	.LVL3:
  83:X-CUBE-AI/App/app_x-cube-ai.c ****     /* USER CODE BEGIN 6 */
  84:X-CUBE-AI/App/app_x-cube-ai.c ****     /* USER CODE END 6 */
  85:X-CUBE-AI/App/app_x-cube-ai.c **** }
  75              		.loc 1 85 1 is_stmt 0 view .LVU7
  76 000e 08BD     		pop	{r3, pc}
  77              		.cfi_endproc
  78              	.LFE134:
  80              		.section	.text.ai_mnetwork_find,"ax",%progbits
  81              		.align	1
  82              		.global	ai_mnetwork_find
  83              		.syntax unified
  84              		.thumb
  85              		.thumb_func
  86              		.fpu fpv4-sp-d16
  88              	ai_mnetwork_find:
  89              	.LVL4:
  90              	.LFB138:
  86:X-CUBE-AI/App/app_x-cube-ai.c **** /* Multiple network support --------------------------------------------------*/
ARM GAS  C:\Users\zacfi\AppData\Local\Temp\cc8f0CWG.s 			page 4


  87:X-CUBE-AI/App/app_x-cube-ai.c **** 
  88:X-CUBE-AI/App/app_x-cube-ai.c **** #include <string.h>
  89:X-CUBE-AI/App/app_x-cube-ai.c **** #include "ai_datatypes_defines.h"
  90:X-CUBE-AI/App/app_x-cube-ai.c **** 
  91:X-CUBE-AI/App/app_x-cube-ai.c **** static const ai_network_entry_t networks[AI_MNETWORK_NUMBER] = {
  92:X-CUBE-AI/App/app_x-cube-ai.c ****     {
  93:X-CUBE-AI/App/app_x-cube-ai.c ****         .name = (const char *)AI_ANOMALYDETECTOR_MODEL_NAME,
  94:X-CUBE-AI/App/app_x-cube-ai.c ****         .config = AI_ANOMALYDETECTOR_DATA_CONFIG,
  95:X-CUBE-AI/App/app_x-cube-ai.c ****         .ai_get_info = ai_anomalydetector_get_info,
  96:X-CUBE-AI/App/app_x-cube-ai.c ****         .ai_create = ai_anomalydetector_create,
  97:X-CUBE-AI/App/app_x-cube-ai.c ****         .ai_destroy = ai_anomalydetector_destroy,
  98:X-CUBE-AI/App/app_x-cube-ai.c ****         .ai_get_error = ai_anomalydetector_get_error,
  99:X-CUBE-AI/App/app_x-cube-ai.c ****         .ai_init = ai_anomalydetector_init,
 100:X-CUBE-AI/App/app_x-cube-ai.c ****         .ai_run = ai_anomalydetector_run,
 101:X-CUBE-AI/App/app_x-cube-ai.c ****         .ai_forward = ai_anomalydetector_forward,
 102:X-CUBE-AI/App/app_x-cube-ai.c ****         .ai_data_weights_get_default = ai_anomalydetector_data_weights_get,
 103:X-CUBE-AI/App/app_x-cube-ai.c ****         .params = { AI_ANOMALYDETECTOR_DATA_WEIGHTS(0),
 104:X-CUBE-AI/App/app_x-cube-ai.c ****                 AI_ANOMALYDETECTOR_DATA_ACTIVATIONS(0)},
 105:X-CUBE-AI/App/app_x-cube-ai.c ****         .extActBufferStartAddr = AI_ANOMALYDETECTOR_DATA_ACTIVATIONS_START_ADDR,
 106:X-CUBE-AI/App/app_x-cube-ai.c ****         .actBufferSize = AI_ANOMALYDETECTOR_DATA_ACTIVATIONS_SIZE
 107:X-CUBE-AI/App/app_x-cube-ai.c ****     },
 108:X-CUBE-AI/App/app_x-cube-ai.c **** };
 109:X-CUBE-AI/App/app_x-cube-ai.c **** 
 110:X-CUBE-AI/App/app_x-cube-ai.c **** struct network_instance {
 111:X-CUBE-AI/App/app_x-cube-ai.c ****      const ai_network_entry_t *entry;
 112:X-CUBE-AI/App/app_x-cube-ai.c ****      ai_handle handle;
 113:X-CUBE-AI/App/app_x-cube-ai.c ****      ai_network_params params;
 114:X-CUBE-AI/App/app_x-cube-ai.c **** };
 115:X-CUBE-AI/App/app_x-cube-ai.c **** 
 116:X-CUBE-AI/App/app_x-cube-ai.c **** /* Number of instance is aligned on the number of network */
 117:X-CUBE-AI/App/app_x-cube-ai.c **** AI_STATIC struct network_instance gnetworks[AI_MNETWORK_NUMBER] = {0};
 118:X-CUBE-AI/App/app_x-cube-ai.c **** 
 119:X-CUBE-AI/App/app_x-cube-ai.c **** AI_DECLARE_STATIC
 120:X-CUBE-AI/App/app_x-cube-ai.c **** ai_bool ai_mnetwork_is_valid(const char* name,
 121:X-CUBE-AI/App/app_x-cube-ai.c ****         const ai_network_entry_t *entry)
 122:X-CUBE-AI/App/app_x-cube-ai.c **** {
 123:X-CUBE-AI/App/app_x-cube-ai.c ****     if (name && (strlen(entry->name) == strlen(name)) &&
 124:X-CUBE-AI/App/app_x-cube-ai.c ****             (strncmp(entry->name, name, strlen(entry->name)) == 0))
 125:X-CUBE-AI/App/app_x-cube-ai.c ****         return true;
 126:X-CUBE-AI/App/app_x-cube-ai.c ****     return false;
 127:X-CUBE-AI/App/app_x-cube-ai.c **** }
 128:X-CUBE-AI/App/app_x-cube-ai.c **** 
 129:X-CUBE-AI/App/app_x-cube-ai.c **** AI_DECLARE_STATIC
 130:X-CUBE-AI/App/app_x-cube-ai.c **** struct network_instance *ai_mnetwork_handle(struct network_instance *inst)
 131:X-CUBE-AI/App/app_x-cube-ai.c **** {
 132:X-CUBE-AI/App/app_x-cube-ai.c ****     for (int i=0; i<AI_MNETWORK_NUMBER; i++) {
 133:X-CUBE-AI/App/app_x-cube-ai.c ****         if ((inst) && (&gnetworks[i] == inst))
 134:X-CUBE-AI/App/app_x-cube-ai.c ****             return inst;
 135:X-CUBE-AI/App/app_x-cube-ai.c ****         else if ((!inst) && (gnetworks[i].entry == NULL))
 136:X-CUBE-AI/App/app_x-cube-ai.c ****             return &gnetworks[i];
 137:X-CUBE-AI/App/app_x-cube-ai.c ****     }
 138:X-CUBE-AI/App/app_x-cube-ai.c ****     return NULL;
 139:X-CUBE-AI/App/app_x-cube-ai.c **** }
 140:X-CUBE-AI/App/app_x-cube-ai.c **** 
 141:X-CUBE-AI/App/app_x-cube-ai.c **** AI_DECLARE_STATIC
 142:X-CUBE-AI/App/app_x-cube-ai.c **** void ai_mnetwork_release_handle(struct network_instance *inst)
 143:X-CUBE-AI/App/app_x-cube-ai.c **** {
ARM GAS  C:\Users\zacfi\AppData\Local\Temp\cc8f0CWG.s 			page 5


 144:X-CUBE-AI/App/app_x-cube-ai.c ****     for (int i=0; i<AI_MNETWORK_NUMBER; i++) {
 145:X-CUBE-AI/App/app_x-cube-ai.c ****         if ((inst) && (&gnetworks[i] == inst)) {
 146:X-CUBE-AI/App/app_x-cube-ai.c ****             gnetworks[i].entry = NULL;
 147:X-CUBE-AI/App/app_x-cube-ai.c ****             return;
 148:X-CUBE-AI/App/app_x-cube-ai.c ****         }
 149:X-CUBE-AI/App/app_x-cube-ai.c ****     }
 150:X-CUBE-AI/App/app_x-cube-ai.c **** }
 151:X-CUBE-AI/App/app_x-cube-ai.c **** 
 152:X-CUBE-AI/App/app_x-cube-ai.c **** AI_API_ENTRY
 153:X-CUBE-AI/App/app_x-cube-ai.c **** const char* ai_mnetwork_find(const char *name, ai_int idx)
 154:X-CUBE-AI/App/app_x-cube-ai.c **** {
  91              		.loc 1 154 1 is_stmt 1 view -0
  92              		.cfi_startproc
  93              		@ args = 0, pretend = 0, frame = 0
  94              		@ frame_needed = 0, uses_anonymous_args = 0
  95              		.loc 1 154 1 is_stmt 0 view .LVU9
  96 0000 2DE9F041 		push	{r4, r5, r6, r7, r8, lr}
  97              	.LCFI2:
  98              		.cfi_def_cfa_offset 24
  99              		.cfi_offset 4, -24
 100              		.cfi_offset 5, -20
 101              		.cfi_offset 6, -16
 102              		.cfi_offset 7, -12
 103              		.cfi_offset 8, -8
 104              		.cfi_offset 14, -4
 105 0004 0746     		mov	r7, r0
 106 0006 0D46     		mov	r5, r1
 155:X-CUBE-AI/App/app_x-cube-ai.c ****     const ai_network_entry_t *entry;
 107              		.loc 1 155 5 is_stmt 1 view .LVU10
 156:X-CUBE-AI/App/app_x-cube-ai.c **** 
 157:X-CUBE-AI/App/app_x-cube-ai.c ****     for (int i=0; i<AI_MNETWORK_NUMBER; i++) {
 108              		.loc 1 157 5 view .LVU11
 109              	.LBB9:
 110              		.loc 1 157 10 view .LVU12
 111              	.LVL5:
 112              		.loc 1 157 14 is_stmt 0 view .LVU13
 113 0008 0024     		movs	r4, #0
 114              	.LVL6:
 115              	.L6:
 116              		.loc 1 157 19 is_stmt 1 discriminator 1 view .LVU14
 117              		.loc 1 157 5 is_stmt 0 discriminator 1 view .LVU15
 118 000a 002C     		cmp	r4, #0
 119 000c 02DD     		ble	.L11
 120              		.loc 1 157 5 discriminator 1 view .LVU16
 121              	.LBE9:
 158:X-CUBE-AI/App/app_x-cube-ai.c ****         entry = &networks[i];
 159:X-CUBE-AI/App/app_x-cube-ai.c ****         if (ai_mnetwork_is_valid(name, entry))
 160:X-CUBE-AI/App/app_x-cube-ai.c ****             return entry->name;
 161:X-CUBE-AI/App/app_x-cube-ai.c ****         else {
 162:X-CUBE-AI/App/app_x-cube-ai.c ****             if (!idx--)
 163:X-CUBE-AI/App/app_x-cube-ai.c ****                 return entry->name;
 164:X-CUBE-AI/App/app_x-cube-ai.c ****         }
 165:X-CUBE-AI/App/app_x-cube-ai.c ****     }
 166:X-CUBE-AI/App/app_x-cube-ai.c ****     return NULL;
 122              		.loc 1 166 12 view .LVU17
 123 000e 0020     		movs	r0, #0
 124              	.LVL7:
ARM GAS  C:\Users\zacfi\AppData\Local\Temp\cc8f0CWG.s 			page 6


 125              	.L5:
 167:X-CUBE-AI/App/app_x-cube-ai.c **** }
 126              		.loc 1 167 1 view .LVU18
 127 0010 BDE8F081 		pop	{r4, r5, r6, r7, r8, pc}
 128              	.LVL8:
 129              	.L11:
 130              	.LBB14:
 158:X-CUBE-AI/App/app_x-cube-ai.c ****         entry = &networks[i];
 131              		.loc 1 158 9 is_stmt 1 view .LVU19
 158:X-CUBE-AI/App/app_x-cube-ai.c ****         entry = &networks[i];
 132              		.loc 1 158 15 is_stmt 0 view .LVU20
 133 0014 04EB4403 		add	r3, r4, r4, lsl #1
 134 0018 5B01     		lsls	r3, r3, #5
 135              	.LVL9:
 159:X-CUBE-AI/App/app_x-cube-ai.c ****             return entry->name;
 136              		.loc 1 159 9 is_stmt 1 view .LVU21
 137              	.LBB10:
 138              	.LBI10:
 120:X-CUBE-AI/App/app_x-cube-ai.c ****         const ai_network_entry_t *entry)
 139              		.loc 1 120 9 view .LVU22
 140              	.LBB11:
 123:X-CUBE-AI/App/app_x-cube-ai.c ****             (strncmp(entry->name, name, strlen(entry->name)) == 0))
 141              		.loc 1 123 5 view .LVU23
 123:X-CUBE-AI/App/app_x-cube-ai.c ****             (strncmp(entry->name, name, strlen(entry->name)) == 0))
 142              		.loc 1 123 8 is_stmt 0 view .LVU24
 143 001a D7B1     		cbz	r7, .L12
 123:X-CUBE-AI/App/app_x-cube-ai.c ****             (strncmp(entry->name, name, strlen(entry->name)) == 0))
 144              		.loc 1 123 18 view .LVU25
 145 001c 154A     		ldr	r2, .L19
 146 001e 52F80380 		ldr	r8, [r2, r3]
 147 0022 4046     		mov	r0, r8
 148 0024 FFF7FEFF 		bl	strlen
 149              	.LVL10:
 123:X-CUBE-AI/App/app_x-cube-ai.c ****             (strncmp(entry->name, name, strlen(entry->name)) == 0))
 150              		.loc 1 123 18 view .LVU26
 151 0028 0646     		mov	r6, r0
 123:X-CUBE-AI/App/app_x-cube-ai.c ****             (strncmp(entry->name, name, strlen(entry->name)) == 0))
 152              		.loc 1 123 41 view .LVU27
 153 002a 3846     		mov	r0, r7
 154 002c FFF7FEFF 		bl	strlen
 155              	.LVL11:
 123:X-CUBE-AI/App/app_x-cube-ai.c ****             (strncmp(entry->name, name, strlen(entry->name)) == 0))
 156              		.loc 1 123 14 view .LVU28
 157 0030 8642     		cmp	r6, r0
 158 0032 06D0     		beq	.L16
 126:X-CUBE-AI/App/app_x-cube-ai.c **** }
 159              		.loc 1 126 12 view .LVU29
 160 0034 0023     		movs	r3, #0
 161              	.L7:
 162              	.LVL12:
 126:X-CUBE-AI/App/app_x-cube-ai.c **** }
 163              		.loc 1 126 12 view .LVU30
 164              	.LBE11:
 165              	.LBE10:
 159:X-CUBE-AI/App/app_x-cube-ai.c ****             return entry->name;
 166              		.loc 1 159 12 view .LVU31
 167 0036 83B9     		cbnz	r3, .L17
ARM GAS  C:\Users\zacfi\AppData\Local\Temp\cc8f0CWG.s 			page 7


 162:X-CUBE-AI/App/app_x-cube-ai.c ****                 return entry->name;
 168              		.loc 1 162 13 is_stmt 1 view .LVU32
 162:X-CUBE-AI/App/app_x-cube-ai.c ****                 return entry->name;
 169              		.loc 1 162 21 is_stmt 0 view .LVU33
 170 0038 6B1E     		subs	r3, r5, #1
 171              	.LVL13:
 162:X-CUBE-AI/App/app_x-cube-ai.c ****                 return entry->name;
 172              		.loc 1 162 16 view .LVU34
 173 003a A5B1     		cbz	r5, .L18
 157:X-CUBE-AI/App/app_x-cube-ai.c ****         entry = &networks[i];
 174              		.loc 1 157 41 is_stmt 1 discriminator 2 view .LVU35
 157:X-CUBE-AI/App/app_x-cube-ai.c ****         entry = &networks[i];
 175              		.loc 1 157 42 is_stmt 0 discriminator 2 view .LVU36
 176 003c 0134     		adds	r4, r4, #1
 177              	.LVL14:
 162:X-CUBE-AI/App/app_x-cube-ai.c ****                 return entry->name;
 178              		.loc 1 162 21 discriminator 2 view .LVU37
 179 003e 1D46     		mov	r5, r3
 180 0040 E3E7     		b	.L6
 181              	.LVL15:
 182              	.L16:
 183              	.LBB13:
 184              	.LBB12:
 124:X-CUBE-AI/App/app_x-cube-ai.c ****         return true;
 185              		.loc 1 124 14 view .LVU38
 186 0042 3246     		mov	r2, r6
 187 0044 3946     		mov	r1, r7
 188 0046 4046     		mov	r0, r8
 189 0048 FFF7FEFF 		bl	strncmp
 190              	.LVL16:
 123:X-CUBE-AI/App/app_x-cube-ai.c ****             (strncmp(entry->name, name, strlen(entry->name)) == 0))
 191              		.loc 1 123 55 view .LVU39
 192 004c 18B1     		cbz	r0, .L14
 126:X-CUBE-AI/App/app_x-cube-ai.c **** }
 193              		.loc 1 126 12 view .LVU40
 194 004e 0023     		movs	r3, #0
 195 0050 F1E7     		b	.L7
 196              	.LVL17:
 197              	.L12:
 126:X-CUBE-AI/App/app_x-cube-ai.c **** }
 198              		.loc 1 126 12 view .LVU41
 199 0052 0023     		movs	r3, #0
 200              	.LVL18:
 126:X-CUBE-AI/App/app_x-cube-ai.c **** }
 201              		.loc 1 126 12 view .LVU42
 202 0054 EFE7     		b	.L7
 203              	.L14:
 125:X-CUBE-AI/App/app_x-cube-ai.c ****     return false;
 204              		.loc 1 125 16 view .LVU43
 205 0056 0123     		movs	r3, #1
 206 0058 EDE7     		b	.L7
 207              	.LVL19:
 208              	.L17:
 125:X-CUBE-AI/App/app_x-cube-ai.c ****     return false;
 209              		.loc 1 125 16 view .LVU44
 210              	.LBE12:
 211              	.LBE13:
ARM GAS  C:\Users\zacfi\AppData\Local\Temp\cc8f0CWG.s 			page 8


 160:X-CUBE-AI/App/app_x-cube-ai.c ****         else {
 212              		.loc 1 160 13 is_stmt 1 view .LVU45
 160:X-CUBE-AI/App/app_x-cube-ai.c ****         else {
 213              		.loc 1 160 25 is_stmt 0 view .LVU46
 214 005a 04EB4404 		add	r4, r4, r4, lsl #1
 215              	.LVL20:
 160:X-CUBE-AI/App/app_x-cube-ai.c ****         else {
 216              		.loc 1 160 25 view .LVU47
 217 005e 6401     		lsls	r4, r4, #5
 218 0060 044B     		ldr	r3, .L19
 219 0062 1859     		ldr	r0, [r3, r4]
 220 0064 D4E7     		b	.L5
 221              	.LVL21:
 222              	.L18:
 163:X-CUBE-AI/App/app_x-cube-ai.c ****         }
 223              		.loc 1 163 17 is_stmt 1 view .LVU48
 163:X-CUBE-AI/App/app_x-cube-ai.c ****         }
 224              		.loc 1 163 29 is_stmt 0 view .LVU49
 225 0066 04EB4404 		add	r4, r4, r4, lsl #1
 226              	.LVL22:
 163:X-CUBE-AI/App/app_x-cube-ai.c ****         }
 227              		.loc 1 163 29 view .LVU50
 228 006a 6401     		lsls	r4, r4, #5
 229 006c 014B     		ldr	r3, .L19
 230              	.LVL23:
 163:X-CUBE-AI/App/app_x-cube-ai.c ****         }
 231              		.loc 1 163 29 view .LVU51
 232 006e 1859     		ldr	r0, [r3, r4]
 233 0070 CEE7     		b	.L5
 234              	.L20:
 235 0072 00BF     		.align	2
 236              	.L19:
 237 0074 00000000 		.word	.LANCHOR0
 238              	.LBE14:
 239              		.cfi_endproc
 240              	.LFE138:
 242              		.section	.text.ai_mnetwork_create,"ax",%progbits
 243              		.align	1
 244              		.global	ai_mnetwork_create
 245              		.syntax unified
 246              		.thumb
 247              		.thumb_func
 248              		.fpu fpv4-sp-d16
 250              	ai_mnetwork_create:
 251              	.LVL24:
 252              	.LFB139:
 168:X-CUBE-AI/App/app_x-cube-ai.c **** 
 169:X-CUBE-AI/App/app_x-cube-ai.c **** AI_API_ENTRY
 170:X-CUBE-AI/App/app_x-cube-ai.c **** ai_error ai_mnetwork_create(const char *name, ai_handle* network,
 171:X-CUBE-AI/App/app_x-cube-ai.c ****         const ai_buffer* network_config)
 172:X-CUBE-AI/App/app_x-cube-ai.c **** {
 253              		.loc 1 172 1 is_stmt 1 view -0
 254              		.cfi_startproc
 255              		@ args = 0, pretend = 0, frame = 0
 256              		@ frame_needed = 0, uses_anonymous_args = 0
 257              		.loc 1 172 1 is_stmt 0 view .LVU53
 258 0000 2DE9F84F 		push	{r3, r4, r5, r6, r7, r8, r9, r10, fp, lr}
ARM GAS  C:\Users\zacfi\AppData\Local\Temp\cc8f0CWG.s 			page 9


 259              	.LCFI3:
 260              		.cfi_def_cfa_offset 40
 261              		.cfi_offset 3, -40
 262              		.cfi_offset 4, -36
 263              		.cfi_offset 5, -32
 264              		.cfi_offset 6, -28
 265              		.cfi_offset 7, -24
 266              		.cfi_offset 8, -20
 267              		.cfi_offset 9, -16
 268              		.cfi_offset 10, -12
 269              		.cfi_offset 11, -8
 270              		.cfi_offset 14, -4
 271 0004 0546     		mov	r5, r0
 272 0006 0C46     		mov	r4, r1
 273 0008 1646     		mov	r6, r2
 173:X-CUBE-AI/App/app_x-cube-ai.c ****     const ai_network_entry_t *entry;
 274              		.loc 1 173 5 is_stmt 1 view .LVU54
 174:X-CUBE-AI/App/app_x-cube-ai.c ****     const ai_network_entry_t *found = NULL;
 275              		.loc 1 174 5 view .LVU55
 276              	.LVL25:
 175:X-CUBE-AI/App/app_x-cube-ai.c ****     ai_error err;
 277              		.loc 1 175 5 view .LVU56
 176:X-CUBE-AI/App/app_x-cube-ai.c ****     struct network_instance *inst = ai_mnetwork_handle(NULL);
 278              		.loc 1 176 5 view .LVU57
 279              	.LBB21:
 280              	.LBI21:
 130:X-CUBE-AI/App/app_x-cube-ai.c **** {
 281              		.loc 1 130 26 view .LVU58
 282              	.LBB22:
 132:X-CUBE-AI/App/app_x-cube-ai.c ****         if ((inst) && (&gnetworks[i] == inst))
 283              		.loc 1 132 5 view .LVU59
 284              	.LBB23:
 132:X-CUBE-AI/App/app_x-cube-ai.c ****         if ((inst) && (&gnetworks[i] == inst))
 285              		.loc 1 132 10 view .LVU60
 132:X-CUBE-AI/App/app_x-cube-ai.c ****         if ((inst) && (&gnetworks[i] == inst))
 286              		.loc 1 132 14 is_stmt 0 view .LVU61
 287 000a 0023     		movs	r3, #0
 288              	.LVL26:
 289              	.L22:
 132:X-CUBE-AI/App/app_x-cube-ai.c ****         if ((inst) && (&gnetworks[i] == inst))
 290              		.loc 1 132 19 is_stmt 1 view .LVU62
 132:X-CUBE-AI/App/app_x-cube-ai.c ****         if ((inst) && (&gnetworks[i] == inst))
 291              		.loc 1 132 5 is_stmt 0 view .LVU63
 292 000c 002B     		cmp	r3, #0
 293 000e 0ADD     		ble	.L25
 294              	.LBE23:
 138:X-CUBE-AI/App/app_x-cube-ai.c **** }
 295              		.loc 1 138 12 view .LVU64
 296 0010 0027     		movs	r7, #0
 297              	.L24:
 298              	.LVL27:
 138:X-CUBE-AI/App/app_x-cube-ai.c **** }
 299              		.loc 1 138 12 view .LVU65
 300              	.LBE22:
 301              	.LBE21:
 177:X-CUBE-AI/App/app_x-cube-ai.c **** 
 178:X-CUBE-AI/App/app_x-cube-ai.c ****     if (!inst) {
ARM GAS  C:\Users\zacfi\AppData\Local\Temp\cc8f0CWG.s 			page 10


 302              		.loc 1 178 5 is_stmt 1 view .LVU66
 303              		.loc 1 178 8 is_stmt 0 view .LVU67
 304 0012 C7BB     		cbnz	r7, .L35
 179:X-CUBE-AI/App/app_x-cube-ai.c ****         err.type = AI_ERROR_ALLOCATION_FAILED;
 305              		.loc 1 179 9 is_stmt 1 view .LVU68
 306              		.loc 1 179 18 is_stmt 0 view .LVU69
 307 0014 0020     		movs	r0, #0
 308              	.LVL28:
 309              		.loc 1 179 18 view .LVU70
 310 0016 3123     		movs	r3, #49
 311 0018 63F30700 		bfi	r0, r3, #0, #8
 312              	.LVL29:
 180:X-CUBE-AI/App/app_x-cube-ai.c ****         err.code = AI_ERROR_CODE_NETWORK;
 313              		.loc 1 180 9 is_stmt 1 view .LVU71
 314              		.loc 1 180 18 is_stmt 0 view .LVU72
 315 001c 1023     		movs	r3, #16
 316 001e 63F31F20 		bfi	r0, r3, #8, #24
 181:X-CUBE-AI/App/app_x-cube-ai.c ****         return err;
 317              		.loc 1 181 9 is_stmt 1 view .LVU73
 318              	.LVL30:
 319              	.L27:
 320              	.LVL31:
 182:X-CUBE-AI/App/app_x-cube-ai.c ****     }
 183:X-CUBE-AI/App/app_x-cube-ai.c **** 
 184:X-CUBE-AI/App/app_x-cube-ai.c ****     for (int i=0; i<AI_MNETWORK_NUMBER; i++) {
 185:X-CUBE-AI/App/app_x-cube-ai.c ****         entry = &networks[i];
 186:X-CUBE-AI/App/app_x-cube-ai.c ****         if (ai_mnetwork_is_valid(name, entry)) {
 187:X-CUBE-AI/App/app_x-cube-ai.c ****             found = entry;
 188:X-CUBE-AI/App/app_x-cube-ai.c ****             break;
 189:X-CUBE-AI/App/app_x-cube-ai.c ****         }
 190:X-CUBE-AI/App/app_x-cube-ai.c ****     }
 191:X-CUBE-AI/App/app_x-cube-ai.c **** 
 192:X-CUBE-AI/App/app_x-cube-ai.c ****     if (!found) {
 193:X-CUBE-AI/App/app_x-cube-ai.c ****         err.type = AI_ERROR_INVALID_PARAM;
 194:X-CUBE-AI/App/app_x-cube-ai.c ****         err.code = AI_ERROR_CODE_NETWORK;
 195:X-CUBE-AI/App/app_x-cube-ai.c ****         return err;
 196:X-CUBE-AI/App/app_x-cube-ai.c ****     }
 197:X-CUBE-AI/App/app_x-cube-ai.c **** 
 198:X-CUBE-AI/App/app_x-cube-ai.c ****     if (network_config == NULL)
 199:X-CUBE-AI/App/app_x-cube-ai.c ****         err = found->ai_create(network, found->config);
 200:X-CUBE-AI/App/app_x-cube-ai.c ****     else
 201:X-CUBE-AI/App/app_x-cube-ai.c ****         err = found->ai_create(network, network_config);
 202:X-CUBE-AI/App/app_x-cube-ai.c ****     if ((err.code == AI_ERROR_CODE_NONE) && (err.type == AI_ERROR_NONE)) {
 203:X-CUBE-AI/App/app_x-cube-ai.c ****         inst->entry = found;
 204:X-CUBE-AI/App/app_x-cube-ai.c ****         inst->handle = *network;
 205:X-CUBE-AI/App/app_x-cube-ai.c ****         *network = (ai_handle*)inst;
 206:X-CUBE-AI/App/app_x-cube-ai.c ****     }
 207:X-CUBE-AI/App/app_x-cube-ai.c **** 
 208:X-CUBE-AI/App/app_x-cube-ai.c ****     return err;
 209:X-CUBE-AI/App/app_x-cube-ai.c **** }
 321              		.loc 1 209 1 is_stmt 0 view .LVU74
 322 0022 BDE8F88F 		pop	{r3, r4, r5, r6, r7, r8, r9, r10, fp, pc}
 323              	.LVL32:
 324              	.L25:
 325              	.LBB26:
 326              	.LBB25:
 327              	.LBB24:
ARM GAS  C:\Users\zacfi\AppData\Local\Temp\cc8f0CWG.s 			page 11


 133:X-CUBE-AI/App/app_x-cube-ai.c ****             return inst;
 328              		.loc 1 133 9 is_stmt 1 view .LVU75
 135:X-CUBE-AI/App/app_x-cube-ai.c ****             return &gnetworks[i];
 329              		.loc 1 135 14 view .LVU76
 135:X-CUBE-AI/App/app_x-cube-ai.c ****             return &gnetworks[i];
 330              		.loc 1 135 42 is_stmt 0 view .LVU77
 331 0026 C3EBC30C 		rsb	ip, r3, r3, lsl #3
 332 002a 2A4A     		ldr	r2, .L44
 333 002c 52F83C20 		ldr	r2, [r2, ip, lsl #3]
 135:X-CUBE-AI/App/app_x-cube-ai.c ****             return &gnetworks[i];
 334              		.loc 1 135 26 view .LVU78
 335 0030 0AB1     		cbz	r2, .L40
 132:X-CUBE-AI/App/app_x-cube-ai.c ****         if ((inst) && (&gnetworks[i] == inst))
 336              		.loc 1 132 41 is_stmt 1 view .LVU79
 132:X-CUBE-AI/App/app_x-cube-ai.c ****         if ((inst) && (&gnetworks[i] == inst))
 337              		.loc 1 132 42 is_stmt 0 view .LVU80
 338 0032 0133     		adds	r3, r3, #1
 339              	.LVL33:
 132:X-CUBE-AI/App/app_x-cube-ai.c ****         if ((inst) && (&gnetworks[i] == inst))
 340              		.loc 1 132 42 view .LVU81
 341 0034 EAE7     		b	.L22
 342              	.L40:
 136:X-CUBE-AI/App/app_x-cube-ai.c ****     }
 343              		.loc 1 136 13 is_stmt 1 view .LVU82
 136:X-CUBE-AI/App/app_x-cube-ai.c ****     }
 344              		.loc 1 136 20 is_stmt 0 view .LVU83
 345 0036 274F     		ldr	r7, .L44
 346 0038 07EBCC07 		add	r7, r7, ip, lsl #3
 347 003c E9E7     		b	.L24
 348              	.LVL34:
 349              	.L30:
 136:X-CUBE-AI/App/app_x-cube-ai.c ****     }
 350              		.loc 1 136 20 view .LVU84
 351              	.LBE24:
 352              	.LBE25:
 353              	.LBE26:
 354              	.LBB27:
 185:X-CUBE-AI/App/app_x-cube-ai.c ****         if (ai_mnetwork_is_valid(name, entry)) {
 355              		.loc 1 185 9 is_stmt 1 view .LVU85
 185:X-CUBE-AI/App/app_x-cube-ai.c ****         if (ai_mnetwork_is_valid(name, entry)) {
 356              		.loc 1 185 15 is_stmt 0 view .LVU86
 357 003e 264B     		ldr	r3, .L44+4
 358 0040 09EB4908 		add	r8, r9, r9, lsl #1
 359 0044 4FEA4812 		lsl	r2, r8, #5
 360 0048 03EB4818 		add	r8, r3, r8, lsl #5
 361              	.LVL35:
 186:X-CUBE-AI/App/app_x-cube-ai.c ****             found = entry;
 362              		.loc 1 186 9 is_stmt 1 view .LVU87
 363              	.LBB28:
 364              	.LBI28:
 120:X-CUBE-AI/App/app_x-cube-ai.c ****         const ai_network_entry_t *entry)
 365              		.loc 1 120 9 view .LVU88
 366              	.LBB29:
 123:X-CUBE-AI/App/app_x-cube-ai.c ****             (strncmp(entry->name, name, strlen(entry->name)) == 0))
 367              		.loc 1 123 5 view .LVU89
 123:X-CUBE-AI/App/app_x-cube-ai.c ****             (strncmp(entry->name, name, strlen(entry->name)) == 0))
 368              		.loc 1 123 8 is_stmt 0 view .LVU90
ARM GAS  C:\Users\zacfi\AppData\Local\Temp\cc8f0CWG.s 			page 12


 369 004c BDB1     		cbz	r5, .L36
 123:X-CUBE-AI/App/app_x-cube-ai.c ****             (strncmp(entry->name, name, strlen(entry->name)) == 0))
 370              		.loc 1 123 18 view .LVU91
 371 004e 53F802B0 		ldr	fp, [r3, r2]
 372 0052 5846     		mov	r0, fp
 373 0054 FFF7FEFF 		bl	strlen
 374              	.LVL36:
 375 0058 8246     		mov	r10, r0
 123:X-CUBE-AI/App/app_x-cube-ai.c ****             (strncmp(entry->name, name, strlen(entry->name)) == 0))
 376              		.loc 1 123 41 view .LVU92
 377 005a 2846     		mov	r0, r5
 378 005c FFF7FEFF 		bl	strlen
 379              	.LVL37:
 123:X-CUBE-AI/App/app_x-cube-ai.c ****             (strncmp(entry->name, name, strlen(entry->name)) == 0))
 380              		.loc 1 123 14 view .LVU93
 381 0060 8245     		cmp	r10, r0
 382 0062 04D0     		beq	.L41
 126:X-CUBE-AI/App/app_x-cube-ai.c **** }
 383              		.loc 1 126 12 view .LVU94
 384 0064 0023     		movs	r3, #0
 385              	.L28:
 386              	.LVL38:
 126:X-CUBE-AI/App/app_x-cube-ai.c **** }
 387              		.loc 1 126 12 view .LVU95
 388              	.LBE29:
 389              	.LBE28:
 186:X-CUBE-AI/App/app_x-cube-ai.c ****             found = entry;
 390              		.loc 1 186 12 view .LVU96
 391 0066 ABB9     		cbnz	r3, .L29
 184:X-CUBE-AI/App/app_x-cube-ai.c ****         entry = &networks[i];
 392              		.loc 1 184 41 is_stmt 1 discriminator 2 view .LVU97
 184:X-CUBE-AI/App/app_x-cube-ai.c ****         entry = &networks[i];
 393              		.loc 1 184 42 is_stmt 0 discriminator 2 view .LVU98
 394 0068 09F10109 		add	r9, r9, #1
 395              	.LVL39:
 184:X-CUBE-AI/App/app_x-cube-ai.c ****         entry = &networks[i];
 396              		.loc 1 184 42 discriminator 2 view .LVU99
 397 006c 0DE0     		b	.L26
 398              	.LVL40:
 399              	.L41:
 400              	.LBB31:
 401              	.LBB30:
 124:X-CUBE-AI/App/app_x-cube-ai.c ****         return true;
 402              		.loc 1 124 14 view .LVU100
 403 006e 5246     		mov	r2, r10
 404 0070 2946     		mov	r1, r5
 405 0072 5846     		mov	r0, fp
 406 0074 FFF7FEFF 		bl	strncmp
 407              	.LVL41:
 123:X-CUBE-AI/App/app_x-cube-ai.c ****             (strncmp(entry->name, name, strlen(entry->name)) == 0))
 408              		.loc 1 123 55 view .LVU101
 409 0078 18B1     		cbz	r0, .L38
 126:X-CUBE-AI/App/app_x-cube-ai.c **** }
 410              		.loc 1 126 12 view .LVU102
 411 007a 0023     		movs	r3, #0
 412 007c F3E7     		b	.L28
 413              	.L36:
ARM GAS  C:\Users\zacfi\AppData\Local\Temp\cc8f0CWG.s 			page 13


 126:X-CUBE-AI/App/app_x-cube-ai.c **** }
 414              		.loc 1 126 12 view .LVU103
 415 007e 0023     		movs	r3, #0
 416 0080 F1E7     		b	.L28
 417              	.L38:
 125:X-CUBE-AI/App/app_x-cube-ai.c ****     return false;
 418              		.loc 1 125 16 view .LVU104
 419 0082 0123     		movs	r3, #1
 420 0084 EFE7     		b	.L28
 421              	.LVL42:
 422              	.L35:
 125:X-CUBE-AI/App/app_x-cube-ai.c ****     return false;
 423              		.loc 1 125 16 view .LVU105
 424              	.LBE30:
 425              	.LBE31:
 184:X-CUBE-AI/App/app_x-cube-ai.c ****         entry = &networks[i];
 426              		.loc 1 184 14 view .LVU106
 427 0086 4FF00009 		mov	r9, #0
 428              	.LVL43:
 429              	.L26:
 184:X-CUBE-AI/App/app_x-cube-ai.c ****         entry = &networks[i];
 430              		.loc 1 184 19 is_stmt 1 discriminator 1 view .LVU107
 184:X-CUBE-AI/App/app_x-cube-ai.c ****         entry = &networks[i];
 431              		.loc 1 184 5 is_stmt 0 discriminator 1 view .LVU108
 432 008a B9F1000F 		cmp	r9, #0
 433 008e D6DD     		ble	.L30
 434              	.LBE27:
 174:X-CUBE-AI/App/app_x-cube-ai.c ****     ai_error err;
 435              		.loc 1 174 31 view .LVU109
 436 0090 4FF00008 		mov	r8, #0
 437              	.L29:
 438              	.LVL44:
 192:X-CUBE-AI/App/app_x-cube-ai.c ****         err.type = AI_ERROR_INVALID_PARAM;
 439              		.loc 1 192 5 is_stmt 1 view .LVU110
 192:X-CUBE-AI/App/app_x-cube-ai.c ****         err.type = AI_ERROR_INVALID_PARAM;
 440              		.loc 1 192 8 is_stmt 0 view .LVU111
 441 0094 B8F1000F 		cmp	r8, #0
 442 0098 0DD0     		beq	.L42
 198:X-CUBE-AI/App/app_x-cube-ai.c ****         err = found->ai_create(network, found->config);
 443              		.loc 1 198 5 is_stmt 1 view .LVU112
 198:X-CUBE-AI/App/app_x-cube-ai.c ****         err = found->ai_create(network, found->config);
 444              		.loc 1 198 8 is_stmt 0 view .LVU113
 445 009a A6B1     		cbz	r6, .L43
 201:X-CUBE-AI/App/app_x-cube-ai.c ****     if ((err.code == AI_ERROR_CODE_NONE) && (err.type == AI_ERROR_NONE)) {
 446              		.loc 1 201 9 is_stmt 1 view .LVU114
 201:X-CUBE-AI/App/app_x-cube-ai.c ****     if ((err.code == AI_ERROR_CODE_NONE) && (err.type == AI_ERROR_NONE)) {
 447              		.loc 1 201 20 is_stmt 0 view .LVU115
 448 009c D8F84030 		ldr	r3, [r8, #64]
 201:X-CUBE-AI/App/app_x-cube-ai.c ****     if ((err.code == AI_ERROR_CODE_NONE) && (err.type == AI_ERROR_NONE)) {
 449              		.loc 1 201 15 view .LVU116
 450 00a0 3146     		mov	r1, r6
 451 00a2 2046     		mov	r0, r4
 452 00a4 9847     		blx	r3
 453              	.LVL45:
 454              	.L33:
 202:X-CUBE-AI/App/app_x-cube-ai.c ****         inst->entry = found;
 455              		.loc 1 202 5 is_stmt 1 view .LVU117
ARM GAS  C:\Users\zacfi\AppData\Local\Temp\cc8f0CWG.s 			page 14


 202:X-CUBE-AI/App/app_x-cube-ai.c ****         inst->entry = found;
 456              		.loc 1 202 8 is_stmt 0 view .LVU118
 457 00a6 0028     		cmp	r0, #0
 458 00a8 BBD1     		bne	.L27
 203:X-CUBE-AI/App/app_x-cube-ai.c ****         inst->handle = *network;
 459              		.loc 1 203 9 is_stmt 1 view .LVU119
 203:X-CUBE-AI/App/app_x-cube-ai.c ****         inst->handle = *network;
 460              		.loc 1 203 21 is_stmt 0 view .LVU120
 461 00aa C7F80080 		str	r8, [r7]
 204:X-CUBE-AI/App/app_x-cube-ai.c ****         *network = (ai_handle*)inst;
 462              		.loc 1 204 9 is_stmt 1 view .LVU121
 204:X-CUBE-AI/App/app_x-cube-ai.c ****         *network = (ai_handle*)inst;
 463              		.loc 1 204 24 is_stmt 0 view .LVU122
 464 00ae 2368     		ldr	r3, [r4]
 204:X-CUBE-AI/App/app_x-cube-ai.c ****         *network = (ai_handle*)inst;
 465              		.loc 1 204 22 view .LVU123
 466 00b0 7B60     		str	r3, [r7, #4]
 205:X-CUBE-AI/App/app_x-cube-ai.c ****     }
 467              		.loc 1 205 9 is_stmt 1 view .LVU124
 205:X-CUBE-AI/App/app_x-cube-ai.c ****     }
 468              		.loc 1 205 18 is_stmt 0 view .LVU125
 469 00b2 2760     		str	r7, [r4]
 208:X-CUBE-AI/App/app_x-cube-ai.c **** }
 470              		.loc 1 208 5 is_stmt 1 view .LVU126
 208:X-CUBE-AI/App/app_x-cube-ai.c **** }
 471              		.loc 1 208 12 is_stmt 0 view .LVU127
 472 00b4 B5E7     		b	.L27
 473              	.LVL46:
 474              	.L42:
 193:X-CUBE-AI/App/app_x-cube-ai.c ****         err.code = AI_ERROR_CODE_NETWORK;
 475              		.loc 1 193 9 is_stmt 1 view .LVU128
 193:X-CUBE-AI/App/app_x-cube-ai.c ****         err.code = AI_ERROR_CODE_NETWORK;
 476              		.loc 1 193 18 is_stmt 0 view .LVU129
 477 00b6 0020     		movs	r0, #0
 193:X-CUBE-AI/App/app_x-cube-ai.c ****         err.code = AI_ERROR_CODE_NETWORK;
 478              		.loc 1 193 18 view .LVU130
 479 00b8 1423     		movs	r3, #20
 480 00ba 63F30700 		bfi	r0, r3, #0, #8
 481              	.LVL47:
 194:X-CUBE-AI/App/app_x-cube-ai.c ****         return err;
 482              		.loc 1 194 9 is_stmt 1 view .LVU131
 194:X-CUBE-AI/App/app_x-cube-ai.c ****         return err;
 483              		.loc 1 194 18 is_stmt 0 view .LVU132
 484 00be 1023     		movs	r3, #16
 485 00c0 63F31F20 		bfi	r0, r3, #8, #24
 195:X-CUBE-AI/App/app_x-cube-ai.c ****     }
 486              		.loc 1 195 9 is_stmt 1 view .LVU133
 195:X-CUBE-AI/App/app_x-cube-ai.c ****     }
 487              		.loc 1 195 16 is_stmt 0 view .LVU134
 488 00c4 ADE7     		b	.L27
 489              	.LVL48:
 490              	.L43:
 199:X-CUBE-AI/App/app_x-cube-ai.c ****     else
 491              		.loc 1 199 9 is_stmt 1 view .LVU135
 199:X-CUBE-AI/App/app_x-cube-ai.c ****     else
 492              		.loc 1 199 20 is_stmt 0 view .LVU136
 493 00c6 D8F84030 		ldr	r3, [r8, #64]
ARM GAS  C:\Users\zacfi\AppData\Local\Temp\cc8f0CWG.s 			page 15


 199:X-CUBE-AI/App/app_x-cube-ai.c ****     else
 494              		.loc 1 199 15 view .LVU137
 495 00ca D8F83410 		ldr	r1, [r8, #52]
 496 00ce 2046     		mov	r0, r4
 497 00d0 9847     		blx	r3
 498              	.LVL49:
 499 00d2 E8E7     		b	.L33
 500              	.L45:
 501              		.align	2
 502              	.L44:
 503 00d4 00000000 		.word	.LANCHOR1
 504 00d8 00000000 		.word	.LANCHOR0
 505              		.cfi_endproc
 506              	.LFE139:
 508              		.section	.text.ai_mnetwork_destroy,"ax",%progbits
 509              		.align	1
 510              		.global	ai_mnetwork_destroy
 511              		.syntax unified
 512              		.thumb
 513              		.thumb_func
 514              		.fpu fpv4-sp-d16
 516              	ai_mnetwork_destroy:
 517              	.LVL50:
 518              	.LFB140:
 210:X-CUBE-AI/App/app_x-cube-ai.c **** 
 211:X-CUBE-AI/App/app_x-cube-ai.c **** AI_API_ENTRY
 212:X-CUBE-AI/App/app_x-cube-ai.c **** ai_handle ai_mnetwork_destroy(ai_handle network)
 213:X-CUBE-AI/App/app_x-cube-ai.c **** {
 519              		.loc 1 213 1 is_stmt 1 view -0
 520              		.cfi_startproc
 521              		@ args = 0, pretend = 0, frame = 0
 522              		@ frame_needed = 0, uses_anonymous_args = 0
 523              		.loc 1 213 1 is_stmt 0 view .LVU139
 524 0000 38B5     		push	{r3, r4, r5, lr}
 525              	.LCFI4:
 526              		.cfi_def_cfa_offset 16
 527              		.cfi_offset 3, -16
 528              		.cfi_offset 4, -12
 529              		.cfi_offset 5, -8
 530              		.cfi_offset 14, -4
 531 0002 0446     		mov	r4, r0
 214:X-CUBE-AI/App/app_x-cube-ai.c ****     struct network_instance *inn;
 532              		.loc 1 214 5 is_stmt 1 view .LVU140
 215:X-CUBE-AI/App/app_x-cube-ai.c ****     inn =  ai_mnetwork_handle((struct network_instance *)network);
 533              		.loc 1 215 5 view .LVU141
 534              	.LVL51:
 535              	.LBB39:
 536              	.LBI39:
 130:X-CUBE-AI/App/app_x-cube-ai.c **** {
 537              		.loc 1 130 26 view .LVU142
 538              	.LBB40:
 132:X-CUBE-AI/App/app_x-cube-ai.c ****         if ((inst) && (&gnetworks[i] == inst))
 539              		.loc 1 132 5 view .LVU143
 540              	.LBB41:
 132:X-CUBE-AI/App/app_x-cube-ai.c ****         if ((inst) && (&gnetworks[i] == inst))
 541              		.loc 1 132 10 view .LVU144
 132:X-CUBE-AI/App/app_x-cube-ai.c ****         if ((inst) && (&gnetworks[i] == inst))
ARM GAS  C:\Users\zacfi\AppData\Local\Temp\cc8f0CWG.s 			page 16


 542              		.loc 1 132 14 is_stmt 0 view .LVU145
 543 0004 0023     		movs	r3, #0
 544              	.LVL52:
 545              	.L47:
 132:X-CUBE-AI/App/app_x-cube-ai.c ****         if ((inst) && (&gnetworks[i] == inst))
 546              		.loc 1 132 19 is_stmt 1 view .LVU146
 132:X-CUBE-AI/App/app_x-cube-ai.c ****         if ((inst) && (&gnetworks[i] == inst))
 547              		.loc 1 132 5 is_stmt 0 view .LVU147
 548 0006 002B     		cmp	r3, #0
 549 0008 0ADD     		ble	.L51
 550              	.LBE41:
 138:X-CUBE-AI/App/app_x-cube-ai.c **** }
 551              		.loc 1 138 12 view .LVU148
 552 000a 0025     		movs	r5, #0
 553              	.LVL53:
 554              	.L49:
 138:X-CUBE-AI/App/app_x-cube-ai.c **** }
 555              		.loc 1 138 12 view .LVU149
 556              	.LBE40:
 557              	.LBE39:
 216:X-CUBE-AI/App/app_x-cube-ai.c ****     if (inn) {
 558              		.loc 1 216 5 is_stmt 1 view .LVU150
 559              		.loc 1 216 8 is_stmt 0 view .LVU151
 560 000c 35B1     		cbz	r5, .L52
 561              	.LBB44:
 217:X-CUBE-AI/App/app_x-cube-ai.c ****         ai_handle hdl = inn->entry->ai_destroy(inn->handle);
 562              		.loc 1 217 9 is_stmt 1 view .LVU152
 563              		.loc 1 217 28 is_stmt 0 view .LVU153
 564 000e 2B68     		ldr	r3, [r5]
 565              		.loc 1 217 35 view .LVU154
 566 0010 9B6C     		ldr	r3, [r3, #72]
 567              		.loc 1 217 25 view .LVU155
 568 0012 6868     		ldr	r0, [r5, #4]
 569              	.LVL54:
 570              		.loc 1 217 25 view .LVU156
 571 0014 9847     		blx	r3
 572              	.LVL55:
 218:X-CUBE-AI/App/app_x-cube-ai.c ****         if (hdl != inn->handle) {
 573              		.loc 1 218 9 is_stmt 1 view .LVU157
 574              		.loc 1 218 23 is_stmt 0 view .LVU158
 575 0016 6B68     		ldr	r3, [r5, #4]
 576              		.loc 1 218 12 view .LVU159
 577 0018 8342     		cmp	r3, r0
 578 001a 2BD1     		bne	.L60
 579              	.LVL56:
 580              	.L52:
 581              		.loc 1 218 12 view .LVU160
 582              	.LBE44:
 219:X-CUBE-AI/App/app_x-cube-ai.c ****             ai_mnetwork_release_handle(inn);
 220:X-CUBE-AI/App/app_x-cube-ai.c ****             network = AI_HANDLE_NULL;
 221:X-CUBE-AI/App/app_x-cube-ai.c ****         }
 222:X-CUBE-AI/App/app_x-cube-ai.c ****     }
 223:X-CUBE-AI/App/app_x-cube-ai.c ****     return network;
 583              		.loc 1 223 5 is_stmt 1 view .LVU161
 224:X-CUBE-AI/App/app_x-cube-ai.c **** }
 584              		.loc 1 224 1 is_stmt 0 view .LVU162
 585 001c 2046     		mov	r0, r4
ARM GAS  C:\Users\zacfi\AppData\Local\Temp\cc8f0CWG.s 			page 17


 586 001e 38BD     		pop	{r3, r4, r5, pc}
 587              	.LVL57:
 588              	.L51:
 589              	.LBB47:
 590              	.LBB43:
 591              	.LBB42:
 133:X-CUBE-AI/App/app_x-cube-ai.c ****             return inst;
 592              		.loc 1 133 9 is_stmt 1 view .LVU163
 133:X-CUBE-AI/App/app_x-cube-ai.c ****             return inst;
 593              		.loc 1 133 12 is_stmt 0 view .LVU164
 594 0020 34B1     		cbz	r4, .L48
 133:X-CUBE-AI/App/app_x-cube-ai.c ****             return inst;
 595              		.loc 1 133 24 view .LVU165
 596 0022 C3EBC302 		rsb	r2, r3, r3, lsl #3
 597 0026 1649     		ldr	r1, .L63
 598 0028 01EBC202 		add	r2, r1, r2, lsl #3
 133:X-CUBE-AI/App/app_x-cube-ai.c ****             return inst;
 599              		.loc 1 133 20 view .LVU166
 600 002c 9442     		cmp	r4, r2
 601 002e 0ED0     		beq	.L57
 602              	.L48:
 135:X-CUBE-AI/App/app_x-cube-ai.c ****             return &gnetworks[i];
 603              		.loc 1 135 14 is_stmt 1 view .LVU167
 135:X-CUBE-AI/App/app_x-cube-ai.c ****             return &gnetworks[i];
 604              		.loc 1 135 17 is_stmt 0 view .LVU168
 605 0030 0CB1     		cbz	r4, .L61
 606              	.L50:
 132:X-CUBE-AI/App/app_x-cube-ai.c ****         if ((inst) && (&gnetworks[i] == inst))
 607              		.loc 1 132 41 is_stmt 1 view .LVU169
 132:X-CUBE-AI/App/app_x-cube-ai.c ****         if ((inst) && (&gnetworks[i] == inst))
 608              		.loc 1 132 42 is_stmt 0 view .LVU170
 609 0032 0133     		adds	r3, r3, #1
 610              	.LVL58:
 132:X-CUBE-AI/App/app_x-cube-ai.c ****         if ((inst) && (&gnetworks[i] == inst))
 611              		.loc 1 132 42 view .LVU171
 612 0034 E7E7     		b	.L47
 613              	.L61:
 135:X-CUBE-AI/App/app_x-cube-ai.c ****             return &gnetworks[i];
 614              		.loc 1 135 42 view .LVU172
 615 0036 C3EBC302 		rsb	r2, r3, r3, lsl #3
 616 003a 1149     		ldr	r1, .L63
 617 003c 51F83220 		ldr	r2, [r1, r2, lsl #3]
 135:X-CUBE-AI/App/app_x-cube-ai.c ****             return &gnetworks[i];
 618              		.loc 1 135 26 view .LVU173
 619 0040 002A     		cmp	r2, #0
 620 0042 F6D1     		bne	.L50
 136:X-CUBE-AI/App/app_x-cube-ai.c ****     }
 621              		.loc 1 136 13 is_stmt 1 view .LVU174
 136:X-CUBE-AI/App/app_x-cube-ai.c ****     }
 622              		.loc 1 136 20 is_stmt 0 view .LVU175
 623 0044 C3EBC303 		rsb	r3, r3, r3, lsl #3
 624              	.LVL59:
 136:X-CUBE-AI/App/app_x-cube-ai.c ****     }
 625              		.loc 1 136 20 view .LVU176
 626 0048 01EBC305 		add	r5, r1, r3, lsl #3
 627 004c DEE7     		b	.L49
 628              	.LVL60:
ARM GAS  C:\Users\zacfi\AppData\Local\Temp\cc8f0CWG.s 			page 18


 629              	.L57:
 134:X-CUBE-AI/App/app_x-cube-ai.c ****         else if ((!inst) && (gnetworks[i].entry == NULL))
 630              		.loc 1 134 20 view .LVU177
 631 004e 2546     		mov	r5, r4
 632 0050 DCE7     		b	.L49
 633              	.LVL61:
 634              	.L56:
 134:X-CUBE-AI/App/app_x-cube-ai.c ****         else if ((!inst) && (gnetworks[i].entry == NULL))
 635              		.loc 1 134 20 view .LVU178
 636              	.LBE42:
 637              	.LBE43:
 638              	.LBE47:
 639              	.LBB48:
 640              	.LBB45:
 641              	.LBB46:
 145:X-CUBE-AI/App/app_x-cube-ai.c ****             gnetworks[i].entry = NULL;
 642              		.loc 1 145 9 is_stmt 1 view .LVU179
 145:X-CUBE-AI/App/app_x-cube-ai.c ****             gnetworks[i].entry = NULL;
 643              		.loc 1 145 12 is_stmt 0 view .LVU180
 644 0052 35B1     		cbz	r5, .L54
 145:X-CUBE-AI/App/app_x-cube-ai.c ****             gnetworks[i].entry = NULL;
 645              		.loc 1 145 24 view .LVU181
 646 0054 C3EBC302 		rsb	r2, r3, r3, lsl #3
 647 0058 0949     		ldr	r1, .L63
 648 005a 01EBC202 		add	r2, r1, r2, lsl #3
 145:X-CUBE-AI/App/app_x-cube-ai.c ****             gnetworks[i].entry = NULL;
 649              		.loc 1 145 20 view .LVU182
 650 005e 9542     		cmp	r5, r2
 651 0060 01D0     		beq	.L62
 652              	.L54:
 144:X-CUBE-AI/App/app_x-cube-ai.c ****         if ((inst) && (&gnetworks[i] == inst)) {
 653              		.loc 1 144 41 is_stmt 1 view .LVU183
 144:X-CUBE-AI/App/app_x-cube-ai.c ****         if ((inst) && (&gnetworks[i] == inst)) {
 654              		.loc 1 144 42 is_stmt 0 view .LVU184
 655 0062 0133     		adds	r3, r3, #1
 656              	.LVL62:
 144:X-CUBE-AI/App/app_x-cube-ai.c ****         if ((inst) && (&gnetworks[i] == inst)) {
 657              		.loc 1 144 42 view .LVU185
 658 0064 07E0     		b	.L53
 659              	.L62:
 146:X-CUBE-AI/App/app_x-cube-ai.c ****             return;
 660              		.loc 1 146 13 is_stmt 1 view .LVU186
 146:X-CUBE-AI/App/app_x-cube-ai.c ****             return;
 661              		.loc 1 146 32 is_stmt 0 view .LVU187
 662 0066 C3EBC303 		rsb	r3, r3, r3, lsl #3
 663              	.LVL63:
 146:X-CUBE-AI/App/app_x-cube-ai.c ****             return;
 664              		.loc 1 146 32 view .LVU188
 665 006a DB00     		lsls	r3, r3, #3
 666 006c 0A46     		mov	r2, r1
 667 006e 0021     		movs	r1, #0
 668 0070 D150     		str	r1, [r2, r3]
 147:X-CUBE-AI/App/app_x-cube-ai.c ****         }
 669              		.loc 1 147 13 is_stmt 1 view .LVU189
 670 0072 02E0     		b	.L55
 671              	.L60:
 144:X-CUBE-AI/App/app_x-cube-ai.c ****         if ((inst) && (&gnetworks[i] == inst)) {
ARM GAS  C:\Users\zacfi\AppData\Local\Temp\cc8f0CWG.s 			page 19


 672              		.loc 1 144 14 is_stmt 0 view .LVU190
 673 0074 0023     		movs	r3, #0
 674              	.L53:
 675              	.LVL64:
 144:X-CUBE-AI/App/app_x-cube-ai.c ****         if ((inst) && (&gnetworks[i] == inst)) {
 676              		.loc 1 144 19 is_stmt 1 view .LVU191
 144:X-CUBE-AI/App/app_x-cube-ai.c ****         if ((inst) && (&gnetworks[i] == inst)) {
 677              		.loc 1 144 5 is_stmt 0 view .LVU192
 678 0076 002B     		cmp	r3, #0
 679 0078 EBDD     		ble	.L56
 680              	.LVL65:
 681              	.L55:
 144:X-CUBE-AI/App/app_x-cube-ai.c ****         if ((inst) && (&gnetworks[i] == inst)) {
 682              		.loc 1 144 5 view .LVU193
 683              	.LBE46:
 684              	.LBE45:
 220:X-CUBE-AI/App/app_x-cube-ai.c ****         }
 685              		.loc 1 220 21 view .LVU194
 686 007a 0024     		movs	r4, #0
 687              	.LVL66:
 220:X-CUBE-AI/App/app_x-cube-ai.c ****         }
 688              		.loc 1 220 21 view .LVU195
 689 007c CEE7     		b	.L52
 690              	.L64:
 691 007e 00BF     		.align	2
 692              	.L63:
 693 0080 00000000 		.word	.LANCHOR1
 694              	.LBE48:
 695              		.cfi_endproc
 696              	.LFE140:
 698              		.section	.text.ai_mnetwork_get_info,"ax",%progbits
 699              		.align	1
 700              		.global	ai_mnetwork_get_info
 701              		.syntax unified
 702              		.thumb
 703              		.thumb_func
 704              		.fpu fpv4-sp-d16
 706              	ai_mnetwork_get_info:
 707              	.LVL67:
 708              	.LFB141:
 225:X-CUBE-AI/App/app_x-cube-ai.c **** 
 226:X-CUBE-AI/App/app_x-cube-ai.c **** AI_API_ENTRY
 227:X-CUBE-AI/App/app_x-cube-ai.c **** ai_bool ai_mnetwork_get_info(ai_handle network, ai_network_report* report)
 228:X-CUBE-AI/App/app_x-cube-ai.c **** {
 709              		.loc 1 228 1 is_stmt 1 view -0
 710              		.cfi_startproc
 711              		@ args = 0, pretend = 0, frame = 0
 712              		@ frame_needed = 0, uses_anonymous_args = 0
 713              		.loc 1 228 1 is_stmt 0 view .LVU197
 714 0000 10B5     		push	{r4, lr}
 715              	.LCFI5:
 716              		.cfi_def_cfa_offset 8
 717              		.cfi_offset 4, -8
 718              		.cfi_offset 14, -4
 229:X-CUBE-AI/App/app_x-cube-ai.c ****     struct network_instance *inn;
 719              		.loc 1 229 5 is_stmt 1 view .LVU198
 230:X-CUBE-AI/App/app_x-cube-ai.c ****     inn =  ai_mnetwork_handle((struct network_instance *)network);
ARM GAS  C:\Users\zacfi\AppData\Local\Temp\cc8f0CWG.s 			page 20


 720              		.loc 1 230 5 view .LVU199
 721              	.LVL68:
 722              	.LBB52:
 723              	.LBI52:
 130:X-CUBE-AI/App/app_x-cube-ai.c **** {
 724              		.loc 1 130 26 view .LVU200
 725              	.LBB53:
 132:X-CUBE-AI/App/app_x-cube-ai.c ****         if ((inst) && (&gnetworks[i] == inst))
 726              		.loc 1 132 5 view .LVU201
 727              	.LBB54:
 132:X-CUBE-AI/App/app_x-cube-ai.c ****         if ((inst) && (&gnetworks[i] == inst))
 728              		.loc 1 132 10 view .LVU202
 132:X-CUBE-AI/App/app_x-cube-ai.c ****         if ((inst) && (&gnetworks[i] == inst))
 729              		.loc 1 132 14 is_stmt 0 view .LVU203
 730 0002 0023     		movs	r3, #0
 731              	.LVL69:
 732              	.L66:
 132:X-CUBE-AI/App/app_x-cube-ai.c ****         if ((inst) && (&gnetworks[i] == inst))
 733              		.loc 1 132 19 is_stmt 1 view .LVU204
 132:X-CUBE-AI/App/app_x-cube-ai.c ****         if ((inst) && (&gnetworks[i] == inst))
 734              		.loc 1 132 5 is_stmt 0 view .LVU205
 735 0004 002B     		cmp	r3, #0
 736 0006 06DD     		ble	.L70
 737              	.LBE54:
 138:X-CUBE-AI/App/app_x-cube-ai.c **** }
 738              		.loc 1 138 12 view .LVU206
 739 0008 0020     		movs	r0, #0
 740              	.LVL70:
 741              	.L68:
 138:X-CUBE-AI/App/app_x-cube-ai.c **** }
 742              		.loc 1 138 12 view .LVU207
 743              	.LBE53:
 744              	.LBE52:
 231:X-CUBE-AI/App/app_x-cube-ai.c ****     if (inn)
 745              		.loc 1 231 5 is_stmt 1 view .LVU208
 746              		.loc 1 231 8 is_stmt 0 view .LVU209
 747 000a D8B1     		cbz	r0, .L72
 232:X-CUBE-AI/App/app_x-cube-ai.c ****         return inn->entry->ai_get_info(inn->handle, report);
 748              		.loc 1 232 9 is_stmt 1 view .LVU210
 749              		.loc 1 232 19 is_stmt 0 view .LVU211
 750 000c 0368     		ldr	r3, [r0]
 751              		.loc 1 232 26 view .LVU212
 752 000e DB6B     		ldr	r3, [r3, #60]
 753              		.loc 1 232 16 view .LVU213
 754 0010 4068     		ldr	r0, [r0, #4]
 755              	.LVL71:
 756              		.loc 1 232 16 view .LVU214
 757 0012 9847     		blx	r3
 758              	.LVL72:
 759              	.L71:
 233:X-CUBE-AI/App/app_x-cube-ai.c ****     else
 234:X-CUBE-AI/App/app_x-cube-ai.c ****         return false;
 235:X-CUBE-AI/App/app_x-cube-ai.c **** }
 760              		.loc 1 235 1 view .LVU215
 761 0014 10BD     		pop	{r4, pc}
 762              	.LVL73:
 763              	.L70:
ARM GAS  C:\Users\zacfi\AppData\Local\Temp\cc8f0CWG.s 			page 21


 764              	.LBB57:
 765              	.LBB56:
 766              	.LBB55:
 133:X-CUBE-AI/App/app_x-cube-ai.c ****             return inst;
 767              		.loc 1 133 9 is_stmt 1 view .LVU216
 133:X-CUBE-AI/App/app_x-cube-ai.c ****             return inst;
 768              		.loc 1 133 12 is_stmt 0 view .LVU217
 769 0016 30B1     		cbz	r0, .L67
 133:X-CUBE-AI/App/app_x-cube-ai.c ****             return inst;
 770              		.loc 1 133 24 view .LVU218
 771 0018 C3EBC302 		rsb	r2, r3, r3, lsl #3
 772 001c 0A4C     		ldr	r4, .L75
 773 001e 04EBC202 		add	r2, r4, r2, lsl #3
 133:X-CUBE-AI/App/app_x-cube-ai.c ****             return inst;
 774              		.loc 1 133 20 view .LVU219
 775 0022 9042     		cmp	r0, r2
 776 0024 F1D0     		beq	.L68
 777              	.L67:
 135:X-CUBE-AI/App/app_x-cube-ai.c ****             return &gnetworks[i];
 778              		.loc 1 135 14 is_stmt 1 view .LVU220
 135:X-CUBE-AI/App/app_x-cube-ai.c ****             return &gnetworks[i];
 779              		.loc 1 135 17 is_stmt 0 view .LVU221
 780 0026 08B1     		cbz	r0, .L74
 781              	.L69:
 132:X-CUBE-AI/App/app_x-cube-ai.c ****         if ((inst) && (&gnetworks[i] == inst))
 782              		.loc 1 132 41 is_stmt 1 view .LVU222
 132:X-CUBE-AI/App/app_x-cube-ai.c ****         if ((inst) && (&gnetworks[i] == inst))
 783              		.loc 1 132 42 is_stmt 0 view .LVU223
 784 0028 0133     		adds	r3, r3, #1
 785              	.LVL74:
 132:X-CUBE-AI/App/app_x-cube-ai.c ****         if ((inst) && (&gnetworks[i] == inst))
 786              		.loc 1 132 42 view .LVU224
 787 002a EBE7     		b	.L66
 788              	.L74:
 135:X-CUBE-AI/App/app_x-cube-ai.c ****             return &gnetworks[i];
 789              		.loc 1 135 42 view .LVU225
 790 002c C3EBC302 		rsb	r2, r3, r3, lsl #3
 791 0030 054C     		ldr	r4, .L75
 792 0032 54F83220 		ldr	r2, [r4, r2, lsl #3]
 135:X-CUBE-AI/App/app_x-cube-ai.c ****             return &gnetworks[i];
 793              		.loc 1 135 26 view .LVU226
 794 0036 002A     		cmp	r2, #0
 795 0038 F6D1     		bne	.L69
 136:X-CUBE-AI/App/app_x-cube-ai.c ****     }
 796              		.loc 1 136 13 is_stmt 1 view .LVU227
 136:X-CUBE-AI/App/app_x-cube-ai.c ****     }
 797              		.loc 1 136 20 is_stmt 0 view .LVU228
 798 003a C3EBC303 		rsb	r3, r3, r3, lsl #3
 799              	.LVL75:
 136:X-CUBE-AI/App/app_x-cube-ai.c ****     }
 800              		.loc 1 136 20 view .LVU229
 801 003e 04EBC300 		add	r0, r4, r3, lsl #3
 802              	.LVL76:
 136:X-CUBE-AI/App/app_x-cube-ai.c ****     }
 803              		.loc 1 136 20 view .LVU230
 804 0042 E2E7     		b	.L68
 805              	.LVL77:
ARM GAS  C:\Users\zacfi\AppData\Local\Temp\cc8f0CWG.s 			page 22


 806              	.L72:
 136:X-CUBE-AI/App/app_x-cube-ai.c ****     }
 807              		.loc 1 136 20 view .LVU231
 808              	.LBE55:
 809              	.LBE56:
 810              	.LBE57:
 234:X-CUBE-AI/App/app_x-cube-ai.c **** }
 811              		.loc 1 234 16 view .LVU232
 812 0044 0020     		movs	r0, #0
 813              	.LVL78:
 234:X-CUBE-AI/App/app_x-cube-ai.c **** }
 814              		.loc 1 234 16 view .LVU233
 815 0046 E5E7     		b	.L71
 816              	.L76:
 817              		.align	2
 818              	.L75:
 819 0048 00000000 		.word	.LANCHOR1
 820              		.cfi_endproc
 821              	.LFE141:
 823              		.section	.text.ai_mnetwork_get_error,"ax",%progbits
 824              		.align	1
 825              		.global	ai_mnetwork_get_error
 826              		.syntax unified
 827              		.thumb
 828              		.thumb_func
 829              		.fpu fpv4-sp-d16
 831              	ai_mnetwork_get_error:
 832              	.LVL79:
 833              	.LFB142:
 236:X-CUBE-AI/App/app_x-cube-ai.c **** 
 237:X-CUBE-AI/App/app_x-cube-ai.c **** AI_API_ENTRY
 238:X-CUBE-AI/App/app_x-cube-ai.c **** ai_error ai_mnetwork_get_error(ai_handle network)
 239:X-CUBE-AI/App/app_x-cube-ai.c **** {
 834              		.loc 1 239 1 is_stmt 1 view -0
 835              		.cfi_startproc
 836              		@ args = 0, pretend = 0, frame = 0
 837              		@ frame_needed = 0, uses_anonymous_args = 0
 838              		.loc 1 239 1 is_stmt 0 view .LVU235
 839 0000 10B5     		push	{r4, lr}
 840              	.LCFI6:
 841              		.cfi_def_cfa_offset 8
 842              		.cfi_offset 4, -8
 843              		.cfi_offset 14, -4
 240:X-CUBE-AI/App/app_x-cube-ai.c ****     struct network_instance *inn;
 844              		.loc 1 240 5 is_stmt 1 view .LVU236
 241:X-CUBE-AI/App/app_x-cube-ai.c ****     ai_error err;
 845              		.loc 1 241 5 view .LVU237
 242:X-CUBE-AI/App/app_x-cube-ai.c ****     err.type = AI_ERROR_INVALID_PARAM;
 846              		.loc 1 242 5 view .LVU238
 847              		.loc 1 242 14 is_stmt 0 view .LVU239
 848 0002 0022     		movs	r2, #0
 849              	.LVL80:
 850              		.loc 1 242 14 view .LVU240
 851 0004 1423     		movs	r3, #20
 852 0006 63F30702 		bfi	r2, r3, #0, #8
 853              	.LVL81:
 243:X-CUBE-AI/App/app_x-cube-ai.c ****     err.code = AI_ERROR_CODE_NETWORK;
ARM GAS  C:\Users\zacfi\AppData\Local\Temp\cc8f0CWG.s 			page 23


 854              		.loc 1 243 5 is_stmt 1 view .LVU241
 855              		.loc 1 243 14 is_stmt 0 view .LVU242
 856 000a 1023     		movs	r3, #16
 857 000c 63F31F22 		bfi	r2, r3, #8, #24
 244:X-CUBE-AI/App/app_x-cube-ai.c **** 
 245:X-CUBE-AI/App/app_x-cube-ai.c ****     inn =  ai_mnetwork_handle((struct network_instance *)network);
 858              		.loc 1 245 5 is_stmt 1 view .LVU243
 859              	.LVL82:
 860              	.LBB61:
 861              	.LBI61:
 130:X-CUBE-AI/App/app_x-cube-ai.c **** {
 862              		.loc 1 130 26 view .LVU244
 863              	.LBB62:
 132:X-CUBE-AI/App/app_x-cube-ai.c ****         if ((inst) && (&gnetworks[i] == inst))
 864              		.loc 1 132 5 view .LVU245
 865              	.LBB63:
 132:X-CUBE-AI/App/app_x-cube-ai.c ****         if ((inst) && (&gnetworks[i] == inst))
 866              		.loc 1 132 10 view .LVU246
 132:X-CUBE-AI/App/app_x-cube-ai.c ****         if ((inst) && (&gnetworks[i] == inst))
 867              		.loc 1 132 14 is_stmt 0 view .LVU247
 868 0010 0023     		movs	r3, #0
 869              	.LVL83:
 870              	.L78:
 132:X-CUBE-AI/App/app_x-cube-ai.c ****         if ((inst) && (&gnetworks[i] == inst))
 871              		.loc 1 132 19 is_stmt 1 view .LVU248
 132:X-CUBE-AI/App/app_x-cube-ai.c ****         if ((inst) && (&gnetworks[i] == inst))
 872              		.loc 1 132 5 is_stmt 0 view .LVU249
 873 0012 002B     		cmp	r3, #0
 874 0014 06DD     		ble	.L82
 875              	.LBE63:
 138:X-CUBE-AI/App/app_x-cube-ai.c **** }
 876              		.loc 1 138 12 view .LVU250
 877 0016 0020     		movs	r0, #0
 878              	.LVL84:
 879              	.L80:
 138:X-CUBE-AI/App/app_x-cube-ai.c **** }
 880              		.loc 1 138 12 view .LVU251
 881              	.LBE62:
 882              	.LBE61:
 246:X-CUBE-AI/App/app_x-cube-ai.c ****     if (inn)
 883              		.loc 1 246 5 is_stmt 1 view .LVU252
 884              		.loc 1 246 8 is_stmt 0 view .LVU253
 885 0018 D8B1     		cbz	r0, .L83
 247:X-CUBE-AI/App/app_x-cube-ai.c ****         return inn->entry->ai_get_error(inn->handle);
 886              		.loc 1 247 9 is_stmt 1 view .LVU254
 887              		.loc 1 247 19 is_stmt 0 view .LVU255
 888 001a 0368     		ldr	r3, [r0]
 889              		.loc 1 247 26 view .LVU256
 890 001c 5B6C     		ldr	r3, [r3, #68]
 891              		.loc 1 247 16 view .LVU257
 892 001e 4068     		ldr	r0, [r0, #4]
 893              	.LVL85:
 894              		.loc 1 247 16 view .LVU258
 895 0020 9847     		blx	r3
 896              	.LVL86:
 897              	.L84:
 248:X-CUBE-AI/App/app_x-cube-ai.c ****     else
ARM GAS  C:\Users\zacfi\AppData\Local\Temp\cc8f0CWG.s 			page 24


 249:X-CUBE-AI/App/app_x-cube-ai.c ****         return err;
 250:X-CUBE-AI/App/app_x-cube-ai.c **** }
 898              		.loc 1 250 1 view .LVU259
 899 0022 10BD     		pop	{r4, pc}
 900              	.LVL87:
 901              	.L82:
 902              	.LBB66:
 903              	.LBB65:
 904              	.LBB64:
 133:X-CUBE-AI/App/app_x-cube-ai.c ****             return inst;
 905              		.loc 1 133 9 is_stmt 1 view .LVU260
 133:X-CUBE-AI/App/app_x-cube-ai.c ****             return inst;
 906              		.loc 1 133 12 is_stmt 0 view .LVU261
 907 0024 30B1     		cbz	r0, .L79
 133:X-CUBE-AI/App/app_x-cube-ai.c ****             return inst;
 908              		.loc 1 133 24 view .LVU262
 909 0026 C3EBC301 		rsb	r1, r3, r3, lsl #3
 910 002a 0B4C     		ldr	r4, .L87
 911 002c 04EBC101 		add	r1, r4, r1, lsl #3
 133:X-CUBE-AI/App/app_x-cube-ai.c ****             return inst;
 912              		.loc 1 133 20 view .LVU263
 913 0030 8842     		cmp	r0, r1
 914 0032 F1D0     		beq	.L80
 915              	.L79:
 135:X-CUBE-AI/App/app_x-cube-ai.c ****             return &gnetworks[i];
 916              		.loc 1 135 14 is_stmt 1 view .LVU264
 135:X-CUBE-AI/App/app_x-cube-ai.c ****             return &gnetworks[i];
 917              		.loc 1 135 17 is_stmt 0 view .LVU265
 918 0034 08B1     		cbz	r0, .L86
 919              	.L81:
 132:X-CUBE-AI/App/app_x-cube-ai.c ****         if ((inst) && (&gnetworks[i] == inst))
 920              		.loc 1 132 41 is_stmt 1 view .LVU266
 132:X-CUBE-AI/App/app_x-cube-ai.c ****         if ((inst) && (&gnetworks[i] == inst))
 921              		.loc 1 132 42 is_stmt 0 view .LVU267
 922 0036 0133     		adds	r3, r3, #1
 923              	.LVL88:
 132:X-CUBE-AI/App/app_x-cube-ai.c ****         if ((inst) && (&gnetworks[i] == inst))
 924              		.loc 1 132 42 view .LVU268
 925 0038 EBE7     		b	.L78
 926              	.L86:
 135:X-CUBE-AI/App/app_x-cube-ai.c ****             return &gnetworks[i];
 927              		.loc 1 135 42 view .LVU269
 928 003a C3EBC301 		rsb	r1, r3, r3, lsl #3
 929 003e 064C     		ldr	r4, .L87
 930 0040 54F83110 		ldr	r1, [r4, r1, lsl #3]
 135:X-CUBE-AI/App/app_x-cube-ai.c ****             return &gnetworks[i];
 931              		.loc 1 135 26 view .LVU270
 932 0044 0029     		cmp	r1, #0
 933 0046 F6D1     		bne	.L81
 136:X-CUBE-AI/App/app_x-cube-ai.c ****     }
 934              		.loc 1 136 13 is_stmt 1 view .LVU271
 136:X-CUBE-AI/App/app_x-cube-ai.c ****     }
 935              		.loc 1 136 20 is_stmt 0 view .LVU272
 936 0048 C3EBC303 		rsb	r3, r3, r3, lsl #3
 937              	.LVL89:
 136:X-CUBE-AI/App/app_x-cube-ai.c ****     }
 938              		.loc 1 136 20 view .LVU273
ARM GAS  C:\Users\zacfi\AppData\Local\Temp\cc8f0CWG.s 			page 25


 939 004c 04EBC300 		add	r0, r4, r3, lsl #3
 940              	.LVL90:
 136:X-CUBE-AI/App/app_x-cube-ai.c ****     }
 941              		.loc 1 136 20 view .LVU274
 942 0050 E2E7     		b	.L80
 943              	.LVL91:
 944              	.L83:
 136:X-CUBE-AI/App/app_x-cube-ai.c ****     }
 945              		.loc 1 136 20 view .LVU275
 946              	.LBE64:
 947              	.LBE65:
 948              	.LBE66:
 249:X-CUBE-AI/App/app_x-cube-ai.c **** }
 949              		.loc 1 249 9 is_stmt 1 view .LVU276
 249:X-CUBE-AI/App/app_x-cube-ai.c **** }
 950              		.loc 1 249 16 is_stmt 0 view .LVU277
 951 0052 1046     		mov	r0, r2
 952              	.LVL92:
 249:X-CUBE-AI/App/app_x-cube-ai.c **** }
 953              		.loc 1 249 16 view .LVU278
 954 0054 E5E7     		b	.L84
 955              	.L88:
 956 0056 00BF     		.align	2
 957              	.L87:
 958 0058 00000000 		.word	.LANCHOR1
 959              		.cfi_endproc
 960              	.LFE142:
 962              		.section	.text.ai_mnetwork_init,"ax",%progbits
 963              		.align	1
 964              		.global	ai_mnetwork_init
 965              		.syntax unified
 966              		.thumb
 967              		.thumb_func
 968              		.fpu fpv4-sp-d16
 970              	ai_mnetwork_init:
 971              	.LVL93:
 972              	.LFB143:
 251:X-CUBE-AI/App/app_x-cube-ai.c **** 
 252:X-CUBE-AI/App/app_x-cube-ai.c **** AI_API_ENTRY
 253:X-CUBE-AI/App/app_x-cube-ai.c **** ai_bool ai_mnetwork_init(ai_handle network, const ai_network_params* params)
 254:X-CUBE-AI/App/app_x-cube-ai.c **** {
 973              		.loc 1 254 1 is_stmt 1 view -0
 974              		.cfi_startproc
 975              		@ args = 0, pretend = 0, frame = 48
 976              		@ frame_needed = 0, uses_anonymous_args = 0
 977              		.loc 1 254 1 is_stmt 0 view .LVU280
 978 0000 30B5     		push	{r4, r5, lr}
 979              	.LCFI7:
 980              		.cfi_def_cfa_offset 12
 981              		.cfi_offset 4, -12
 982              		.cfi_offset 5, -8
 983              		.cfi_offset 14, -4
 984 0002 8DB0     		sub	sp, sp, #52
 985              	.LCFI8:
 986              		.cfi_def_cfa_offset 64
 987 0004 0446     		mov	r4, r0
 988 0006 0D46     		mov	r5, r1
ARM GAS  C:\Users\zacfi\AppData\Local\Temp\cc8f0CWG.s 			page 26


 255:X-CUBE-AI/App/app_x-cube-ai.c ****     struct network_instance *inn;
 989              		.loc 1 255 5 is_stmt 1 view .LVU281
 256:X-CUBE-AI/App/app_x-cube-ai.c ****     ai_network_params par;
 990              		.loc 1 256 5 view .LVU282
 257:X-CUBE-AI/App/app_x-cube-ai.c **** 
 258:X-CUBE-AI/App/app_x-cube-ai.c ****     /* TODO: adding check ai_buffer activations/weights shape coherence */
 259:X-CUBE-AI/App/app_x-cube-ai.c **** 
 260:X-CUBE-AI/App/app_x-cube-ai.c ****     inn =  ai_mnetwork_handle((struct network_instance *)network);
 991              		.loc 1 260 5 view .LVU283
 992              	.LVL94:
 993              	.LBB70:
 994              	.LBI70:
 130:X-CUBE-AI/App/app_x-cube-ai.c **** {
 995              		.loc 1 130 26 view .LVU284
 996              	.LBB71:
 132:X-CUBE-AI/App/app_x-cube-ai.c ****         if ((inst) && (&gnetworks[i] == inst))
 997              		.loc 1 132 5 view .LVU285
 998              	.LBB72:
 132:X-CUBE-AI/App/app_x-cube-ai.c ****         if ((inst) && (&gnetworks[i] == inst))
 999              		.loc 1 132 10 view .LVU286
 132:X-CUBE-AI/App/app_x-cube-ai.c ****         if ((inst) && (&gnetworks[i] == inst))
 1000              		.loc 1 132 14 is_stmt 0 view .LVU287
 1001 0008 0023     		movs	r3, #0
 1002              	.LVL95:
 1003              	.L90:
 132:X-CUBE-AI/App/app_x-cube-ai.c ****         if ((inst) && (&gnetworks[i] == inst))
 1004              		.loc 1 132 19 is_stmt 1 view .LVU288
 132:X-CUBE-AI/App/app_x-cube-ai.c ****         if ((inst) && (&gnetworks[i] == inst))
 1005              		.loc 1 132 5 is_stmt 0 view .LVU289
 1006 000a 002B     		cmp	r3, #0
 1007 000c 31DD     		ble	.L94
 1008              	.LBE72:
 138:X-CUBE-AI/App/app_x-cube-ai.c **** }
 1009              		.loc 1 138 12 view .LVU290
 1010 000e 0024     		movs	r4, #0
 1011              	.LVL96:
 1012              	.L92:
 138:X-CUBE-AI/App/app_x-cube-ai.c **** }
 1013              		.loc 1 138 12 view .LVU291
 1014              	.LBE71:
 1015              	.LBE70:
 261:X-CUBE-AI/App/app_x-cube-ai.c ****     if (inn) {
 1016              		.loc 1 261 5 is_stmt 1 view .LVU292
 1017              		.loc 1 261 8 is_stmt 0 view .LVU293
 1018 0010 002C     		cmp	r4, #0
 1019 0012 4DD0     		beq	.L100
 262:X-CUBE-AI/App/app_x-cube-ai.c ****         par = inn->entry->params;
 1020              		.loc 1 262 9 is_stmt 1 view .LVU294
 1021              		.loc 1 262 18 is_stmt 0 view .LVU295
 1022 0014 2368     		ldr	r3, [r4]
 1023              		.loc 1 262 13 view .LVU296
 1024 0016 EE46     		mov	lr, sp
 1025 0018 03F1040C 		add	ip, r3, #4
 1026 001c BCE80F00 		ldmia	ip!, {r0, r1, r2, r3}
 1027              	.LVL97:
 1028              		.loc 1 262 13 view .LVU297
 1029 0020 AEE80F00 		stmia	lr!, {r0, r1, r2, r3}
ARM GAS  C:\Users\zacfi\AppData\Local\Temp\cc8f0CWG.s 			page 27


 1030 0024 BCE80F00 		ldmia	ip!, {r0, r1, r2, r3}
 1031 0028 AEE80F00 		stmia	lr!, {r0, r1, r2, r3}
 1032 002c 9CE80F00 		ldm	ip, {r0, r1, r2, r3}
 1033 0030 8EE80F00 		stm	lr, {r0, r1, r2, r3}
 263:X-CUBE-AI/App/app_x-cube-ai.c ****         if (params->activations.n_batches)
 1034              		.loc 1 263 9 is_stmt 1 view .LVU298
 1035              		.loc 1 263 32 is_stmt 0 view .LVU299
 1036 0034 AB8B     		ldrh	r3, [r5, #28]
 1037              		.loc 1 263 12 view .LVU300
 1038 0036 9BB3     		cbz	r3, .L96
 264:X-CUBE-AI/App/app_x-cube-ai.c ****             par.activations = params->activations;
 1039              		.loc 1 264 13 is_stmt 1 view .LVU301
 1040              		.loc 1 264 29 is_stmt 0 view .LVU302
 1041 0038 0DF1180C 		add	ip, sp, #24
 1042 003c 05F1180E 		add	lr, r5, #24
 1043 0040 BEE80F00 		ldmia	lr!, {r0, r1, r2, r3}
 1044 0044 ACE80F00 		stmia	ip!, {r0, r1, r2, r3}
 1045 0048 9EE80300 		ldm	lr, {r0, r1}
 1046 004c 8CE80300 		stm	ip, {r0, r1}
 1047              	.L97:
 265:X-CUBE-AI/App/app_x-cube-ai.c ****         else
 266:X-CUBE-AI/App/app_x-cube-ai.c ****             par.activations.data = params->activations.data;
 267:X-CUBE-AI/App/app_x-cube-ai.c ****         if (params->params.n_batches)
 1048              		.loc 1 267 9 is_stmt 1 view .LVU303
 1049              		.loc 1 267 27 is_stmt 0 view .LVU304
 1050 0050 AB88     		ldrh	r3, [r5, #4]
 1051              		.loc 1 267 12 view .LVU305
 1052 0052 43B3     		cbz	r3, .L98
 268:X-CUBE-AI/App/app_x-cube-ai.c ****             par.params = params->params;
 1053              		.loc 1 268 13 is_stmt 1 view .LVU306
 1054              		.loc 1 268 24 is_stmt 0 view .LVU307
 1055 0054 EC46     		mov	ip, sp
 1056 0056 0FCD     		ldmia	r5!, {r0, r1, r2, r3}
 1057              	.LVL98:
 1058              		.loc 1 268 24 view .LVU308
 1059 0058 ACE80F00 		stmia	ip!, {r0, r1, r2, r3}
 1060 005c 95E80300 		ldm	r5, {r0, r1}
 1061 0060 8CE80300 		stm	ip, {r0, r1}
 1062              	.LVL99:
 1063              	.L99:
 269:X-CUBE-AI/App/app_x-cube-ai.c ****         else
 270:X-CUBE-AI/App/app_x-cube-ai.c ****             par.params.data = inn->entry->ai_data_weights_get_default();
 271:X-CUBE-AI/App/app_x-cube-ai.c ****         return inn->entry->ai_init(inn->handle, &par);
 1064              		.loc 1 271 9 is_stmt 1 view .LVU309
 1065              		.loc 1 271 19 is_stmt 0 view .LVU310
 1066 0064 2368     		ldr	r3, [r4]
 1067              		.loc 1 271 26 view .LVU311
 1068 0066 DB6C     		ldr	r3, [r3, #76]
 1069              		.loc 1 271 16 view .LVU312
 1070 0068 6946     		mov	r1, sp
 1071 006a 6068     		ldr	r0, [r4, #4]
 1072 006c 9847     		blx	r3
 1073              	.LVL100:
 1074              	.L95:
 272:X-CUBE-AI/App/app_x-cube-ai.c ****     }
 273:X-CUBE-AI/App/app_x-cube-ai.c ****     else
 274:X-CUBE-AI/App/app_x-cube-ai.c ****         return false;
ARM GAS  C:\Users\zacfi\AppData\Local\Temp\cc8f0CWG.s 			page 28


 275:X-CUBE-AI/App/app_x-cube-ai.c **** }
 1075              		.loc 1 275 1 view .LVU313
 1076 006e 0DB0     		add	sp, sp, #52
 1077              	.LCFI9:
 1078              		.cfi_remember_state
 1079              		.cfi_def_cfa_offset 12
 1080              		@ sp needed
 1081 0070 30BD     		pop	{r4, r5, pc}
 1082              	.LVL101:
 1083              	.L94:
 1084              	.LCFI10:
 1085              		.cfi_restore_state
 1086              	.LBB75:
 1087              	.LBB74:
 1088              	.LBB73:
 133:X-CUBE-AI/App/app_x-cube-ai.c ****             return inst;
 1089              		.loc 1 133 9 is_stmt 1 view .LVU314
 133:X-CUBE-AI/App/app_x-cube-ai.c ****             return inst;
 1090              		.loc 1 133 12 is_stmt 0 view .LVU315
 1091 0072 34B1     		cbz	r4, .L91
 133:X-CUBE-AI/App/app_x-cube-ai.c ****             return inst;
 1092              		.loc 1 133 24 view .LVU316
 1093 0074 C3EBC302 		rsb	r2, r3, r3, lsl #3
 1094 0078 0E49     		ldr	r1, .L103
 1095 007a 01EBC202 		add	r2, r1, r2, lsl #3
 133:X-CUBE-AI/App/app_x-cube-ai.c ****             return inst;
 1096              		.loc 1 133 20 view .LVU317
 1097 007e 9442     		cmp	r4, r2
 1098 0080 C6D0     		beq	.L92
 1099              	.L91:
 135:X-CUBE-AI/App/app_x-cube-ai.c ****             return &gnetworks[i];
 1100              		.loc 1 135 14 is_stmt 1 view .LVU318
 135:X-CUBE-AI/App/app_x-cube-ai.c ****             return &gnetworks[i];
 1101              		.loc 1 135 17 is_stmt 0 view .LVU319
 1102 0082 0CB1     		cbz	r4, .L102
 1103              	.L93:
 132:X-CUBE-AI/App/app_x-cube-ai.c ****         if ((inst) && (&gnetworks[i] == inst))
 1104              		.loc 1 132 41 is_stmt 1 view .LVU320
 132:X-CUBE-AI/App/app_x-cube-ai.c ****         if ((inst) && (&gnetworks[i] == inst))
 1105              		.loc 1 132 42 is_stmt 0 view .LVU321
 1106 0084 0133     		adds	r3, r3, #1
 1107              	.LVL102:
 132:X-CUBE-AI/App/app_x-cube-ai.c ****         if ((inst) && (&gnetworks[i] == inst))
 1108              		.loc 1 132 42 view .LVU322
 1109 0086 C0E7     		b	.L90
 1110              	.L102:
 135:X-CUBE-AI/App/app_x-cube-ai.c ****             return &gnetworks[i];
 1111              		.loc 1 135 42 view .LVU323
 1112 0088 C3EBC302 		rsb	r2, r3, r3, lsl #3
 1113 008c 0949     		ldr	r1, .L103
 1114 008e 51F83220 		ldr	r2, [r1, r2, lsl #3]
 135:X-CUBE-AI/App/app_x-cube-ai.c ****             return &gnetworks[i];
 1115              		.loc 1 135 26 view .LVU324
 1116 0092 002A     		cmp	r2, #0
 1117 0094 F6D1     		bne	.L93
 136:X-CUBE-AI/App/app_x-cube-ai.c ****     }
 1118              		.loc 1 136 13 is_stmt 1 view .LVU325
ARM GAS  C:\Users\zacfi\AppData\Local\Temp\cc8f0CWG.s 			page 29


 136:X-CUBE-AI/App/app_x-cube-ai.c ****     }
 1119              		.loc 1 136 20 is_stmt 0 view .LVU326
 1120 0096 C3EBC303 		rsb	r3, r3, r3, lsl #3
 1121              	.LVL103:
 136:X-CUBE-AI/App/app_x-cube-ai.c ****     }
 1122              		.loc 1 136 20 view .LVU327
 1123 009a 01EBC304 		add	r4, r1, r3, lsl #3
 1124 009e B7E7     		b	.L92
 1125              	.LVL104:
 1126              	.L96:
 136:X-CUBE-AI/App/app_x-cube-ai.c ****     }
 1127              		.loc 1 136 20 view .LVU328
 1128              	.LBE73:
 1129              	.LBE74:
 1130              	.LBE75:
 266:X-CUBE-AI/App/app_x-cube-ai.c ****         if (params->params.n_batches)
 1131              		.loc 1 266 13 is_stmt 1 view .LVU329
 266:X-CUBE-AI/App/app_x-cube-ai.c ****         if (params->params.n_batches)
 1132              		.loc 1 266 55 is_stmt 0 view .LVU330
 1133 00a0 AB6A     		ldr	r3, [r5, #40]
 266:X-CUBE-AI/App/app_x-cube-ai.c ****         if (params->params.n_batches)
 1134              		.loc 1 266 34 view .LVU331
 1135 00a2 0A93     		str	r3, [sp, #40]
 1136 00a4 D4E7     		b	.L97
 1137              	.L98:
 270:X-CUBE-AI/App/app_x-cube-ai.c ****         return inn->entry->ai_init(inn->handle, &par);
 1138              		.loc 1 270 13 is_stmt 1 view .LVU332
 270:X-CUBE-AI/App/app_x-cube-ai.c ****         return inn->entry->ai_init(inn->handle, &par);
 1139              		.loc 1 270 34 is_stmt 0 view .LVU333
 1140 00a6 2368     		ldr	r3, [r4]
 270:X-CUBE-AI/App/app_x-cube-ai.c ****         return inn->entry->ai_init(inn->handle, &par);
 1141              		.loc 1 270 41 view .LVU334
 1142 00a8 9B6B     		ldr	r3, [r3, #56]
 270:X-CUBE-AI/App/app_x-cube-ai.c ****         return inn->entry->ai_init(inn->handle, &par);
 1143              		.loc 1 270 31 view .LVU335
 1144 00aa 9847     		blx	r3
 1145              	.LVL105:
 270:X-CUBE-AI/App/app_x-cube-ai.c ****         return inn->entry->ai_init(inn->handle, &par);
 1146              		.loc 1 270 29 view .LVU336
 1147 00ac 0490     		str	r0, [sp, #16]
 1148 00ae D9E7     		b	.L99
 1149              	.LVL106:
 1150              	.L100:
 274:X-CUBE-AI/App/app_x-cube-ai.c **** }
 1151              		.loc 1 274 16 view .LVU337
 1152 00b0 0020     		movs	r0, #0
 1153              	.LVL107:
 274:X-CUBE-AI/App/app_x-cube-ai.c **** }
 1154              		.loc 1 274 16 view .LVU338
 1155 00b2 DCE7     		b	.L95
 1156              	.L104:
 1157              		.align	2
 1158              	.L103:
 1159 00b4 00000000 		.word	.LANCHOR1
 1160              		.cfi_endproc
 1161              	.LFE143:
 1163              		.section	.text.ai_mnetwork_run,"ax",%progbits
ARM GAS  C:\Users\zacfi\AppData\Local\Temp\cc8f0CWG.s 			page 30


 1164              		.align	1
 1165              		.global	ai_mnetwork_run
 1166              		.syntax unified
 1167              		.thumb
 1168              		.thumb_func
 1169              		.fpu fpv4-sp-d16
 1171              	ai_mnetwork_run:
 1172              	.LVL108:
 1173              	.LFB144:
 276:X-CUBE-AI/App/app_x-cube-ai.c **** 
 277:X-CUBE-AI/App/app_x-cube-ai.c **** AI_API_ENTRY
 278:X-CUBE-AI/App/app_x-cube-ai.c **** ai_i32 ai_mnetwork_run(ai_handle network, const ai_buffer* input,
 279:X-CUBE-AI/App/app_x-cube-ai.c ****         ai_buffer* output)
 280:X-CUBE-AI/App/app_x-cube-ai.c **** {
 1174              		.loc 1 280 1 is_stmt 1 view -0
 1175              		.cfi_startproc
 1176              		@ args = 0, pretend = 0, frame = 0
 1177              		@ frame_needed = 0, uses_anonymous_args = 0
 1178              		.loc 1 280 1 is_stmt 0 view .LVU340
 1179 0000 38B5     		push	{r3, r4, r5, lr}
 1180              	.LCFI11:
 1181              		.cfi_def_cfa_offset 16
 1182              		.cfi_offset 3, -16
 1183              		.cfi_offset 4, -12
 1184              		.cfi_offset 5, -8
 1185              		.cfi_offset 14, -4
 281:X-CUBE-AI/App/app_x-cube-ai.c ****     struct network_instance* inn;
 1186              		.loc 1 281 5 is_stmt 1 view .LVU341
 282:X-CUBE-AI/App/app_x-cube-ai.c ****     inn =  ai_mnetwork_handle((struct network_instance *)network);
 1187              		.loc 1 282 5 view .LVU342
 1188              	.LVL109:
 1189              	.LBB79:
 1190              	.LBI79:
 130:X-CUBE-AI/App/app_x-cube-ai.c **** {
 1191              		.loc 1 130 26 view .LVU343
 1192              	.LBB80:
 132:X-CUBE-AI/App/app_x-cube-ai.c ****         if ((inst) && (&gnetworks[i] == inst))
 1193              		.loc 1 132 5 view .LVU344
 1194              	.LBB81:
 132:X-CUBE-AI/App/app_x-cube-ai.c ****         if ((inst) && (&gnetworks[i] == inst))
 1195              		.loc 1 132 10 view .LVU345
 132:X-CUBE-AI/App/app_x-cube-ai.c ****         if ((inst) && (&gnetworks[i] == inst))
 1196              		.loc 1 132 14 is_stmt 0 view .LVU346
 1197 0002 0023     		movs	r3, #0
 1198              	.LVL110:
 1199              	.L106:
 132:X-CUBE-AI/App/app_x-cube-ai.c ****         if ((inst) && (&gnetworks[i] == inst))
 1200              		.loc 1 132 19 is_stmt 1 view .LVU347
 132:X-CUBE-AI/App/app_x-cube-ai.c ****         if ((inst) && (&gnetworks[i] == inst))
 1201              		.loc 1 132 5 is_stmt 0 view .LVU348
 1202 0004 002B     		cmp	r3, #0
 1203 0006 06DD     		ble	.L110
 1204              	.LBE81:
 138:X-CUBE-AI/App/app_x-cube-ai.c **** }
 1205              		.loc 1 138 12 view .LVU349
 1206 0008 0020     		movs	r0, #0
 1207              	.LVL111:
ARM GAS  C:\Users\zacfi\AppData\Local\Temp\cc8f0CWG.s 			page 31


 1208              	.L108:
 138:X-CUBE-AI/App/app_x-cube-ai.c **** }
 1209              		.loc 1 138 12 view .LVU350
 1210              	.LBE80:
 1211              	.LBE79:
 283:X-CUBE-AI/App/app_x-cube-ai.c ****     if (inn)
 1212              		.loc 1 283 5 is_stmt 1 view .LVU351
 1213              		.loc 1 283 8 is_stmt 0 view .LVU352
 1214 000a D8B1     		cbz	r0, .L112
 284:X-CUBE-AI/App/app_x-cube-ai.c ****         return inn->entry->ai_run(inn->handle, input, output);
 1215              		.loc 1 284 9 is_stmt 1 view .LVU353
 1216              		.loc 1 284 19 is_stmt 0 view .LVU354
 1217 000c 0368     		ldr	r3, [r0]
 1218              		.loc 1 284 26 view .LVU355
 1219 000e 1B6D     		ldr	r3, [r3, #80]
 1220              		.loc 1 284 16 view .LVU356
 1221 0010 4068     		ldr	r0, [r0, #4]
 1222              	.LVL112:
 1223              		.loc 1 284 16 view .LVU357
 1224 0012 9847     		blx	r3
 1225              	.LVL113:
 1226              	.L105:
 285:X-CUBE-AI/App/app_x-cube-ai.c ****     else
 286:X-CUBE-AI/App/app_x-cube-ai.c ****         return 0;
 287:X-CUBE-AI/App/app_x-cube-ai.c **** }
 1227              		.loc 1 287 1 view .LVU358
 1228 0014 38BD     		pop	{r3, r4, r5, pc}
 1229              	.LVL114:
 1230              	.L110:
 1231              	.LBB84:
 1232              	.LBB83:
 1233              	.LBB82:
 133:X-CUBE-AI/App/app_x-cube-ai.c ****             return inst;
 1234              		.loc 1 133 9 is_stmt 1 view .LVU359
 133:X-CUBE-AI/App/app_x-cube-ai.c ****             return inst;
 1235              		.loc 1 133 12 is_stmt 0 view .LVU360
 1236 0016 30B1     		cbz	r0, .L107
 133:X-CUBE-AI/App/app_x-cube-ai.c ****             return inst;
 1237              		.loc 1 133 24 view .LVU361
 1238 0018 C3EBC30C 		rsb	ip, r3, r3, lsl #3
 1239 001c 0A4C     		ldr	r4, .L115
 1240 001e 04EBCC0C 		add	ip, r4, ip, lsl #3
 133:X-CUBE-AI/App/app_x-cube-ai.c ****             return inst;
 1241              		.loc 1 133 20 view .LVU362
 1242 0022 6045     		cmp	r0, ip
 1243 0024 F1D0     		beq	.L108
 1244              	.L107:
 135:X-CUBE-AI/App/app_x-cube-ai.c ****             return &gnetworks[i];
 1245              		.loc 1 135 14 is_stmt 1 view .LVU363
 135:X-CUBE-AI/App/app_x-cube-ai.c ****             return &gnetworks[i];
 1246              		.loc 1 135 17 is_stmt 0 view .LVU364
 1247 0026 08B1     		cbz	r0, .L114
 1248              	.L109:
 132:X-CUBE-AI/App/app_x-cube-ai.c ****         if ((inst) && (&gnetworks[i] == inst))
 1249              		.loc 1 132 41 is_stmt 1 view .LVU365
 132:X-CUBE-AI/App/app_x-cube-ai.c ****         if ((inst) && (&gnetworks[i] == inst))
 1250              		.loc 1 132 42 is_stmt 0 view .LVU366
ARM GAS  C:\Users\zacfi\AppData\Local\Temp\cc8f0CWG.s 			page 32


 1251 0028 0133     		adds	r3, r3, #1
 1252              	.LVL115:
 132:X-CUBE-AI/App/app_x-cube-ai.c ****         if ((inst) && (&gnetworks[i] == inst))
 1253              		.loc 1 132 42 view .LVU367
 1254 002a EBE7     		b	.L106
 1255              	.L114:
 135:X-CUBE-AI/App/app_x-cube-ai.c ****             return &gnetworks[i];
 1256              		.loc 1 135 42 view .LVU368
 1257 002c C3EBC304 		rsb	r4, r3, r3, lsl #3
 1258 0030 054D     		ldr	r5, .L115
 1259 0032 55F83440 		ldr	r4, [r5, r4, lsl #3]
 135:X-CUBE-AI/App/app_x-cube-ai.c ****             return &gnetworks[i];
 1260              		.loc 1 135 26 view .LVU369
 1261 0036 002C     		cmp	r4, #0
 1262 0038 F6D1     		bne	.L109
 136:X-CUBE-AI/App/app_x-cube-ai.c ****     }
 1263              		.loc 1 136 13 is_stmt 1 view .LVU370
 136:X-CUBE-AI/App/app_x-cube-ai.c ****     }
 1264              		.loc 1 136 20 is_stmt 0 view .LVU371
 1265 003a C3EBC303 		rsb	r3, r3, r3, lsl #3
 1266              	.LVL116:
 136:X-CUBE-AI/App/app_x-cube-ai.c ****     }
 1267              		.loc 1 136 20 view .LVU372
 1268 003e 05EBC300 		add	r0, r5, r3, lsl #3
 1269              	.LVL117:
 136:X-CUBE-AI/App/app_x-cube-ai.c ****     }
 1270              		.loc 1 136 20 view .LVU373
 1271 0042 E2E7     		b	.L108
 1272              	.LVL118:
 1273              	.L112:
 136:X-CUBE-AI/App/app_x-cube-ai.c ****     }
 1274              		.loc 1 136 20 view .LVU374
 1275              	.LBE82:
 1276              	.LBE83:
 1277              	.LBE84:
 286:X-CUBE-AI/App/app_x-cube-ai.c **** }
 1278              		.loc 1 286 16 view .LVU375
 1279 0044 0020     		movs	r0, #0
 1280              	.LVL119:
 286:X-CUBE-AI/App/app_x-cube-ai.c **** }
 1281              		.loc 1 286 16 view .LVU376
 1282 0046 E5E7     		b	.L105
 1283              	.L116:
 1284              		.align	2
 1285              	.L115:
 1286 0048 00000000 		.word	.LANCHOR1
 1287              		.cfi_endproc
 1288              	.LFE144:
 1290              		.section	.text.ai_mnetwork_forward,"ax",%progbits
 1291              		.align	1
 1292              		.global	ai_mnetwork_forward
 1293              		.syntax unified
 1294              		.thumb
 1295              		.thumb_func
 1296              		.fpu fpv4-sp-d16
 1298              	ai_mnetwork_forward:
 1299              	.LVL120:
ARM GAS  C:\Users\zacfi\AppData\Local\Temp\cc8f0CWG.s 			page 33


 1300              	.LFB145:
 288:X-CUBE-AI/App/app_x-cube-ai.c **** 
 289:X-CUBE-AI/App/app_x-cube-ai.c **** AI_API_ENTRY
 290:X-CUBE-AI/App/app_x-cube-ai.c **** ai_i32 ai_mnetwork_forward(ai_handle network, const ai_buffer* input)
 291:X-CUBE-AI/App/app_x-cube-ai.c **** {
 1301              		.loc 1 291 1 is_stmt 1 view -0
 1302              		.cfi_startproc
 1303              		@ args = 0, pretend = 0, frame = 0
 1304              		@ frame_needed = 0, uses_anonymous_args = 0
 1305              		.loc 1 291 1 is_stmt 0 view .LVU378
 1306 0000 10B5     		push	{r4, lr}
 1307              	.LCFI12:
 1308              		.cfi_def_cfa_offset 8
 1309              		.cfi_offset 4, -8
 1310              		.cfi_offset 14, -4
 292:X-CUBE-AI/App/app_x-cube-ai.c ****     struct network_instance *inn;
 1311              		.loc 1 292 5 is_stmt 1 view .LVU379
 293:X-CUBE-AI/App/app_x-cube-ai.c ****     inn =  ai_mnetwork_handle((struct network_instance *)network);
 1312              		.loc 1 293 5 view .LVU380
 1313              	.LVL121:
 1314              	.LBB88:
 1315              	.LBI88:
 130:X-CUBE-AI/App/app_x-cube-ai.c **** {
 1316              		.loc 1 130 26 view .LVU381
 1317              	.LBB89:
 132:X-CUBE-AI/App/app_x-cube-ai.c ****         if ((inst) && (&gnetworks[i] == inst))
 1318              		.loc 1 132 5 view .LVU382
 1319              	.LBB90:
 132:X-CUBE-AI/App/app_x-cube-ai.c ****         if ((inst) && (&gnetworks[i] == inst))
 1320              		.loc 1 132 10 view .LVU383
 132:X-CUBE-AI/App/app_x-cube-ai.c ****         if ((inst) && (&gnetworks[i] == inst))
 1321              		.loc 1 132 14 is_stmt 0 view .LVU384
 1322 0002 0023     		movs	r3, #0
 1323              	.LVL122:
 1324              	.L118:
 132:X-CUBE-AI/App/app_x-cube-ai.c ****         if ((inst) && (&gnetworks[i] == inst))
 1325              		.loc 1 132 19 is_stmt 1 view .LVU385
 132:X-CUBE-AI/App/app_x-cube-ai.c ****         if ((inst) && (&gnetworks[i] == inst))
 1326              		.loc 1 132 5 is_stmt 0 view .LVU386
 1327 0004 002B     		cmp	r3, #0
 1328 0006 06DD     		ble	.L122
 1329              	.LBE90:
 138:X-CUBE-AI/App/app_x-cube-ai.c **** }
 1330              		.loc 1 138 12 view .LVU387
 1331 0008 0020     		movs	r0, #0
 1332              	.LVL123:
 1333              	.L120:
 138:X-CUBE-AI/App/app_x-cube-ai.c **** }
 1334              		.loc 1 138 12 view .LVU388
 1335              	.LBE89:
 1336              	.LBE88:
 294:X-CUBE-AI/App/app_x-cube-ai.c ****     if (inn)
 1337              		.loc 1 294 5 is_stmt 1 view .LVU389
 1338              		.loc 1 294 8 is_stmt 0 view .LVU390
 1339 000a D8B1     		cbz	r0, .L124
 295:X-CUBE-AI/App/app_x-cube-ai.c ****         return inn->entry->ai_forward(inn->handle, input);
 1340              		.loc 1 295 9 is_stmt 1 view .LVU391
ARM GAS  C:\Users\zacfi\AppData\Local\Temp\cc8f0CWG.s 			page 34


 1341              		.loc 1 295 19 is_stmt 0 view .LVU392
 1342 000c 0368     		ldr	r3, [r0]
 1343              		.loc 1 295 26 view .LVU393
 1344 000e 5B6D     		ldr	r3, [r3, #84]
 1345              		.loc 1 295 16 view .LVU394
 1346 0010 4068     		ldr	r0, [r0, #4]
 1347              	.LVL124:
 1348              		.loc 1 295 16 view .LVU395
 1349 0012 9847     		blx	r3
 1350              	.LVL125:
 1351              	.L117:
 296:X-CUBE-AI/App/app_x-cube-ai.c ****     else
 297:X-CUBE-AI/App/app_x-cube-ai.c ****         return 0;
 298:X-CUBE-AI/App/app_x-cube-ai.c **** }
 1352              		.loc 1 298 1 view .LVU396
 1353 0014 10BD     		pop	{r4, pc}
 1354              	.LVL126:
 1355              	.L122:
 1356              	.LBB93:
 1357              	.LBB92:
 1358              	.LBB91:
 133:X-CUBE-AI/App/app_x-cube-ai.c ****             return inst;
 1359              		.loc 1 133 9 is_stmt 1 view .LVU397
 133:X-CUBE-AI/App/app_x-cube-ai.c ****             return inst;
 1360              		.loc 1 133 12 is_stmt 0 view .LVU398
 1361 0016 30B1     		cbz	r0, .L119
 133:X-CUBE-AI/App/app_x-cube-ai.c ****             return inst;
 1362              		.loc 1 133 24 view .LVU399
 1363 0018 C3EBC302 		rsb	r2, r3, r3, lsl #3
 1364 001c 0A4C     		ldr	r4, .L127
 1365 001e 04EBC202 		add	r2, r4, r2, lsl #3
 133:X-CUBE-AI/App/app_x-cube-ai.c ****             return inst;
 1366              		.loc 1 133 20 view .LVU400
 1367 0022 9042     		cmp	r0, r2
 1368 0024 F1D0     		beq	.L120
 1369              	.L119:
 135:X-CUBE-AI/App/app_x-cube-ai.c ****             return &gnetworks[i];
 1370              		.loc 1 135 14 is_stmt 1 view .LVU401
 135:X-CUBE-AI/App/app_x-cube-ai.c ****             return &gnetworks[i];
 1371              		.loc 1 135 17 is_stmt 0 view .LVU402
 1372 0026 08B1     		cbz	r0, .L126
 1373              	.L121:
 132:X-CUBE-AI/App/app_x-cube-ai.c ****         if ((inst) && (&gnetworks[i] == inst))
 1374              		.loc 1 132 41 is_stmt 1 view .LVU403
 132:X-CUBE-AI/App/app_x-cube-ai.c ****         if ((inst) && (&gnetworks[i] == inst))
 1375              		.loc 1 132 42 is_stmt 0 view .LVU404
 1376 0028 0133     		adds	r3, r3, #1
 1377              	.LVL127:
 132:X-CUBE-AI/App/app_x-cube-ai.c ****         if ((inst) && (&gnetworks[i] == inst))
 1378              		.loc 1 132 42 view .LVU405
 1379 002a EBE7     		b	.L118
 1380              	.L126:
 135:X-CUBE-AI/App/app_x-cube-ai.c ****             return &gnetworks[i];
 1381              		.loc 1 135 42 view .LVU406
 1382 002c C3EBC302 		rsb	r2, r3, r3, lsl #3
 1383 0030 054C     		ldr	r4, .L127
 1384 0032 54F83220 		ldr	r2, [r4, r2, lsl #3]
ARM GAS  C:\Users\zacfi\AppData\Local\Temp\cc8f0CWG.s 			page 35


 135:X-CUBE-AI/App/app_x-cube-ai.c ****             return &gnetworks[i];
 1385              		.loc 1 135 26 view .LVU407
 1386 0036 002A     		cmp	r2, #0
 1387 0038 F6D1     		bne	.L121
 136:X-CUBE-AI/App/app_x-cube-ai.c ****     }
 1388              		.loc 1 136 13 is_stmt 1 view .LVU408
 136:X-CUBE-AI/App/app_x-cube-ai.c ****     }
 1389              		.loc 1 136 20 is_stmt 0 view .LVU409
 1390 003a C3EBC303 		rsb	r3, r3, r3, lsl #3
 1391              	.LVL128:
 136:X-CUBE-AI/App/app_x-cube-ai.c ****     }
 1392              		.loc 1 136 20 view .LVU410
 1393 003e 04EBC300 		add	r0, r4, r3, lsl #3
 1394              	.LVL129:
 136:X-CUBE-AI/App/app_x-cube-ai.c ****     }
 1395              		.loc 1 136 20 view .LVU411
 1396 0042 E2E7     		b	.L120
 1397              	.LVL130:
 1398              	.L124:
 136:X-CUBE-AI/App/app_x-cube-ai.c ****     }
 1399              		.loc 1 136 20 view .LVU412
 1400              	.LBE91:
 1401              	.LBE92:
 1402              	.LBE93:
 297:X-CUBE-AI/App/app_x-cube-ai.c **** }
 1403              		.loc 1 297 16 view .LVU413
 1404 0044 0020     		movs	r0, #0
 1405              	.LVL131:
 297:X-CUBE-AI/App/app_x-cube-ai.c **** }
 1406              		.loc 1 297 16 view .LVU414
 1407 0046 E5E7     		b	.L117
 1408              	.L128:
 1409              		.align	2
 1410              	.L127:
 1411 0048 00000000 		.word	.LANCHOR1
 1412              		.cfi_endproc
 1413              	.LFE145:
 1415              		.section	.text.ai_mnetwork_get_private_handle,"ax",%progbits
 1416              		.align	1
 1417              		.global	ai_mnetwork_get_private_handle
 1418              		.syntax unified
 1419              		.thumb
 1420              		.thumb_func
 1421              		.fpu fpv4-sp-d16
 1423              	ai_mnetwork_get_private_handle:
 1424              	.LVL132:
 1425              	.LFB146:
 299:X-CUBE-AI/App/app_x-cube-ai.c **** 
 300:X-CUBE-AI/App/app_x-cube-ai.c **** AI_API_ENTRY
 301:X-CUBE-AI/App/app_x-cube-ai.c ****  int ai_mnetwork_get_private_handle(ai_handle network,
 302:X-CUBE-AI/App/app_x-cube-ai.c ****          ai_handle *phandle,
 303:X-CUBE-AI/App/app_x-cube-ai.c ****          ai_network_params *pparams)
 304:X-CUBE-AI/App/app_x-cube-ai.c ****  {
 1426              		.loc 1 304 2 is_stmt 1 view -0
 1427              		.cfi_startproc
 1428              		@ args = 0, pretend = 0, frame = 0
 1429              		@ frame_needed = 0, uses_anonymous_args = 0
ARM GAS  C:\Users\zacfi\AppData\Local\Temp\cc8f0CWG.s 			page 36


 1430              		.loc 1 304 2 is_stmt 0 view .LVU416
 1431 0000 30B5     		push	{r4, r5, lr}
 1432              	.LCFI13:
 1433              		.cfi_def_cfa_offset 12
 1434              		.cfi_offset 4, -12
 1435              		.cfi_offset 5, -8
 1436              		.cfi_offset 14, -4
 305:X-CUBE-AI/App/app_x-cube-ai.c ****      struct network_instance* inn;
 1437              		.loc 1 305 6 is_stmt 1 view .LVU417
 306:X-CUBE-AI/App/app_x-cube-ai.c ****      inn =  ai_mnetwork_handle((struct network_instance *)network);
 1438              		.loc 1 306 6 view .LVU418
 1439              	.LVL133:
 1440              	.LBB97:
 1441              	.LBI97:
 130:X-CUBE-AI/App/app_x-cube-ai.c **** {
 1442              		.loc 1 130 26 view .LVU419
 1443              	.LBB98:
 132:X-CUBE-AI/App/app_x-cube-ai.c ****         if ((inst) && (&gnetworks[i] == inst))
 1444              		.loc 1 132 5 view .LVU420
 1445              	.LBB99:
 132:X-CUBE-AI/App/app_x-cube-ai.c ****         if ((inst) && (&gnetworks[i] == inst))
 1446              		.loc 1 132 10 view .LVU421
 132:X-CUBE-AI/App/app_x-cube-ai.c ****         if ((inst) && (&gnetworks[i] == inst))
 1447              		.loc 1 132 14 is_stmt 0 view .LVU422
 1448 0002 0023     		movs	r3, #0
 1449              	.LVL134:
 1450              	.L130:
 132:X-CUBE-AI/App/app_x-cube-ai.c ****         if ((inst) && (&gnetworks[i] == inst))
 1451              		.loc 1 132 19 is_stmt 1 view .LVU423
 132:X-CUBE-AI/App/app_x-cube-ai.c ****         if ((inst) && (&gnetworks[i] == inst))
 1452              		.loc 1 132 5 is_stmt 0 view .LVU424
 1453 0004 002B     		cmp	r3, #0
 1454 0006 16DD     		ble	.L134
 1455              	.LBE99:
 138:X-CUBE-AI/App/app_x-cube-ai.c **** }
 1456              		.loc 1 138 12 view .LVU425
 1457 0008 0020     		movs	r0, #0
 1458              	.LVL135:
 1459              	.L132:
 138:X-CUBE-AI/App/app_x-cube-ai.c **** }
 1460              		.loc 1 138 12 view .LVU426
 1461              	.LBE98:
 1462              	.LBE97:
 307:X-CUBE-AI/App/app_x-cube-ai.c ****      if (inn && phandle && pparams) {
 1463              		.loc 1 307 6 is_stmt 1 view .LVU427
 1464              		.loc 1 307 9 is_stmt 0 view .LVU428
 1465 000a 58B3     		cbz	r0, .L136
 1466              		.loc 1 307 14 discriminator 1 view .LVU429
 1467 000c 69B3     		cbz	r1, .L137
 1468              		.loc 1 307 25 discriminator 2 view .LVU430
 1469 000e 7AB3     		cbz	r2, .L138
 308:X-CUBE-AI/App/app_x-cube-ai.c ****          *phandle = inn->handle;
 1470              		.loc 1 308 10 is_stmt 1 view .LVU431
 1471              		.loc 1 308 24 is_stmt 0 view .LVU432
 1472 0010 4368     		ldr	r3, [r0, #4]
 1473              		.loc 1 308 19 view .LVU433
 1474 0012 0B60     		str	r3, [r1]
ARM GAS  C:\Users\zacfi\AppData\Local\Temp\cc8f0CWG.s 			page 37


 309:X-CUBE-AI/App/app_x-cube-ai.c ****          *pparams = inn->params;
 1475              		.loc 1 309 10 is_stmt 1 view .LVU434
 1476              		.loc 1 309 19 is_stmt 0 view .LVU435
 1477 0014 9646     		mov	lr, r2
 1478 0016 00F1080C 		add	ip, r0, #8
 1479 001a BCE80F00 		ldmia	ip!, {r0, r1, r2, r3}
 1480              	.LVL136:
 1481              		.loc 1 309 19 view .LVU436
 1482 001e AEE80F00 		stmia	lr!, {r0, r1, r2, r3}
 1483              	.LVL137:
 1484              		.loc 1 309 19 view .LVU437
 1485 0022 BCE80F00 		ldmia	ip!, {r0, r1, r2, r3}
 1486              	.LVL138:
 1487              		.loc 1 309 19 view .LVU438
 1488 0026 AEE80F00 		stmia	lr!, {r0, r1, r2, r3}
 1489              	.LVL139:
 1490              		.loc 1 309 19 view .LVU439
 1491 002a 9CE80F00 		ldm	ip, {r0, r1, r2, r3}
 1492 002e 8EE80F00 		stm	lr, {r0, r1, r2, r3}
 310:X-CUBE-AI/App/app_x-cube-ai.c ****          return 0;
 1493              		.loc 1 310 10 is_stmt 1 view .LVU440
 1494              		.loc 1 310 17 is_stmt 0 view .LVU441
 1495 0032 0020     		movs	r0, #0
 1496              	.LVL140:
 1497              	.L129:
 311:X-CUBE-AI/App/app_x-cube-ai.c ****      }
 312:X-CUBE-AI/App/app_x-cube-ai.c ****      else
 313:X-CUBE-AI/App/app_x-cube-ai.c ****          return -1;
 314:X-CUBE-AI/App/app_x-cube-ai.c ****  }
 1498              		.loc 1 314 2 view .LVU442
 1499 0034 30BD     		pop	{r4, r5, pc}
 1500              	.LVL141:
 1501              	.L134:
 1502              	.LBB102:
 1503              	.LBB101:
 1504              	.LBB100:
 133:X-CUBE-AI/App/app_x-cube-ai.c ****             return inst;
 1505              		.loc 1 133 9 is_stmt 1 view .LVU443
 133:X-CUBE-AI/App/app_x-cube-ai.c ****             return inst;
 1506              		.loc 1 133 12 is_stmt 0 view .LVU444
 1507 0036 30B1     		cbz	r0, .L131
 133:X-CUBE-AI/App/app_x-cube-ai.c ****             return inst;
 1508              		.loc 1 133 24 view .LVU445
 1509 0038 C3EBC30C 		rsb	ip, r3, r3, lsl #3
 1510 003c 0E4C     		ldr	r4, .L141
 1511 003e 04EBCC0C 		add	ip, r4, ip, lsl #3
 133:X-CUBE-AI/App/app_x-cube-ai.c ****             return inst;
 1512              		.loc 1 133 20 view .LVU446
 1513 0042 6045     		cmp	r0, ip
 1514 0044 E1D0     		beq	.L132
 1515              	.L131:
 135:X-CUBE-AI/App/app_x-cube-ai.c ****             return &gnetworks[i];
 1516              		.loc 1 135 14 is_stmt 1 view .LVU447
 135:X-CUBE-AI/App/app_x-cube-ai.c ****             return &gnetworks[i];
 1517              		.loc 1 135 17 is_stmt 0 view .LVU448
 1518 0046 08B1     		cbz	r0, .L140
 1519              	.L133:
ARM GAS  C:\Users\zacfi\AppData\Local\Temp\cc8f0CWG.s 			page 38


 132:X-CUBE-AI/App/app_x-cube-ai.c ****         if ((inst) && (&gnetworks[i] == inst))
 1520              		.loc 1 132 41 is_stmt 1 view .LVU449
 132:X-CUBE-AI/App/app_x-cube-ai.c ****         if ((inst) && (&gnetworks[i] == inst))
 1521              		.loc 1 132 42 is_stmt 0 view .LVU450
 1522 0048 0133     		adds	r3, r3, #1
 1523              	.LVL142:
 132:X-CUBE-AI/App/app_x-cube-ai.c ****         if ((inst) && (&gnetworks[i] == inst))
 1524              		.loc 1 132 42 view .LVU451
 1525 004a DBE7     		b	.L130
 1526              	.L140:
 135:X-CUBE-AI/App/app_x-cube-ai.c ****             return &gnetworks[i];
 1527              		.loc 1 135 42 view .LVU452
 1528 004c C3EBC304 		rsb	r4, r3, r3, lsl #3
 1529 0050 094D     		ldr	r5, .L141
 1530 0052 55F83440 		ldr	r4, [r5, r4, lsl #3]
 135:X-CUBE-AI/App/app_x-cube-ai.c ****             return &gnetworks[i];
 1531              		.loc 1 135 26 view .LVU453
 1532 0056 002C     		cmp	r4, #0
 1533 0058 F6D1     		bne	.L133
 136:X-CUBE-AI/App/app_x-cube-ai.c ****     }
 1534              		.loc 1 136 13 is_stmt 1 view .LVU454
 136:X-CUBE-AI/App/app_x-cube-ai.c ****     }
 1535              		.loc 1 136 20 is_stmt 0 view .LVU455
 1536 005a C3EBC303 		rsb	r3, r3, r3, lsl #3
 1537              	.LVL143:
 136:X-CUBE-AI/App/app_x-cube-ai.c ****     }
 1538              		.loc 1 136 20 view .LVU456
 1539 005e 05EBC300 		add	r0, r5, r3, lsl #3
 1540              	.LVL144:
 136:X-CUBE-AI/App/app_x-cube-ai.c ****     }
 1541              		.loc 1 136 20 view .LVU457
 1542 0062 D2E7     		b	.L132
 1543              	.LVL145:
 1544              	.L136:
 136:X-CUBE-AI/App/app_x-cube-ai.c ****     }
 1545              		.loc 1 136 20 view .LVU458
 1546              	.LBE100:
 1547              	.LBE101:
 1548              	.LBE102:
 313:X-CUBE-AI/App/app_x-cube-ai.c ****  }
 1549              		.loc 1 313 17 view .LVU459
 1550 0064 4FF0FF30 		mov	r0, #-1
 1551              	.LVL146:
 313:X-CUBE-AI/App/app_x-cube-ai.c ****  }
 1552              		.loc 1 313 17 view .LVU460
 1553 0068 E4E7     		b	.L129
 1554              	.LVL147:
 1555              	.L137:
 313:X-CUBE-AI/App/app_x-cube-ai.c ****  }
 1556              		.loc 1 313 17 view .LVU461
 1557 006a 4FF0FF30 		mov	r0, #-1
 1558              	.LVL148:
 313:X-CUBE-AI/App/app_x-cube-ai.c ****  }
 1559              		.loc 1 313 17 view .LVU462
 1560 006e E1E7     		b	.L129
 1561              	.LVL149:
 1562              	.L138:
ARM GAS  C:\Users\zacfi\AppData\Local\Temp\cc8f0CWG.s 			page 39


 313:X-CUBE-AI/App/app_x-cube-ai.c ****  }
 1563              		.loc 1 313 17 view .LVU463
 1564 0070 4FF0FF30 		mov	r0, #-1
 1565              	.LVL150:
 313:X-CUBE-AI/App/app_x-cube-ai.c ****  }
 1566              		.loc 1 313 17 view .LVU464
 1567 0074 DEE7     		b	.L129
 1568              	.L142:
 1569 0076 00BF     		.align	2
 1570              	.L141:
 1571 0078 00000000 		.word	.LANCHOR1
 1572              		.cfi_endproc
 1573              	.LFE146:
 1575              		.section	.text.ai_mnetwork_get_ext_data_activations,"ax",%progbits
 1576              		.align	1
 1577              		.global	ai_mnetwork_get_ext_data_activations
 1578              		.syntax unified
 1579              		.thumb
 1580              		.thumb_func
 1581              		.fpu fpv4-sp-d16
 1583              	ai_mnetwork_get_ext_data_activations:
 1584              	.LVL151:
 1585              	.LFB147:
 315:X-CUBE-AI/App/app_x-cube-ai.c **** 
 316:X-CUBE-AI/App/app_x-cube-ai.c ****  AI_API_ENTRY
 317:X-CUBE-AI/App/app_x-cube-ai.c **** int ai_mnetwork_get_ext_data_activations(ai_handle network,
 318:X-CUBE-AI/App/app_x-cube-ai.c ****          ai_u32 *add,
 319:X-CUBE-AI/App/app_x-cube-ai.c ****          ai_u32 *size)
 320:X-CUBE-AI/App/app_x-cube-ai.c ****  {
 1586              		.loc 1 320 2 is_stmt 1 view -0
 1587              		.cfi_startproc
 1588              		@ args = 0, pretend = 0, frame = 0
 1589              		@ frame_needed = 0, uses_anonymous_args = 0
 1590              		@ link register save eliminated.
 1591              		.loc 1 320 2 is_stmt 0 view .LVU466
 1592 0000 30B4     		push	{r4, r5}
 1593              	.LCFI14:
 1594              		.cfi_def_cfa_offset 8
 1595              		.cfi_offset 4, -8
 1596              		.cfi_offset 5, -4
 321:X-CUBE-AI/App/app_x-cube-ai.c ****      struct network_instance* inn;
 1597              		.loc 1 321 6 is_stmt 1 view .LVU467
 322:X-CUBE-AI/App/app_x-cube-ai.c ****      inn =  ai_mnetwork_handle((struct network_instance *)network);
 1598              		.loc 1 322 6 view .LVU468
 1599              	.LVL152:
 1600              	.LBB106:
 1601              	.LBI106:
 130:X-CUBE-AI/App/app_x-cube-ai.c **** {
 1602              		.loc 1 130 26 view .LVU469
 1603              	.LBB107:
 132:X-CUBE-AI/App/app_x-cube-ai.c ****         if ((inst) && (&gnetworks[i] == inst))
 1604              		.loc 1 132 5 view .LVU470
 1605              	.LBB108:
 132:X-CUBE-AI/App/app_x-cube-ai.c ****         if ((inst) && (&gnetworks[i] == inst))
 1606              		.loc 1 132 10 view .LVU471
 132:X-CUBE-AI/App/app_x-cube-ai.c ****         if ((inst) && (&gnetworks[i] == inst))
 1607              		.loc 1 132 14 is_stmt 0 view .LVU472
ARM GAS  C:\Users\zacfi\AppData\Local\Temp\cc8f0CWG.s 			page 40


 1608 0002 0023     		movs	r3, #0
 1609              	.LVL153:
 1610              	.L144:
 132:X-CUBE-AI/App/app_x-cube-ai.c ****         if ((inst) && (&gnetworks[i] == inst))
 1611              		.loc 1 132 19 is_stmt 1 view .LVU473
 132:X-CUBE-AI/App/app_x-cube-ai.c ****         if ((inst) && (&gnetworks[i] == inst))
 1612              		.loc 1 132 5 is_stmt 0 view .LVU474
 1613 0004 002B     		cmp	r3, #0
 1614 0006 0CDD     		ble	.L148
 1615              	.LBE108:
 138:X-CUBE-AI/App/app_x-cube-ai.c **** }
 1616              		.loc 1 138 12 view .LVU475
 1617 0008 0020     		movs	r0, #0
 1618              	.LVL154:
 1619              	.L146:
 138:X-CUBE-AI/App/app_x-cube-ai.c **** }
 1620              		.loc 1 138 12 view .LVU476
 1621              	.LBE107:
 1622              	.LBE106:
 323:X-CUBE-AI/App/app_x-cube-ai.c ****      if (inn && add && size) {
 1623              		.loc 1 323 6 is_stmt 1 view .LVU477
 1624              		.loc 1 323 9 is_stmt 0 view .LVU478
 1625 000a 08B3     		cbz	r0, .L150
 1626              		.loc 1 323 14 discriminator 1 view .LVU479
 1627 000c 19B3     		cbz	r1, .L151
 1628              		.loc 1 323 21 discriminator 2 view .LVU480
 1629 000e 2AB3     		cbz	r2, .L152
 324:X-CUBE-AI/App/app_x-cube-ai.c ****          *add = inn->entry->extActBufferStartAddr;
 1630              		.loc 1 324 10 is_stmt 1 view .LVU481
 1631              		.loc 1 324 20 is_stmt 0 view .LVU482
 1632 0010 0368     		ldr	r3, [r0]
 1633              		.loc 1 324 27 view .LVU483
 1634 0012 9B6D     		ldr	r3, [r3, #88]
 1635              		.loc 1 324 15 view .LVU484
 1636 0014 0B60     		str	r3, [r1]
 325:X-CUBE-AI/App/app_x-cube-ai.c ****          *size = inn->entry->actBufferSize;
 1637              		.loc 1 325 10 is_stmt 1 view .LVU485
 1638              		.loc 1 325 21 is_stmt 0 view .LVU486
 1639 0016 0368     		ldr	r3, [r0]
 1640              		.loc 1 325 28 view .LVU487
 1641 0018 DB6D     		ldr	r3, [r3, #92]
 1642              		.loc 1 325 16 view .LVU488
 1643 001a 1360     		str	r3, [r2]
 326:X-CUBE-AI/App/app_x-cube-ai.c ****          return 0;
 1644              		.loc 1 326 10 is_stmt 1 view .LVU489
 1645              		.loc 1 326 17 is_stmt 0 view .LVU490
 1646 001c 0020     		movs	r0, #0
 1647              	.LVL155:
 1648              	.L143:
 327:X-CUBE-AI/App/app_x-cube-ai.c ****      }
 328:X-CUBE-AI/App/app_x-cube-ai.c ****      else
 329:X-CUBE-AI/App/app_x-cube-ai.c ****          return -1;
 330:X-CUBE-AI/App/app_x-cube-ai.c ****  }
 1649              		.loc 1 330 2 view .LVU491
 1650 001e 30BC     		pop	{r4, r5}
 1651              	.LCFI15:
 1652              		.cfi_remember_state
ARM GAS  C:\Users\zacfi\AppData\Local\Temp\cc8f0CWG.s 			page 41


 1653              		.cfi_restore 5
 1654              		.cfi_restore 4
 1655              		.cfi_def_cfa_offset 0
 1656 0020 7047     		bx	lr
 1657              	.LVL156:
 1658              	.L148:
 1659              	.LCFI16:
 1660              		.cfi_restore_state
 1661              	.LBB111:
 1662              	.LBB110:
 1663              	.LBB109:
 133:X-CUBE-AI/App/app_x-cube-ai.c ****             return inst;
 1664              		.loc 1 133 9 is_stmt 1 view .LVU492
 133:X-CUBE-AI/App/app_x-cube-ai.c ****             return inst;
 1665              		.loc 1 133 12 is_stmt 0 view .LVU493
 1666 0022 30B1     		cbz	r0, .L145
 133:X-CUBE-AI/App/app_x-cube-ai.c ****             return inst;
 1667              		.loc 1 133 24 view .LVU494
 1668 0024 C3EBC30C 		rsb	ip, r3, r3, lsl #3
 1669 0028 0E4C     		ldr	r4, .L155
 1670 002a 04EBCC0C 		add	ip, r4, ip, lsl #3
 133:X-CUBE-AI/App/app_x-cube-ai.c ****             return inst;
 1671              		.loc 1 133 20 view .LVU495
 1672 002e 6045     		cmp	r0, ip
 1673 0030 EBD0     		beq	.L146
 1674              	.L145:
 135:X-CUBE-AI/App/app_x-cube-ai.c ****             return &gnetworks[i];
 1675              		.loc 1 135 14 is_stmt 1 view .LVU496
 135:X-CUBE-AI/App/app_x-cube-ai.c ****             return &gnetworks[i];
 1676              		.loc 1 135 17 is_stmt 0 view .LVU497
 1677 0032 08B1     		cbz	r0, .L154
 1678              	.L147:
 132:X-CUBE-AI/App/app_x-cube-ai.c ****         if ((inst) && (&gnetworks[i] == inst))
 1679              		.loc 1 132 41 is_stmt 1 view .LVU498
 132:X-CUBE-AI/App/app_x-cube-ai.c ****         if ((inst) && (&gnetworks[i] == inst))
 1680              		.loc 1 132 42 is_stmt 0 view .LVU499
 1681 0034 0133     		adds	r3, r3, #1
 1682              	.LVL157:
 132:X-CUBE-AI/App/app_x-cube-ai.c ****         if ((inst) && (&gnetworks[i] == inst))
 1683              		.loc 1 132 42 view .LVU500
 1684 0036 E5E7     		b	.L144
 1685              	.L154:
 135:X-CUBE-AI/App/app_x-cube-ai.c ****             return &gnetworks[i];
 1686              		.loc 1 135 42 view .LVU501
 1687 0038 C3EBC304 		rsb	r4, r3, r3, lsl #3
 1688 003c 094D     		ldr	r5, .L155
 1689 003e 55F83440 		ldr	r4, [r5, r4, lsl #3]
 135:X-CUBE-AI/App/app_x-cube-ai.c ****             return &gnetworks[i];
 1690              		.loc 1 135 26 view .LVU502
 1691 0042 002C     		cmp	r4, #0
 1692 0044 F6D1     		bne	.L147
 136:X-CUBE-AI/App/app_x-cube-ai.c ****     }
 1693              		.loc 1 136 13 is_stmt 1 view .LVU503
 136:X-CUBE-AI/App/app_x-cube-ai.c ****     }
 1694              		.loc 1 136 20 is_stmt 0 view .LVU504
 1695 0046 C3EBC303 		rsb	r3, r3, r3, lsl #3
 1696              	.LVL158:
ARM GAS  C:\Users\zacfi\AppData\Local\Temp\cc8f0CWG.s 			page 42


 136:X-CUBE-AI/App/app_x-cube-ai.c ****     }
 1697              		.loc 1 136 20 view .LVU505
 1698 004a 05EBC300 		add	r0, r5, r3, lsl #3
 1699              	.LVL159:
 136:X-CUBE-AI/App/app_x-cube-ai.c ****     }
 1700              		.loc 1 136 20 view .LVU506
 1701 004e DCE7     		b	.L146
 1702              	.LVL160:
 1703              	.L150:
 136:X-CUBE-AI/App/app_x-cube-ai.c ****     }
 1704              		.loc 1 136 20 view .LVU507
 1705              	.LBE109:
 1706              	.LBE110:
 1707              	.LBE111:
 329:X-CUBE-AI/App/app_x-cube-ai.c ****  }
 1708              		.loc 1 329 17 view .LVU508
 1709 0050 4FF0FF30 		mov	r0, #-1
 1710              	.LVL161:
 329:X-CUBE-AI/App/app_x-cube-ai.c ****  }
 1711              		.loc 1 329 17 view .LVU509
 1712 0054 E3E7     		b	.L143
 1713              	.LVL162:
 1714              	.L151:
 329:X-CUBE-AI/App/app_x-cube-ai.c ****  }
 1715              		.loc 1 329 17 view .LVU510
 1716 0056 4FF0FF30 		mov	r0, #-1
 1717              	.LVL163:
 329:X-CUBE-AI/App/app_x-cube-ai.c ****  }
 1718              		.loc 1 329 17 view .LVU511
 1719 005a E0E7     		b	.L143
 1720              	.LVL164:
 1721              	.L152:
 329:X-CUBE-AI/App/app_x-cube-ai.c ****  }
 1722              		.loc 1 329 17 view .LVU512
 1723 005c 4FF0FF30 		mov	r0, #-1
 1724              	.LVL165:
 329:X-CUBE-AI/App/app_x-cube-ai.c ****  }
 1725              		.loc 1 329 17 view .LVU513
 1726 0060 DDE7     		b	.L143
 1727              	.L156:
 1728 0062 00BF     		.align	2
 1729              	.L155:
 1730 0064 00000000 		.word	.LANCHOR1
 1731              		.cfi_endproc
 1732              	.LFE147:
 1734              		.section	.rodata.str1.4,"aMS",%progbits,1
 1735              		.align	2
 1736              	.LC0:
 1737 0000 616E6F6D 		.ascii	"anomalydetector\000"
 1737      616C7964 
 1737      65746563 
 1737      746F7200 
 1738              		.section	.bss.gnetworks,"aw",%nobits
 1739              		.align	2
 1740              		.set	.LANCHOR1,. + 0
 1743              	gnetworks:
 1744 0000 00000000 		.space	56
ARM GAS  C:\Users\zacfi\AppData\Local\Temp\cc8f0CWG.s 			page 43


 1744      00000000 
 1744      00000000 
 1744      00000000 
 1744      00000000 
 1745              		.section	.rodata.networks,"a"
 1746              		.align	2
 1747              		.set	.LANCHOR0,. + 0
 1750              	networks:
 1751 0000 00000000 		.word	.LC0
 1752 0004 40040440 		.word	1074005056
 1753 0008 0100     		.short	1
 1754 000a 0100     		.short	1
 1755 000c 0100     		.short	1
 1756 000e 0000     		.space	2
 1757 0010 E44B0000 		.word	19428
 1758 0014 00000000 		.word	0
 1759 0018 00000000 		.word	0
 1760 001c 40040400 		.word	263232
 1761 0020 0100     		.short	1
 1762 0022 0100     		.short	1
 1763 0024 0100     		.short	1
 1764 0026 0000     		.space	2
 1765 0028 10050000 		.word	1296
 1766 002c 00000000 		.word	0
 1767 0030 00000000 		.word	0
 1768 0034 00000000 		.word	0
 1769 0038 00000000 		.word	ai_anomalydetector_data_weights_get
 1770 003c 00000000 		.word	ai_anomalydetector_get_info
 1771 0040 00000000 		.word	ai_anomalydetector_create
 1772 0044 00000000 		.word	ai_anomalydetector_get_error
 1773 0048 00000000 		.word	ai_anomalydetector_destroy
 1774 004c 00000000 		.word	ai_anomalydetector_init
 1775 0050 00000000 		.word	ai_anomalydetector_run
 1776 0054 00000000 		.word	ai_anomalydetector_forward
 1777 0058 FFFFFFFF 		.word	-1
 1778 005c 10050000 		.word	1296
 1779              		.text
 1780              	.Letext0:
 1781              		.file 2 "c:\\gnu\\gnu_arm_embedded_toolchain\\10-2020-q4-major\\arm-none-eabi\\include\\machine\\_
 1782              		.file 3 "c:\\gnu\\gnu_arm_embedded_toolchain\\10-2020-q4-major\\arm-none-eabi\\include\\sys\\_stdi
 1783              		.file 4 "Middlewares/ST/AI/Inc/ai_platform.h"
 1784              		.file 5 "X-CUBE-AI/App/app_x-cube-ai.h"
 1785              		.file 6 "c:\\gnu\\gnu_arm_embedded_toolchain\\10-2020-q4-major\\arm-none-eabi\\include\\string.h"
 1786              		.file 7 "X-CUBE-AI/App/aiSystemPerformance.h"
 1787              		.file 8 "Drivers/STM32F4xx_HAL_Driver/Inc/stm32f4xx_hal.h"
 1788              		.file 9 "X-CUBE-AI/Target/bsp_ai.h"
ARM GAS  C:\Users\zacfi\AppData\Local\Temp\cc8f0CWG.s 			page 44


DEFINED SYMBOLS
                            *ABS*:00000000 app_x-cube-ai.c
C:\Users\zacfi\AppData\Local\Temp\cc8f0CWG.s:18     .text.MX_X_CUBE_AI_Init:00000000 $t
C:\Users\zacfi\AppData\Local\Temp\cc8f0CWG.s:26     .text.MX_X_CUBE_AI_Init:00000000 MX_X_CUBE_AI_Init
C:\Users\zacfi\AppData\Local\Temp\cc8f0CWG.s:50     .text.MX_X_CUBE_AI_Process:00000000 $t
C:\Users\zacfi\AppData\Local\Temp\cc8f0CWG.s:57     .text.MX_X_CUBE_AI_Process:00000000 MX_X_CUBE_AI_Process
C:\Users\zacfi\AppData\Local\Temp\cc8f0CWG.s:81     .text.ai_mnetwork_find:00000000 $t
C:\Users\zacfi\AppData\Local\Temp\cc8f0CWG.s:88     .text.ai_mnetwork_find:00000000 ai_mnetwork_find
C:\Users\zacfi\AppData\Local\Temp\cc8f0CWG.s:237    .text.ai_mnetwork_find:00000074 $d
C:\Users\zacfi\AppData\Local\Temp\cc8f0CWG.s:243    .text.ai_mnetwork_create:00000000 $t
C:\Users\zacfi\AppData\Local\Temp\cc8f0CWG.s:250    .text.ai_mnetwork_create:00000000 ai_mnetwork_create
C:\Users\zacfi\AppData\Local\Temp\cc8f0CWG.s:503    .text.ai_mnetwork_create:000000d4 $d
C:\Users\zacfi\AppData\Local\Temp\cc8f0CWG.s:509    .text.ai_mnetwork_destroy:00000000 $t
C:\Users\zacfi\AppData\Local\Temp\cc8f0CWG.s:516    .text.ai_mnetwork_destroy:00000000 ai_mnetwork_destroy
C:\Users\zacfi\AppData\Local\Temp\cc8f0CWG.s:693    .text.ai_mnetwork_destroy:00000080 $d
C:\Users\zacfi\AppData\Local\Temp\cc8f0CWG.s:699    .text.ai_mnetwork_get_info:00000000 $t
C:\Users\zacfi\AppData\Local\Temp\cc8f0CWG.s:706    .text.ai_mnetwork_get_info:00000000 ai_mnetwork_get_info
C:\Users\zacfi\AppData\Local\Temp\cc8f0CWG.s:819    .text.ai_mnetwork_get_info:00000048 $d
C:\Users\zacfi\AppData\Local\Temp\cc8f0CWG.s:824    .text.ai_mnetwork_get_error:00000000 $t
C:\Users\zacfi\AppData\Local\Temp\cc8f0CWG.s:831    .text.ai_mnetwork_get_error:00000000 ai_mnetwork_get_error
C:\Users\zacfi\AppData\Local\Temp\cc8f0CWG.s:958    .text.ai_mnetwork_get_error:00000058 $d
C:\Users\zacfi\AppData\Local\Temp\cc8f0CWG.s:963    .text.ai_mnetwork_init:00000000 $t
C:\Users\zacfi\AppData\Local\Temp\cc8f0CWG.s:970    .text.ai_mnetwork_init:00000000 ai_mnetwork_init
C:\Users\zacfi\AppData\Local\Temp\cc8f0CWG.s:1159   .text.ai_mnetwork_init:000000b4 $d
C:\Users\zacfi\AppData\Local\Temp\cc8f0CWG.s:1164   .text.ai_mnetwork_run:00000000 $t
C:\Users\zacfi\AppData\Local\Temp\cc8f0CWG.s:1171   .text.ai_mnetwork_run:00000000 ai_mnetwork_run
C:\Users\zacfi\AppData\Local\Temp\cc8f0CWG.s:1286   .text.ai_mnetwork_run:00000048 $d
C:\Users\zacfi\AppData\Local\Temp\cc8f0CWG.s:1291   .text.ai_mnetwork_forward:00000000 $t
C:\Users\zacfi\AppData\Local\Temp\cc8f0CWG.s:1298   .text.ai_mnetwork_forward:00000000 ai_mnetwork_forward
C:\Users\zacfi\AppData\Local\Temp\cc8f0CWG.s:1411   .text.ai_mnetwork_forward:00000048 $d
C:\Users\zacfi\AppData\Local\Temp\cc8f0CWG.s:1416   .text.ai_mnetwork_get_private_handle:00000000 $t
C:\Users\zacfi\AppData\Local\Temp\cc8f0CWG.s:1423   .text.ai_mnetwork_get_private_handle:00000000 ai_mnetwork_get_private_handle
C:\Users\zacfi\AppData\Local\Temp\cc8f0CWG.s:1571   .text.ai_mnetwork_get_private_handle:00000078 $d
C:\Users\zacfi\AppData\Local\Temp\cc8f0CWG.s:1576   .text.ai_mnetwork_get_ext_data_activations:00000000 $t
C:\Users\zacfi\AppData\Local\Temp\cc8f0CWG.s:1583   .text.ai_mnetwork_get_ext_data_activations:00000000 ai_mnetwork_get_ext_data_activations
C:\Users\zacfi\AppData\Local\Temp\cc8f0CWG.s:1730   .text.ai_mnetwork_get_ext_data_activations:00000064 $d
C:\Users\zacfi\AppData\Local\Temp\cc8f0CWG.s:1735   .rodata.str1.4:00000000 $d
C:\Users\zacfi\AppData\Local\Temp\cc8f0CWG.s:1739   .bss.gnetworks:00000000 $d
C:\Users\zacfi\AppData\Local\Temp\cc8f0CWG.s:1743   .bss.gnetworks:00000000 gnetworks
C:\Users\zacfi\AppData\Local\Temp\cc8f0CWG.s:1746   .rodata.networks:00000000 $d
C:\Users\zacfi\AppData\Local\Temp\cc8f0CWG.s:1750   .rodata.networks:00000000 networks

UNDEFINED SYMBOLS
MX_USART2_UART_Init
aiSystemPerformanceInit
aiSystemPerformanceProcess
HAL_Delay
strlen
strncmp
ai_anomalydetector_data_weights_get
ai_anomalydetector_get_info
ai_anomalydetector_create
ai_anomalydetector_get_error
ai_anomalydetector_destroy
ai_anomalydetector_init
ai_anomalydetector_run
ai_anomalydetector_forward
ARM GAS  C:\Users\zacfi\AppData\Local\Temp\cc8f0CWG.s 			page 45


