ARM GAS  C:\Users\zacfi\AppData\Local\Temp\ccNfnCrX.s 			page 1


   1              		.cpu cortex-m4
   2              		.eabi_attribute 27, 1
   3              		.eabi_attribute 28, 1
   4              		.eabi_attribute 20, 1
   5              		.eabi_attribute 21, 1
   6              		.eabi_attribute 23, 3
   7              		.eabi_attribute 24, 1
   8              		.eabi_attribute 25, 1
   9              		.eabi_attribute 26, 1
  10              		.eabi_attribute 30, 1
  11              		.eabi_attribute 34, 1
  12              		.eabi_attribute 18, 4
  13              		.file	"crc.c"
  14              		.text
  15              	.Ltext0:
  16              		.cfi_sections	.debug_frame
  17              		.section	.text.MX_CRC_Init,"ax",%progbits
  18              		.align	1
  19              		.global	MX_CRC_Init
  20              		.arch armv7e-m
  21              		.syntax unified
  22              		.thumb
  23              		.thumb_func
  24              		.fpu fpv4-sp-d16
  26              	MX_CRC_Init:
  27              	.LFB130:
  28              		.file 1 "Core/Src/crc.c"
   1:Core/Src/crc.c **** /**
   2:Core/Src/crc.c ****   ******************************************************************************
   3:Core/Src/crc.c ****   * @file    crc.c
   4:Core/Src/crc.c ****   * @brief   This file provides code for the configuration
   5:Core/Src/crc.c ****   *          of the CRC instances.
   6:Core/Src/crc.c ****   ******************************************************************************
   7:Core/Src/crc.c ****   * @attention
   8:Core/Src/crc.c ****   *
   9:Core/Src/crc.c ****   * <h2><center>&copy; Copyright (c) 2021 STMicroelectronics.
  10:Core/Src/crc.c ****   * All rights reserved.</center></h2>
  11:Core/Src/crc.c ****   *
  12:Core/Src/crc.c ****   * This software component is licensed by ST under Ultimate Liberty license
  13:Core/Src/crc.c ****   * SLA0044, the "License"; You may not use this file except in compliance with
  14:Core/Src/crc.c ****   * the License. You may obtain a copy of the License at:
  15:Core/Src/crc.c ****   *                             www.st.com/SLA0044
  16:Core/Src/crc.c ****   *
  17:Core/Src/crc.c ****   ******************************************************************************
  18:Core/Src/crc.c ****   */
  19:Core/Src/crc.c **** 
  20:Core/Src/crc.c **** /* Includes ------------------------------------------------------------------*/
  21:Core/Src/crc.c **** #include "crc.h"
  22:Core/Src/crc.c **** 
  23:Core/Src/crc.c **** /* USER CODE BEGIN 0 */
  24:Core/Src/crc.c **** 
  25:Core/Src/crc.c **** /* USER CODE END 0 */
  26:Core/Src/crc.c **** 
  27:Core/Src/crc.c **** CRC_HandleTypeDef hcrc;
  28:Core/Src/crc.c **** 
  29:Core/Src/crc.c **** /* CRC init function */
  30:Core/Src/crc.c **** void MX_CRC_Init(void)
ARM GAS  C:\Users\zacfi\AppData\Local\Temp\ccNfnCrX.s 			page 2


  31:Core/Src/crc.c **** {
  29              		.loc 1 31 1 view -0
  30              		.cfi_startproc
  31              		@ args = 0, pretend = 0, frame = 0
  32              		@ frame_needed = 0, uses_anonymous_args = 0
  33 0000 08B5     		push	{r3, lr}
  34              	.LCFI0:
  35              		.cfi_def_cfa_offset 8
  36              		.cfi_offset 3, -8
  37              		.cfi_offset 14, -4
  32:Core/Src/crc.c **** 
  33:Core/Src/crc.c ****   /* USER CODE BEGIN CRC_Init 0 */
  34:Core/Src/crc.c **** 
  35:Core/Src/crc.c ****   /* USER CODE END CRC_Init 0 */
  36:Core/Src/crc.c **** 
  37:Core/Src/crc.c ****   /* USER CODE BEGIN CRC_Init 1 */
  38:Core/Src/crc.c **** 
  39:Core/Src/crc.c ****   /* USER CODE END CRC_Init 1 */
  40:Core/Src/crc.c ****   hcrc.Instance = CRC;
  38              		.loc 1 40 3 view .LVU1
  39              		.loc 1 40 17 is_stmt 0 view .LVU2
  40 0002 0548     		ldr	r0, .L5
  41 0004 054B     		ldr	r3, .L5+4
  42 0006 0360     		str	r3, [r0]
  41:Core/Src/crc.c ****   if (HAL_CRC_Init(&hcrc) != HAL_OK)
  43              		.loc 1 41 3 is_stmt 1 view .LVU3
  44              		.loc 1 41 7 is_stmt 0 view .LVU4
  45 0008 FFF7FEFF 		bl	HAL_CRC_Init
  46              	.LVL0:
  47              		.loc 1 41 6 view .LVU5
  48 000c 00B9     		cbnz	r0, .L4
  49              	.L1:
  42:Core/Src/crc.c ****   {
  43:Core/Src/crc.c ****     Error_Handler();
  44:Core/Src/crc.c ****   }
  45:Core/Src/crc.c ****   /* USER CODE BEGIN CRC_Init 2 */
  46:Core/Src/crc.c **** 
  47:Core/Src/crc.c ****   /* USER CODE END CRC_Init 2 */
  48:Core/Src/crc.c **** 
  49:Core/Src/crc.c **** }
  50              		.loc 1 49 1 view .LVU6
  51 000e 08BD     		pop	{r3, pc}
  52              	.L4:
  43:Core/Src/crc.c ****   }
  53              		.loc 1 43 5 is_stmt 1 view .LVU7
  54 0010 FFF7FEFF 		bl	Error_Handler
  55              	.LVL1:
  56              		.loc 1 49 1 is_stmt 0 view .LVU8
  57 0014 FBE7     		b	.L1
  58              	.L6:
  59 0016 00BF     		.align	2
  60              	.L5:
  61 0018 00000000 		.word	.LANCHOR0
  62 001c 00300240 		.word	1073885184
  63              		.cfi_endproc
  64              	.LFE130:
  66              		.section	.text.HAL_CRC_MspInit,"ax",%progbits
ARM GAS  C:\Users\zacfi\AppData\Local\Temp\ccNfnCrX.s 			page 3


  67              		.align	1
  68              		.global	HAL_CRC_MspInit
  69              		.syntax unified
  70              		.thumb
  71              		.thumb_func
  72              		.fpu fpv4-sp-d16
  74              	HAL_CRC_MspInit:
  75              	.LVL2:
  76              	.LFB131:
  50:Core/Src/crc.c **** 
  51:Core/Src/crc.c **** void HAL_CRC_MspInit(CRC_HandleTypeDef* crcHandle)
  52:Core/Src/crc.c **** {
  77              		.loc 1 52 1 is_stmt 1 view -0
  78              		.cfi_startproc
  79              		@ args = 0, pretend = 0, frame = 8
  80              		@ frame_needed = 0, uses_anonymous_args = 0
  81              		@ link register save eliminated.
  53:Core/Src/crc.c **** 
  54:Core/Src/crc.c ****   if(crcHandle->Instance==CRC)
  82              		.loc 1 54 3 view .LVU10
  83              		.loc 1 54 15 is_stmt 0 view .LVU11
  84 0000 0268     		ldr	r2, [r0]
  85              		.loc 1 54 5 view .LVU12
  86 0002 094B     		ldr	r3, .L14
  87 0004 9A42     		cmp	r2, r3
  88 0006 00D0     		beq	.L13
  89 0008 7047     		bx	lr
  90              	.L13:
  52:Core/Src/crc.c **** 
  91              		.loc 1 52 1 view .LVU13
  92 000a 82B0     		sub	sp, sp, #8
  93              	.LCFI1:
  94              		.cfi_def_cfa_offset 8
  55:Core/Src/crc.c ****   {
  56:Core/Src/crc.c ****   /* USER CODE BEGIN CRC_MspInit 0 */
  57:Core/Src/crc.c **** 
  58:Core/Src/crc.c ****   /* USER CODE END CRC_MspInit 0 */
  59:Core/Src/crc.c ****     /* CRC clock enable */
  60:Core/Src/crc.c ****     __HAL_RCC_CRC_CLK_ENABLE();
  95              		.loc 1 60 5 is_stmt 1 view .LVU14
  96              	.LBB2:
  97              		.loc 1 60 5 view .LVU15
  98 000c 0023     		movs	r3, #0
  99 000e 0193     		str	r3, [sp, #4]
 100              		.loc 1 60 5 view .LVU16
 101 0010 064B     		ldr	r3, .L14+4
 102 0012 1A6B     		ldr	r2, [r3, #48]
 103 0014 42F48052 		orr	r2, r2, #4096
 104 0018 1A63     		str	r2, [r3, #48]
 105              		.loc 1 60 5 view .LVU17
 106 001a 1B6B     		ldr	r3, [r3, #48]
 107 001c 03F48053 		and	r3, r3, #4096
 108 0020 0193     		str	r3, [sp, #4]
 109              		.loc 1 60 5 view .LVU18
 110 0022 019B     		ldr	r3, [sp, #4]
 111              	.LBE2:
 112              		.loc 1 60 5 view .LVU19
ARM GAS  C:\Users\zacfi\AppData\Local\Temp\ccNfnCrX.s 			page 4


  61:Core/Src/crc.c ****   /* USER CODE BEGIN CRC_MspInit 1 */
  62:Core/Src/crc.c **** 
  63:Core/Src/crc.c ****   /* USER CODE END CRC_MspInit 1 */
  64:Core/Src/crc.c ****   }
  65:Core/Src/crc.c **** }
 113              		.loc 1 65 1 is_stmt 0 view .LVU20
 114 0024 02B0     		add	sp, sp, #8
 115              	.LCFI2:
 116              		.cfi_def_cfa_offset 0
 117              		@ sp needed
 118 0026 7047     		bx	lr
 119              	.L15:
 120              		.align	2
 121              	.L14:
 122 0028 00300240 		.word	1073885184
 123 002c 00380240 		.word	1073887232
 124              		.cfi_endproc
 125              	.LFE131:
 127              		.section	.text.HAL_CRC_MspDeInit,"ax",%progbits
 128              		.align	1
 129              		.global	HAL_CRC_MspDeInit
 130              		.syntax unified
 131              		.thumb
 132              		.thumb_func
 133              		.fpu fpv4-sp-d16
 135              	HAL_CRC_MspDeInit:
 136              	.LVL3:
 137              	.LFB132:
  66:Core/Src/crc.c **** 
  67:Core/Src/crc.c **** void HAL_CRC_MspDeInit(CRC_HandleTypeDef* crcHandle)
  68:Core/Src/crc.c **** {
 138              		.loc 1 68 1 is_stmt 1 view -0
 139              		.cfi_startproc
 140              		@ args = 0, pretend = 0, frame = 0
 141              		@ frame_needed = 0, uses_anonymous_args = 0
 142              		@ link register save eliminated.
  69:Core/Src/crc.c **** 
  70:Core/Src/crc.c ****   if(crcHandle->Instance==CRC)
 143              		.loc 1 70 3 view .LVU22
 144              		.loc 1 70 15 is_stmt 0 view .LVU23
 145 0000 0268     		ldr	r2, [r0]
 146              		.loc 1 70 5 view .LVU24
 147 0002 054B     		ldr	r3, .L19
 148 0004 9A42     		cmp	r2, r3
 149 0006 00D0     		beq	.L18
 150              	.L16:
  71:Core/Src/crc.c ****   {
  72:Core/Src/crc.c ****   /* USER CODE BEGIN CRC_MspDeInit 0 */
  73:Core/Src/crc.c **** 
  74:Core/Src/crc.c ****   /* USER CODE END CRC_MspDeInit 0 */
  75:Core/Src/crc.c ****     /* Peripheral clock disable */
  76:Core/Src/crc.c ****     __HAL_RCC_CRC_CLK_DISABLE();
  77:Core/Src/crc.c ****   /* USER CODE BEGIN CRC_MspDeInit 1 */
  78:Core/Src/crc.c **** 
  79:Core/Src/crc.c ****   /* USER CODE END CRC_MspDeInit 1 */
  80:Core/Src/crc.c ****   }
  81:Core/Src/crc.c **** }
ARM GAS  C:\Users\zacfi\AppData\Local\Temp\ccNfnCrX.s 			page 5


 151              		.loc 1 81 1 view .LVU25
 152 0008 7047     		bx	lr
 153              	.L18:
  76:Core/Src/crc.c ****   /* USER CODE BEGIN CRC_MspDeInit 1 */
 154              		.loc 1 76 5 is_stmt 1 view .LVU26
 155 000a 044A     		ldr	r2, .L19+4
 156 000c 136B     		ldr	r3, [r2, #48]
 157 000e 23F48053 		bic	r3, r3, #4096
 158 0012 1363     		str	r3, [r2, #48]
 159              		.loc 1 81 1 is_stmt 0 view .LVU27
 160 0014 F8E7     		b	.L16
 161              	.L20:
 162 0016 00BF     		.align	2
 163              	.L19:
 164 0018 00300240 		.word	1073885184
 165 001c 00380240 		.word	1073887232
 166              		.cfi_endproc
 167              	.LFE132:
 169              		.global	hcrc
 170              		.section	.bss.hcrc,"aw",%nobits
 171              		.align	2
 172              		.set	.LANCHOR0,. + 0
 175              	hcrc:
 176 0000 00000000 		.space	8
 176      00000000 
 177              		.text
 178              	.Letext0:
 179              		.file 2 "c:\\gnu\\gnu_arm_embedded_toolchain\\10-2020-q4-major\\arm-none-eabi\\include\\machine\\_
 180              		.file 3 "c:\\gnu\\gnu_arm_embedded_toolchain\\10-2020-q4-major\\arm-none-eabi\\include\\sys\\_stdi
 181              		.file 4 "Drivers/CMSIS/Device/ST/STM32F4xx/Include/stm32f446xx.h"
 182              		.file 5 "Drivers/STM32F4xx_HAL_Driver/Inc/stm32f4xx_hal_def.h"
 183              		.file 6 "Drivers/STM32F4xx_HAL_Driver/Inc/stm32f4xx_hal_crc.h"
 184              		.file 7 "Core/Inc/main.h"
 185              		.file 8 "Core/Inc/crc.h"
ARM GAS  C:\Users\zacfi\AppData\Local\Temp\ccNfnCrX.s 			page 6

