ARM GAS  C:\Users\zacfi\AppData\Local\Temp\ccOBZAaL.s 			page 1


   1              		.cpu cortex-m4
   2              		.eabi_attribute 27, 1
   3              		.eabi_attribute 28, 1
   4              		.eabi_attribute 20, 1
   5              		.eabi_attribute 21, 1
   6              		.eabi_attribute 23, 3
   7              		.eabi_attribute 24, 1
   8              		.eabi_attribute 25, 1
   9              		.eabi_attribute 26, 1
  10              		.eabi_attribute 30, 1
  11              		.eabi_attribute 34, 1
  12              		.eabi_attribute 18, 4
  13              		.file	"main.c"
  14              		.text
  15              	.Ltext0:
  16              		.cfi_sections	.debug_frame
  17              		.section	.text.MX_GPIO_Init,"ax",%progbits
  18              		.align	1
  19              		.arch armv7e-m
  20              		.syntax unified
  21              		.thumb
  22              		.thumb_func
  23              		.fpu fpv4-sp-d16
  25              	MX_GPIO_Init:
  26              	.LFB135:
  27              		.file 1 "Core/Src/main.c"
   1:Core/Src/main.c **** /* USER CODE BEGIN Header */
   2:Core/Src/main.c **** /**
   3:Core/Src/main.c ****   ******************************************************************************
   4:Core/Src/main.c ****   * @file           : main.c
   5:Core/Src/main.c ****   * @brief          : Main program body
   6:Core/Src/main.c ****   ******************************************************************************
   7:Core/Src/main.c ****   * @attention
   8:Core/Src/main.c ****   *
   9:Core/Src/main.c ****   * <h2><center>&copy; Copyright (c) 2021 STMicroelectronics.
  10:Core/Src/main.c ****   * All rights reserved.</center></h2>
  11:Core/Src/main.c ****   *
  12:Core/Src/main.c ****   * This software component is licensed by ST under Ultimate Liberty license
  13:Core/Src/main.c ****   * SLA0044, the "License"; You may not use this file except in compliance with
  14:Core/Src/main.c ****   * the License. You may obtain a copy of the License at:
  15:Core/Src/main.c ****   *                             www.st.com/SLA0044
  16:Core/Src/main.c ****   *
  17:Core/Src/main.c ****   ******************************************************************************
  18:Core/Src/main.c ****   */
  19:Core/Src/main.c **** /* USER CODE END Header */
  20:Core/Src/main.c **** /* Includes ------------------------------------------------------------------*/
  21:Core/Src/main.c **** #include "main.h"
  22:Core/Src/main.c **** #include "app_x-cube-ai.h"
  23:Core/Src/main.c **** 
  24:Core/Src/main.c **** /* Private includes ----------------------------------------------------------*/
  25:Core/Src/main.c **** /* USER CODE BEGIN Includes */
  26:Core/Src/main.c **** 
  27:Core/Src/main.c **** /* USER CODE END Includes */
  28:Core/Src/main.c **** 
  29:Core/Src/main.c **** /* Private typedef -----------------------------------------------------------*/
  30:Core/Src/main.c **** /* USER CODE BEGIN PTD */
  31:Core/Src/main.c **** 
ARM GAS  C:\Users\zacfi\AppData\Local\Temp\ccOBZAaL.s 			page 2


  32:Core/Src/main.c **** /* USER CODE END PTD */
  33:Core/Src/main.c **** 
  34:Core/Src/main.c **** /* Private define ------------------------------------------------------------*/
  35:Core/Src/main.c **** /* USER CODE BEGIN PD */
  36:Core/Src/main.c **** /* USER CODE END PD */
  37:Core/Src/main.c **** 
  38:Core/Src/main.c **** /* Private macro -------------------------------------------------------------*/
  39:Core/Src/main.c **** /* USER CODE BEGIN PM */
  40:Core/Src/main.c **** 
  41:Core/Src/main.c **** /* USER CODE END PM */
  42:Core/Src/main.c **** 
  43:Core/Src/main.c **** /* Private variables ---------------------------------------------------------*/
  44:Core/Src/main.c **** CRC_HandleTypeDef hcrc;
  45:Core/Src/main.c **** 
  46:Core/Src/main.c **** I2C_HandleTypeDef hi2c1;
  47:Core/Src/main.c **** 
  48:Core/Src/main.c **** UART_HandleTypeDef huart2;
  49:Core/Src/main.c **** 
  50:Core/Src/main.c **** /* USER CODE BEGIN PV */
  51:Core/Src/main.c **** 
  52:Core/Src/main.c **** /* USER CODE END PV */
  53:Core/Src/main.c **** 
  54:Core/Src/main.c **** /* Private function prototypes -----------------------------------------------*/
  55:Core/Src/main.c **** void SystemClock_Config(void);
  56:Core/Src/main.c **** static void MX_GPIO_Init(void);
  57:Core/Src/main.c **** static void MX_CRC_Init(void);
  58:Core/Src/main.c **** static void MX_I2C1_Init(void);
  59:Core/Src/main.c **** /* USER CODE BEGIN PFP */
  60:Core/Src/main.c **** 
  61:Core/Src/main.c **** /* USER CODE END PFP */
  62:Core/Src/main.c **** 
  63:Core/Src/main.c **** /* Private user code ---------------------------------------------------------*/
  64:Core/Src/main.c **** /* USER CODE BEGIN 0 */
  65:Core/Src/main.c **** 
  66:Core/Src/main.c **** /* USER CODE END 0 */
  67:Core/Src/main.c **** 
  68:Core/Src/main.c **** /**
  69:Core/Src/main.c ****   * @brief  The application entry point.
  70:Core/Src/main.c ****   * @retval int
  71:Core/Src/main.c ****   */
  72:Core/Src/main.c **** int main(void)
  73:Core/Src/main.c **** {
  74:Core/Src/main.c ****   /* USER CODE BEGIN 1 */
  75:Core/Src/main.c **** 
  76:Core/Src/main.c ****   /* USER CODE END 1 */
  77:Core/Src/main.c **** 
  78:Core/Src/main.c ****   /* MCU Configuration--------------------------------------------------------*/
  79:Core/Src/main.c **** 
  80:Core/Src/main.c ****   /* Reset of all peripherals, Initializes the Flash interface and the Systick. */
  81:Core/Src/main.c ****   HAL_Init();
  82:Core/Src/main.c **** 
  83:Core/Src/main.c ****   /* USER CODE BEGIN Init */
  84:Core/Src/main.c **** 
  85:Core/Src/main.c ****   /* USER CODE END Init */
  86:Core/Src/main.c **** 
  87:Core/Src/main.c ****   /* Configure the system clock */
  88:Core/Src/main.c ****   SystemClock_Config();
ARM GAS  C:\Users\zacfi\AppData\Local\Temp\ccOBZAaL.s 			page 3


  89:Core/Src/main.c **** 
  90:Core/Src/main.c ****   /* USER CODE BEGIN SysInit */
  91:Core/Src/main.c **** 
  92:Core/Src/main.c ****   /* USER CODE END SysInit */
  93:Core/Src/main.c **** 
  94:Core/Src/main.c ****   /* Initialize all configured peripherals */
  95:Core/Src/main.c ****   MX_GPIO_Init();
  96:Core/Src/main.c ****   MX_CRC_Init();
  97:Core/Src/main.c ****   MX_I2C1_Init();
  98:Core/Src/main.c ****   MX_X_CUBE_AI_Init();
  99:Core/Src/main.c ****   /* USER CODE BEGIN 2 */
 100:Core/Src/main.c **** 
 101:Core/Src/main.c ****   /* USER CODE END 2 */
 102:Core/Src/main.c **** 
 103:Core/Src/main.c ****   /* Infinite loop */
 104:Core/Src/main.c ****   /* USER CODE BEGIN WHILE */
 105:Core/Src/main.c ****   while (1)
 106:Core/Src/main.c ****   {
 107:Core/Src/main.c ****     /* USER CODE END WHILE */
 108:Core/Src/main.c **** 
 109:Core/Src/main.c ****   MX_X_CUBE_AI_Process();
 110:Core/Src/main.c ****     /* USER CODE BEGIN 3 */
 111:Core/Src/main.c ****   }
 112:Core/Src/main.c ****   /* USER CODE END 3 */
 113:Core/Src/main.c **** }
 114:Core/Src/main.c **** 
 115:Core/Src/main.c **** /**
 116:Core/Src/main.c ****   * @brief System Clock Configuration
 117:Core/Src/main.c ****   * @retval None
 118:Core/Src/main.c ****   */
 119:Core/Src/main.c **** void SystemClock_Config(void)
 120:Core/Src/main.c **** {
 121:Core/Src/main.c ****   RCC_OscInitTypeDef RCC_OscInitStruct = {0};
 122:Core/Src/main.c ****   RCC_ClkInitTypeDef RCC_ClkInitStruct = {0};
 123:Core/Src/main.c **** 
 124:Core/Src/main.c ****   /** Configure the main internal regulator output voltage
 125:Core/Src/main.c ****   */
 126:Core/Src/main.c ****   __HAL_RCC_PWR_CLK_ENABLE();
 127:Core/Src/main.c ****   __HAL_PWR_VOLTAGESCALING_CONFIG(PWR_REGULATOR_VOLTAGE_SCALE1);
 128:Core/Src/main.c ****   /** Initializes the RCC Oscillators according to the specified parameters
 129:Core/Src/main.c ****   * in the RCC_OscInitTypeDef structure.
 130:Core/Src/main.c ****   */
 131:Core/Src/main.c ****   RCC_OscInitStruct.OscillatorType = RCC_OSCILLATORTYPE_HSE;
 132:Core/Src/main.c ****   RCC_OscInitStruct.HSEState = RCC_HSE_ON;
 133:Core/Src/main.c ****   RCC_OscInitStruct.PLL.PLLState = RCC_PLL_ON;
 134:Core/Src/main.c ****   RCC_OscInitStruct.PLL.PLLSource = RCC_PLLSOURCE_HSE;
 135:Core/Src/main.c ****   RCC_OscInitStruct.PLL.PLLM = 4;
 136:Core/Src/main.c ****   RCC_OscInitStruct.PLL.PLLN = 180;
 137:Core/Src/main.c ****   RCC_OscInitStruct.PLL.PLLP = RCC_PLLP_DIV2;
 138:Core/Src/main.c ****   RCC_OscInitStruct.PLL.PLLQ = 2;
 139:Core/Src/main.c ****   RCC_OscInitStruct.PLL.PLLR = 2;
 140:Core/Src/main.c ****   if (HAL_RCC_OscConfig(&RCC_OscInitStruct) != HAL_OK)
 141:Core/Src/main.c ****   {
 142:Core/Src/main.c ****     Error_Handler();
 143:Core/Src/main.c ****   }
 144:Core/Src/main.c ****   /** Activate the Over-Drive mode
 145:Core/Src/main.c ****   */
ARM GAS  C:\Users\zacfi\AppData\Local\Temp\ccOBZAaL.s 			page 4


 146:Core/Src/main.c ****   if (HAL_PWREx_EnableOverDrive() != HAL_OK)
 147:Core/Src/main.c ****   {
 148:Core/Src/main.c ****     Error_Handler();
 149:Core/Src/main.c ****   }
 150:Core/Src/main.c ****   /** Initializes the CPU, AHB and APB buses clocks
 151:Core/Src/main.c ****   */
 152:Core/Src/main.c ****   RCC_ClkInitStruct.ClockType = RCC_CLOCKTYPE_HCLK|RCC_CLOCKTYPE_SYSCLK
 153:Core/Src/main.c ****                               |RCC_CLOCKTYPE_PCLK1|RCC_CLOCKTYPE_PCLK2;
 154:Core/Src/main.c ****   RCC_ClkInitStruct.SYSCLKSource = RCC_SYSCLKSOURCE_PLLCLK;
 155:Core/Src/main.c ****   RCC_ClkInitStruct.AHBCLKDivider = RCC_SYSCLK_DIV1;
 156:Core/Src/main.c ****   RCC_ClkInitStruct.APB1CLKDivider = RCC_HCLK_DIV4;
 157:Core/Src/main.c ****   RCC_ClkInitStruct.APB2CLKDivider = RCC_HCLK_DIV2;
 158:Core/Src/main.c **** 
 159:Core/Src/main.c ****   if (HAL_RCC_ClockConfig(&RCC_ClkInitStruct, FLASH_LATENCY_5) != HAL_OK)
 160:Core/Src/main.c ****   {
 161:Core/Src/main.c ****     Error_Handler();
 162:Core/Src/main.c ****   }
 163:Core/Src/main.c **** }
 164:Core/Src/main.c **** 
 165:Core/Src/main.c **** /**
 166:Core/Src/main.c ****   * @brief CRC Initialization Function
 167:Core/Src/main.c ****   * @param None
 168:Core/Src/main.c ****   * @retval None
 169:Core/Src/main.c ****   */
 170:Core/Src/main.c **** static void MX_CRC_Init(void)
 171:Core/Src/main.c **** {
 172:Core/Src/main.c **** 
 173:Core/Src/main.c ****   /* USER CODE BEGIN CRC_Init 0 */
 174:Core/Src/main.c **** 
 175:Core/Src/main.c ****   /* USER CODE END CRC_Init 0 */
 176:Core/Src/main.c **** 
 177:Core/Src/main.c ****   /* USER CODE BEGIN CRC_Init 1 */
 178:Core/Src/main.c **** 
 179:Core/Src/main.c ****   /* USER CODE END CRC_Init 1 */
 180:Core/Src/main.c ****   hcrc.Instance = CRC;
 181:Core/Src/main.c ****   if (HAL_CRC_Init(&hcrc) != HAL_OK)
 182:Core/Src/main.c ****   {
 183:Core/Src/main.c ****     Error_Handler();
 184:Core/Src/main.c ****   }
 185:Core/Src/main.c ****   /* USER CODE BEGIN CRC_Init 2 */
 186:Core/Src/main.c **** 
 187:Core/Src/main.c ****   /* USER CODE END CRC_Init 2 */
 188:Core/Src/main.c **** 
 189:Core/Src/main.c **** }
 190:Core/Src/main.c **** 
 191:Core/Src/main.c **** /**
 192:Core/Src/main.c ****   * @brief I2C1 Initialization Function
 193:Core/Src/main.c ****   * @param None
 194:Core/Src/main.c ****   * @retval None
 195:Core/Src/main.c ****   */
 196:Core/Src/main.c **** static void MX_I2C1_Init(void)
 197:Core/Src/main.c **** {
 198:Core/Src/main.c **** 
 199:Core/Src/main.c ****   /* USER CODE BEGIN I2C1_Init 0 */
 200:Core/Src/main.c **** 
 201:Core/Src/main.c ****   /* USER CODE END I2C1_Init 0 */
 202:Core/Src/main.c **** 
ARM GAS  C:\Users\zacfi\AppData\Local\Temp\ccOBZAaL.s 			page 5


 203:Core/Src/main.c ****   /* USER CODE BEGIN I2C1_Init 1 */
 204:Core/Src/main.c **** 
 205:Core/Src/main.c ****   /* USER CODE END I2C1_Init 1 */
 206:Core/Src/main.c ****   hi2c1.Instance = I2C1;
 207:Core/Src/main.c ****   hi2c1.Init.ClockSpeed = 400000;
 208:Core/Src/main.c ****   hi2c1.Init.DutyCycle = I2C_DUTYCYCLE_2;
 209:Core/Src/main.c ****   hi2c1.Init.OwnAddress1 = 0;
 210:Core/Src/main.c ****   hi2c1.Init.AddressingMode = I2C_ADDRESSINGMODE_7BIT;
 211:Core/Src/main.c ****   hi2c1.Init.DualAddressMode = I2C_DUALADDRESS_DISABLE;
 212:Core/Src/main.c ****   hi2c1.Init.OwnAddress2 = 0;
 213:Core/Src/main.c ****   hi2c1.Init.GeneralCallMode = I2C_GENERALCALL_DISABLE;
 214:Core/Src/main.c ****   hi2c1.Init.NoStretchMode = I2C_NOSTRETCH_DISABLE;
 215:Core/Src/main.c ****   if (HAL_I2C_Init(&hi2c1) != HAL_OK)
 216:Core/Src/main.c ****   {
 217:Core/Src/main.c ****     Error_Handler();
 218:Core/Src/main.c ****   }
 219:Core/Src/main.c ****   /* USER CODE BEGIN I2C1_Init 2 */
 220:Core/Src/main.c **** 
 221:Core/Src/main.c ****   /* USER CODE END I2C1_Init 2 */
 222:Core/Src/main.c **** 
 223:Core/Src/main.c **** }
 224:Core/Src/main.c **** 
 225:Core/Src/main.c **** /**
 226:Core/Src/main.c ****   * @brief USART2 Initialization Function
 227:Core/Src/main.c ****   * @param None
 228:Core/Src/main.c ****   * @retval None
 229:Core/Src/main.c ****   */
 230:Core/Src/main.c **** void MX_USART2_UART_Init(void)
 231:Core/Src/main.c **** {
 232:Core/Src/main.c **** 
 233:Core/Src/main.c ****   /* USER CODE BEGIN USART2_Init 0 */
 234:Core/Src/main.c **** 
 235:Core/Src/main.c ****   /* USER CODE END USART2_Init 0 */
 236:Core/Src/main.c **** 
 237:Core/Src/main.c ****   /* USER CODE BEGIN USART2_Init 1 */
 238:Core/Src/main.c **** 
 239:Core/Src/main.c ****   /* USER CODE END USART2_Init 1 */
 240:Core/Src/main.c ****   huart2.Instance = USART2;
 241:Core/Src/main.c ****   huart2.Init.BaudRate = 115200;
 242:Core/Src/main.c ****   huart2.Init.WordLength = UART_WORDLENGTH_8B;
 243:Core/Src/main.c ****   huart2.Init.StopBits = UART_STOPBITS_1;
 244:Core/Src/main.c ****   huart2.Init.Parity = UART_PARITY_NONE;
 245:Core/Src/main.c ****   huart2.Init.Mode = UART_MODE_TX_RX;
 246:Core/Src/main.c ****   huart2.Init.HwFlowCtl = UART_HWCONTROL_NONE;
 247:Core/Src/main.c ****   huart2.Init.OverSampling = UART_OVERSAMPLING_16;
 248:Core/Src/main.c ****   if (HAL_UART_Init(&huart2) != HAL_OK)
 249:Core/Src/main.c ****   {
 250:Core/Src/main.c ****     Error_Handler();
 251:Core/Src/main.c ****   }
 252:Core/Src/main.c ****   /* USER CODE BEGIN USART2_Init 2 */
 253:Core/Src/main.c **** 
 254:Core/Src/main.c ****   /* USER CODE END USART2_Init 2 */
 255:Core/Src/main.c **** 
 256:Core/Src/main.c **** }
 257:Core/Src/main.c **** 
 258:Core/Src/main.c **** /**
 259:Core/Src/main.c ****   * @brief GPIO Initialization Function
ARM GAS  C:\Users\zacfi\AppData\Local\Temp\ccOBZAaL.s 			page 6


 260:Core/Src/main.c ****   * @param None
 261:Core/Src/main.c ****   * @retval None
 262:Core/Src/main.c ****   */
 263:Core/Src/main.c **** static void MX_GPIO_Init(void)
 264:Core/Src/main.c **** {
  28              		.loc 1 264 1 view -0
  29              		.cfi_startproc
  30              		@ args = 0, pretend = 0, frame = 40
  31              		@ frame_needed = 0, uses_anonymous_args = 0
  32 0000 30B5     		push	{r4, r5, lr}
  33              	.LCFI0:
  34              		.cfi_def_cfa_offset 12
  35              		.cfi_offset 4, -12
  36              		.cfi_offset 5, -8
  37              		.cfi_offset 14, -4
  38 0002 8BB0     		sub	sp, sp, #44
  39              	.LCFI1:
  40              		.cfi_def_cfa_offset 56
 265:Core/Src/main.c ****   GPIO_InitTypeDef GPIO_InitStruct = {0};
  41              		.loc 1 265 3 view .LVU1
  42              		.loc 1 265 20 is_stmt 0 view .LVU2
  43 0004 0024     		movs	r4, #0
  44 0006 0594     		str	r4, [sp, #20]
  45 0008 0694     		str	r4, [sp, #24]
  46 000a 0794     		str	r4, [sp, #28]
  47 000c 0894     		str	r4, [sp, #32]
  48 000e 0994     		str	r4, [sp, #36]
 266:Core/Src/main.c **** 
 267:Core/Src/main.c ****   /* GPIO Ports Clock Enable */
 268:Core/Src/main.c ****   __HAL_RCC_GPIOC_CLK_ENABLE();
  49              		.loc 1 268 3 is_stmt 1 view .LVU3
  50              	.LBB4:
  51              		.loc 1 268 3 view .LVU4
  52 0010 0194     		str	r4, [sp, #4]
  53              		.loc 1 268 3 view .LVU5
  54 0012 224B     		ldr	r3, .L3
  55 0014 1A6B     		ldr	r2, [r3, #48]
  56 0016 42F00402 		orr	r2, r2, #4
  57 001a 1A63     		str	r2, [r3, #48]
  58              		.loc 1 268 3 view .LVU6
  59 001c 1A6B     		ldr	r2, [r3, #48]
  60 001e 02F00402 		and	r2, r2, #4
  61 0022 0192     		str	r2, [sp, #4]
  62              		.loc 1 268 3 view .LVU7
  63 0024 019A     		ldr	r2, [sp, #4]
  64              	.LBE4:
  65              		.loc 1 268 3 view .LVU8
 269:Core/Src/main.c ****   __HAL_RCC_GPIOH_CLK_ENABLE();
  66              		.loc 1 269 3 view .LVU9
  67              	.LBB5:
  68              		.loc 1 269 3 view .LVU10
  69 0026 0294     		str	r4, [sp, #8]
  70              		.loc 1 269 3 view .LVU11
  71 0028 1A6B     		ldr	r2, [r3, #48]
  72 002a 42F08002 		orr	r2, r2, #128
  73 002e 1A63     		str	r2, [r3, #48]
  74              		.loc 1 269 3 view .LVU12
ARM GAS  C:\Users\zacfi\AppData\Local\Temp\ccOBZAaL.s 			page 7


  75 0030 1A6B     		ldr	r2, [r3, #48]
  76 0032 02F08002 		and	r2, r2, #128
  77 0036 0292     		str	r2, [sp, #8]
  78              		.loc 1 269 3 view .LVU13
  79 0038 029A     		ldr	r2, [sp, #8]
  80              	.LBE5:
  81              		.loc 1 269 3 view .LVU14
 270:Core/Src/main.c ****   __HAL_RCC_GPIOA_CLK_ENABLE();
  82              		.loc 1 270 3 view .LVU15
  83              	.LBB6:
  84              		.loc 1 270 3 view .LVU16
  85 003a 0394     		str	r4, [sp, #12]
  86              		.loc 1 270 3 view .LVU17
  87 003c 1A6B     		ldr	r2, [r3, #48]
  88 003e 42F00102 		orr	r2, r2, #1
  89 0042 1A63     		str	r2, [r3, #48]
  90              		.loc 1 270 3 view .LVU18
  91 0044 1A6B     		ldr	r2, [r3, #48]
  92 0046 02F00102 		and	r2, r2, #1
  93 004a 0392     		str	r2, [sp, #12]
  94              		.loc 1 270 3 view .LVU19
  95 004c 039A     		ldr	r2, [sp, #12]
  96              	.LBE6:
  97              		.loc 1 270 3 view .LVU20
 271:Core/Src/main.c ****   __HAL_RCC_GPIOB_CLK_ENABLE();
  98              		.loc 1 271 3 view .LVU21
  99              	.LBB7:
 100              		.loc 1 271 3 view .LVU22
 101 004e 0494     		str	r4, [sp, #16]
 102              		.loc 1 271 3 view .LVU23
 103 0050 1A6B     		ldr	r2, [r3, #48]
 104 0052 42F00202 		orr	r2, r2, #2
 105 0056 1A63     		str	r2, [r3, #48]
 106              		.loc 1 271 3 view .LVU24
 107 0058 1B6B     		ldr	r3, [r3, #48]
 108 005a 03F00203 		and	r3, r3, #2
 109 005e 0493     		str	r3, [sp, #16]
 110              		.loc 1 271 3 view .LVU25
 111 0060 049B     		ldr	r3, [sp, #16]
 112              	.LBE7:
 113              		.loc 1 271 3 view .LVU26
 272:Core/Src/main.c **** 
 273:Core/Src/main.c ****   /*Configure GPIO pin Output Level */
 274:Core/Src/main.c ****   HAL_GPIO_WritePin(LD2_GPIO_Port, LD2_Pin, GPIO_PIN_RESET);
 114              		.loc 1 274 3 view .LVU27
 115 0062 0F4D     		ldr	r5, .L3+4
 116 0064 2246     		mov	r2, r4
 117 0066 2021     		movs	r1, #32
 118 0068 2846     		mov	r0, r5
 119 006a FFF7FEFF 		bl	HAL_GPIO_WritePin
 120              	.LVL0:
 275:Core/Src/main.c **** 
 276:Core/Src/main.c ****   /*Configure GPIO pin : B1_Pin */
 277:Core/Src/main.c ****   GPIO_InitStruct.Pin = B1_Pin;
 121              		.loc 1 277 3 view .LVU28
 122              		.loc 1 277 23 is_stmt 0 view .LVU29
 123 006e 4FF40053 		mov	r3, #8192
ARM GAS  C:\Users\zacfi\AppData\Local\Temp\ccOBZAaL.s 			page 8


 124 0072 0593     		str	r3, [sp, #20]
 278:Core/Src/main.c ****   GPIO_InitStruct.Mode = GPIO_MODE_IT_FALLING;
 125              		.loc 1 278 3 is_stmt 1 view .LVU30
 126              		.loc 1 278 24 is_stmt 0 view .LVU31
 127 0074 0B4B     		ldr	r3, .L3+8
 128 0076 0693     		str	r3, [sp, #24]
 279:Core/Src/main.c ****   GPIO_InitStruct.Pull = GPIO_NOPULL;
 129              		.loc 1 279 3 is_stmt 1 view .LVU32
 130              		.loc 1 279 24 is_stmt 0 view .LVU33
 131 0078 0794     		str	r4, [sp, #28]
 280:Core/Src/main.c ****   HAL_GPIO_Init(B1_GPIO_Port, &GPIO_InitStruct);
 132              		.loc 1 280 3 is_stmt 1 view .LVU34
 133 007a 05A9     		add	r1, sp, #20
 134 007c 0A48     		ldr	r0, .L3+12
 135 007e FFF7FEFF 		bl	HAL_GPIO_Init
 136              	.LVL1:
 281:Core/Src/main.c **** 
 282:Core/Src/main.c ****   /*Configure GPIO pin : LD2_Pin */
 283:Core/Src/main.c ****   GPIO_InitStruct.Pin = LD2_Pin;
 137              		.loc 1 283 3 view .LVU35
 138              		.loc 1 283 23 is_stmt 0 view .LVU36
 139 0082 2023     		movs	r3, #32
 140 0084 0593     		str	r3, [sp, #20]
 284:Core/Src/main.c ****   GPIO_InitStruct.Mode = GPIO_MODE_OUTPUT_PP;
 141              		.loc 1 284 3 is_stmt 1 view .LVU37
 142              		.loc 1 284 24 is_stmt 0 view .LVU38
 143 0086 0123     		movs	r3, #1
 144 0088 0693     		str	r3, [sp, #24]
 285:Core/Src/main.c ****   GPIO_InitStruct.Pull = GPIO_NOPULL;
 145              		.loc 1 285 3 is_stmt 1 view .LVU39
 146              		.loc 1 285 24 is_stmt 0 view .LVU40
 147 008a 0794     		str	r4, [sp, #28]
 286:Core/Src/main.c ****   GPIO_InitStruct.Speed = GPIO_SPEED_FREQ_LOW;
 148              		.loc 1 286 3 is_stmt 1 view .LVU41
 149              		.loc 1 286 25 is_stmt 0 view .LVU42
 150 008c 0894     		str	r4, [sp, #32]
 287:Core/Src/main.c ****   HAL_GPIO_Init(LD2_GPIO_Port, &GPIO_InitStruct);
 151              		.loc 1 287 3 is_stmt 1 view .LVU43
 152 008e 05A9     		add	r1, sp, #20
 153 0090 2846     		mov	r0, r5
 154 0092 FFF7FEFF 		bl	HAL_GPIO_Init
 155              	.LVL2:
 288:Core/Src/main.c **** 
 289:Core/Src/main.c **** }
 156              		.loc 1 289 1 is_stmt 0 view .LVU44
 157 0096 0BB0     		add	sp, sp, #44
 158              	.LCFI2:
 159              		.cfi_def_cfa_offset 12
 160              		@ sp needed
 161 0098 30BD     		pop	{r4, r5, pc}
 162              	.L4:
 163 009a 00BF     		.align	2
 164              	.L3:
 165 009c 00380240 		.word	1073887232
 166 00a0 00000240 		.word	1073872896
 167 00a4 00002110 		.word	270598144
 168 00a8 00080240 		.word	1073874944
ARM GAS  C:\Users\zacfi\AppData\Local\Temp\ccOBZAaL.s 			page 9


 169              		.cfi_endproc
 170              	.LFE135:
 172              		.section	.text.Error_Handler,"ax",%progbits
 173              		.align	1
 174              		.global	Error_Handler
 175              		.syntax unified
 176              		.thumb
 177              		.thumb_func
 178              		.fpu fpv4-sp-d16
 180              	Error_Handler:
 181              	.LFB136:
 290:Core/Src/main.c **** 
 291:Core/Src/main.c **** /* USER CODE BEGIN 4 */
 292:Core/Src/main.c **** 
 293:Core/Src/main.c **** /* USER CODE END 4 */
 294:Core/Src/main.c **** 
 295:Core/Src/main.c **** /**
 296:Core/Src/main.c ****   * @brief  This function is executed in case of error occurrence.
 297:Core/Src/main.c ****   * @retval None
 298:Core/Src/main.c ****   */
 299:Core/Src/main.c **** void Error_Handler(void)
 300:Core/Src/main.c **** {
 182              		.loc 1 300 1 is_stmt 1 view -0
 183              		.cfi_startproc
 184              		@ Volatile: function does not return.
 185              		@ args = 0, pretend = 0, frame = 0
 186              		@ frame_needed = 0, uses_anonymous_args = 0
 187              		@ link register save eliminated.
 301:Core/Src/main.c ****   /* USER CODE BEGIN Error_Handler_Debug */
 302:Core/Src/main.c ****   /* User can add his own implementation to report the HAL error return state */
 303:Core/Src/main.c ****   __disable_irq();
 188              		.loc 1 303 3 view .LVU46
 189              	.LBB8:
 190              	.LBI8:
 191              		.file 2 "Drivers/CMSIS/Include/cmsis_gcc.h"
   1:Drivers/CMSIS/Include/cmsis_gcc.h **** /**************************************************************************//**
   2:Drivers/CMSIS/Include/cmsis_gcc.h ****  * @file     cmsis_gcc.h
   3:Drivers/CMSIS/Include/cmsis_gcc.h ****  * @brief    CMSIS compiler GCC header file
   4:Drivers/CMSIS/Include/cmsis_gcc.h ****  * @version  V5.0.4
   5:Drivers/CMSIS/Include/cmsis_gcc.h ****  * @date     09. April 2018
   6:Drivers/CMSIS/Include/cmsis_gcc.h ****  ******************************************************************************/
   7:Drivers/CMSIS/Include/cmsis_gcc.h **** /*
   8:Drivers/CMSIS/Include/cmsis_gcc.h ****  * Copyright (c) 2009-2018 Arm Limited. All rights reserved.
   9:Drivers/CMSIS/Include/cmsis_gcc.h ****  *
  10:Drivers/CMSIS/Include/cmsis_gcc.h ****  * SPDX-License-Identifier: Apache-2.0
  11:Drivers/CMSIS/Include/cmsis_gcc.h ****  *
  12:Drivers/CMSIS/Include/cmsis_gcc.h ****  * Licensed under the Apache License, Version 2.0 (the License); you may
  13:Drivers/CMSIS/Include/cmsis_gcc.h ****  * not use this file except in compliance with the License.
  14:Drivers/CMSIS/Include/cmsis_gcc.h ****  * You may obtain a copy of the License at
  15:Drivers/CMSIS/Include/cmsis_gcc.h ****  *
  16:Drivers/CMSIS/Include/cmsis_gcc.h ****  * www.apache.org/licenses/LICENSE-2.0
  17:Drivers/CMSIS/Include/cmsis_gcc.h ****  *
  18:Drivers/CMSIS/Include/cmsis_gcc.h ****  * Unless required by applicable law or agreed to in writing, software
  19:Drivers/CMSIS/Include/cmsis_gcc.h ****  * distributed under the License is distributed on an AS IS BASIS, WITHOUT
  20:Drivers/CMSIS/Include/cmsis_gcc.h ****  * WARRANTIES OR CONDITIONS OF ANY KIND, either express or implied.
  21:Drivers/CMSIS/Include/cmsis_gcc.h ****  * See the License for the specific language governing permissions and
  22:Drivers/CMSIS/Include/cmsis_gcc.h ****  * limitations under the License.
ARM GAS  C:\Users\zacfi\AppData\Local\Temp\ccOBZAaL.s 			page 10


  23:Drivers/CMSIS/Include/cmsis_gcc.h ****  */
  24:Drivers/CMSIS/Include/cmsis_gcc.h **** 
  25:Drivers/CMSIS/Include/cmsis_gcc.h **** #ifndef __CMSIS_GCC_H
  26:Drivers/CMSIS/Include/cmsis_gcc.h **** #define __CMSIS_GCC_H
  27:Drivers/CMSIS/Include/cmsis_gcc.h **** 
  28:Drivers/CMSIS/Include/cmsis_gcc.h **** /* ignore some GCC warnings */
  29:Drivers/CMSIS/Include/cmsis_gcc.h **** #pragma GCC diagnostic push
  30:Drivers/CMSIS/Include/cmsis_gcc.h **** #pragma GCC diagnostic ignored "-Wsign-conversion"
  31:Drivers/CMSIS/Include/cmsis_gcc.h **** #pragma GCC diagnostic ignored "-Wconversion"
  32:Drivers/CMSIS/Include/cmsis_gcc.h **** #pragma GCC diagnostic ignored "-Wunused-parameter"
  33:Drivers/CMSIS/Include/cmsis_gcc.h **** 
  34:Drivers/CMSIS/Include/cmsis_gcc.h **** /* Fallback for __has_builtin */
  35:Drivers/CMSIS/Include/cmsis_gcc.h **** #ifndef __has_builtin
  36:Drivers/CMSIS/Include/cmsis_gcc.h ****   #define __has_builtin(x) (0)
  37:Drivers/CMSIS/Include/cmsis_gcc.h **** #endif
  38:Drivers/CMSIS/Include/cmsis_gcc.h **** 
  39:Drivers/CMSIS/Include/cmsis_gcc.h **** /* CMSIS compiler specific defines */
  40:Drivers/CMSIS/Include/cmsis_gcc.h **** #ifndef   __ASM
  41:Drivers/CMSIS/Include/cmsis_gcc.h ****   #define __ASM                                  __asm
  42:Drivers/CMSIS/Include/cmsis_gcc.h **** #endif
  43:Drivers/CMSIS/Include/cmsis_gcc.h **** #ifndef   __INLINE
  44:Drivers/CMSIS/Include/cmsis_gcc.h ****   #define __INLINE                               inline
  45:Drivers/CMSIS/Include/cmsis_gcc.h **** #endif
  46:Drivers/CMSIS/Include/cmsis_gcc.h **** #ifndef   __STATIC_INLINE
  47:Drivers/CMSIS/Include/cmsis_gcc.h ****   #define __STATIC_INLINE                        static inline
  48:Drivers/CMSIS/Include/cmsis_gcc.h **** #endif
  49:Drivers/CMSIS/Include/cmsis_gcc.h **** #ifndef   __STATIC_FORCEINLINE                 
  50:Drivers/CMSIS/Include/cmsis_gcc.h ****   #define __STATIC_FORCEINLINE                   __attribute__((always_inline)) static inline
  51:Drivers/CMSIS/Include/cmsis_gcc.h **** #endif                                           
  52:Drivers/CMSIS/Include/cmsis_gcc.h **** #ifndef   __NO_RETURN
  53:Drivers/CMSIS/Include/cmsis_gcc.h ****   #define __NO_RETURN                            __attribute__((__noreturn__))
  54:Drivers/CMSIS/Include/cmsis_gcc.h **** #endif
  55:Drivers/CMSIS/Include/cmsis_gcc.h **** #ifndef   __USED
  56:Drivers/CMSIS/Include/cmsis_gcc.h ****   #define __USED                                 __attribute__((used))
  57:Drivers/CMSIS/Include/cmsis_gcc.h **** #endif
  58:Drivers/CMSIS/Include/cmsis_gcc.h **** #ifndef   __WEAK
  59:Drivers/CMSIS/Include/cmsis_gcc.h ****   #define __WEAK                                 __attribute__((weak))
  60:Drivers/CMSIS/Include/cmsis_gcc.h **** #endif
  61:Drivers/CMSIS/Include/cmsis_gcc.h **** #ifndef   __PACKED
  62:Drivers/CMSIS/Include/cmsis_gcc.h ****   #define __PACKED                               __attribute__((packed, aligned(1)))
  63:Drivers/CMSIS/Include/cmsis_gcc.h **** #endif
  64:Drivers/CMSIS/Include/cmsis_gcc.h **** #ifndef   __PACKED_STRUCT
  65:Drivers/CMSIS/Include/cmsis_gcc.h ****   #define __PACKED_STRUCT                        struct __attribute__((packed, aligned(1)))
  66:Drivers/CMSIS/Include/cmsis_gcc.h **** #endif
  67:Drivers/CMSIS/Include/cmsis_gcc.h **** #ifndef   __PACKED_UNION
  68:Drivers/CMSIS/Include/cmsis_gcc.h ****   #define __PACKED_UNION                         union __attribute__((packed, aligned(1)))
  69:Drivers/CMSIS/Include/cmsis_gcc.h **** #endif
  70:Drivers/CMSIS/Include/cmsis_gcc.h **** #ifndef   __UNALIGNED_UINT32        /* deprecated */
  71:Drivers/CMSIS/Include/cmsis_gcc.h ****   #pragma GCC diagnostic push
  72:Drivers/CMSIS/Include/cmsis_gcc.h ****   #pragma GCC diagnostic ignored "-Wpacked"
  73:Drivers/CMSIS/Include/cmsis_gcc.h ****   #pragma GCC diagnostic ignored "-Wattributes"
  74:Drivers/CMSIS/Include/cmsis_gcc.h ****   struct __attribute__((packed)) T_UINT32 { uint32_t v; };
  75:Drivers/CMSIS/Include/cmsis_gcc.h ****   #pragma GCC diagnostic pop
  76:Drivers/CMSIS/Include/cmsis_gcc.h ****   #define __UNALIGNED_UINT32(x)                  (((struct T_UINT32 *)(x))->v)
  77:Drivers/CMSIS/Include/cmsis_gcc.h **** #endif
  78:Drivers/CMSIS/Include/cmsis_gcc.h **** #ifndef   __UNALIGNED_UINT16_WRITE
  79:Drivers/CMSIS/Include/cmsis_gcc.h ****   #pragma GCC diagnostic push
ARM GAS  C:\Users\zacfi\AppData\Local\Temp\ccOBZAaL.s 			page 11


  80:Drivers/CMSIS/Include/cmsis_gcc.h ****   #pragma GCC diagnostic ignored "-Wpacked"
  81:Drivers/CMSIS/Include/cmsis_gcc.h ****   #pragma GCC diagnostic ignored "-Wattributes"
  82:Drivers/CMSIS/Include/cmsis_gcc.h ****   __PACKED_STRUCT T_UINT16_WRITE { uint16_t v; };
  83:Drivers/CMSIS/Include/cmsis_gcc.h ****   #pragma GCC diagnostic pop
  84:Drivers/CMSIS/Include/cmsis_gcc.h ****   #define __UNALIGNED_UINT16_WRITE(addr, val)    (void)((((struct T_UINT16_WRITE *)(void *)(addr))-
  85:Drivers/CMSIS/Include/cmsis_gcc.h **** #endif
  86:Drivers/CMSIS/Include/cmsis_gcc.h **** #ifndef   __UNALIGNED_UINT16_READ
  87:Drivers/CMSIS/Include/cmsis_gcc.h ****   #pragma GCC diagnostic push
  88:Drivers/CMSIS/Include/cmsis_gcc.h ****   #pragma GCC diagnostic ignored "-Wpacked"
  89:Drivers/CMSIS/Include/cmsis_gcc.h ****   #pragma GCC diagnostic ignored "-Wattributes"
  90:Drivers/CMSIS/Include/cmsis_gcc.h ****   __PACKED_STRUCT T_UINT16_READ { uint16_t v; };
  91:Drivers/CMSIS/Include/cmsis_gcc.h ****   #pragma GCC diagnostic pop
  92:Drivers/CMSIS/Include/cmsis_gcc.h ****   #define __UNALIGNED_UINT16_READ(addr)          (((const struct T_UINT16_READ *)(const void *)(add
  93:Drivers/CMSIS/Include/cmsis_gcc.h **** #endif
  94:Drivers/CMSIS/Include/cmsis_gcc.h **** #ifndef   __UNALIGNED_UINT32_WRITE
  95:Drivers/CMSIS/Include/cmsis_gcc.h ****   #pragma GCC diagnostic push
  96:Drivers/CMSIS/Include/cmsis_gcc.h ****   #pragma GCC diagnostic ignored "-Wpacked"
  97:Drivers/CMSIS/Include/cmsis_gcc.h ****   #pragma GCC diagnostic ignored "-Wattributes"
  98:Drivers/CMSIS/Include/cmsis_gcc.h ****   __PACKED_STRUCT T_UINT32_WRITE { uint32_t v; };
  99:Drivers/CMSIS/Include/cmsis_gcc.h ****   #pragma GCC diagnostic pop
 100:Drivers/CMSIS/Include/cmsis_gcc.h ****   #define __UNALIGNED_UINT32_WRITE(addr, val)    (void)((((struct T_UINT32_WRITE *)(void *)(addr))-
 101:Drivers/CMSIS/Include/cmsis_gcc.h **** #endif
 102:Drivers/CMSIS/Include/cmsis_gcc.h **** #ifndef   __UNALIGNED_UINT32_READ
 103:Drivers/CMSIS/Include/cmsis_gcc.h ****   #pragma GCC diagnostic push
 104:Drivers/CMSIS/Include/cmsis_gcc.h ****   #pragma GCC diagnostic ignored "-Wpacked"
 105:Drivers/CMSIS/Include/cmsis_gcc.h ****   #pragma GCC diagnostic ignored "-Wattributes"
 106:Drivers/CMSIS/Include/cmsis_gcc.h ****   __PACKED_STRUCT T_UINT32_READ { uint32_t v; };
 107:Drivers/CMSIS/Include/cmsis_gcc.h ****   #pragma GCC diagnostic pop
 108:Drivers/CMSIS/Include/cmsis_gcc.h ****   #define __UNALIGNED_UINT32_READ(addr)          (((const struct T_UINT32_READ *)(const void *)(add
 109:Drivers/CMSIS/Include/cmsis_gcc.h **** #endif
 110:Drivers/CMSIS/Include/cmsis_gcc.h **** #ifndef   __ALIGNED
 111:Drivers/CMSIS/Include/cmsis_gcc.h ****   #define __ALIGNED(x)                           __attribute__((aligned(x)))
 112:Drivers/CMSIS/Include/cmsis_gcc.h **** #endif
 113:Drivers/CMSIS/Include/cmsis_gcc.h **** #ifndef   __RESTRICT
 114:Drivers/CMSIS/Include/cmsis_gcc.h ****   #define __RESTRICT                             __restrict
 115:Drivers/CMSIS/Include/cmsis_gcc.h **** #endif
 116:Drivers/CMSIS/Include/cmsis_gcc.h **** 
 117:Drivers/CMSIS/Include/cmsis_gcc.h **** 
 118:Drivers/CMSIS/Include/cmsis_gcc.h **** /* ###########################  Core Function Access  ########################### */
 119:Drivers/CMSIS/Include/cmsis_gcc.h **** /** \ingroup  CMSIS_Core_FunctionInterface
 120:Drivers/CMSIS/Include/cmsis_gcc.h ****     \defgroup CMSIS_Core_RegAccFunctions CMSIS Core Register Access Functions
 121:Drivers/CMSIS/Include/cmsis_gcc.h ****   @{
 122:Drivers/CMSIS/Include/cmsis_gcc.h ****  */
 123:Drivers/CMSIS/Include/cmsis_gcc.h **** 
 124:Drivers/CMSIS/Include/cmsis_gcc.h **** /**
 125:Drivers/CMSIS/Include/cmsis_gcc.h ****   \brief   Enable IRQ Interrupts
 126:Drivers/CMSIS/Include/cmsis_gcc.h ****   \details Enables IRQ interrupts by clearing the I-bit in the CPSR.
 127:Drivers/CMSIS/Include/cmsis_gcc.h ****            Can only be executed in Privileged modes.
 128:Drivers/CMSIS/Include/cmsis_gcc.h ****  */
 129:Drivers/CMSIS/Include/cmsis_gcc.h **** __STATIC_FORCEINLINE void __enable_irq(void)
 130:Drivers/CMSIS/Include/cmsis_gcc.h **** {
 131:Drivers/CMSIS/Include/cmsis_gcc.h ****   __ASM volatile ("cpsie i" : : : "memory");
 132:Drivers/CMSIS/Include/cmsis_gcc.h **** }
 133:Drivers/CMSIS/Include/cmsis_gcc.h **** 
 134:Drivers/CMSIS/Include/cmsis_gcc.h **** 
 135:Drivers/CMSIS/Include/cmsis_gcc.h **** /**
 136:Drivers/CMSIS/Include/cmsis_gcc.h ****   \brief   Disable IRQ Interrupts
ARM GAS  C:\Users\zacfi\AppData\Local\Temp\ccOBZAaL.s 			page 12


 137:Drivers/CMSIS/Include/cmsis_gcc.h ****   \details Disables IRQ interrupts by setting the I-bit in the CPSR.
 138:Drivers/CMSIS/Include/cmsis_gcc.h ****            Can only be executed in Privileged modes.
 139:Drivers/CMSIS/Include/cmsis_gcc.h ****  */
 140:Drivers/CMSIS/Include/cmsis_gcc.h **** __STATIC_FORCEINLINE void __disable_irq(void)
 192              		.loc 2 140 27 view .LVU47
 193              	.LBB9:
 141:Drivers/CMSIS/Include/cmsis_gcc.h **** {
 142:Drivers/CMSIS/Include/cmsis_gcc.h ****   __ASM volatile ("cpsid i" : : : "memory");
 194              		.loc 2 142 3 view .LVU48
 195              		.syntax unified
 196              	@ 142 "Drivers/CMSIS/Include/cmsis_gcc.h" 1
 197 0000 72B6     		cpsid i
 198              	@ 0 "" 2
 199              		.thumb
 200              		.syntax unified
 201              	.L6:
 202              	.LBE9:
 203              	.LBE8:
 304:Core/Src/main.c ****   while (1)
 204              		.loc 1 304 3 discriminator 1 view .LVU49
 305:Core/Src/main.c ****   {
 306:Core/Src/main.c ****   }
 205              		.loc 1 306 3 discriminator 1 view .LVU50
 304:Core/Src/main.c ****   while (1)
 206              		.loc 1 304 9 discriminator 1 view .LVU51
 207 0002 FEE7     		b	.L6
 208              		.cfi_endproc
 209              	.LFE136:
 211              		.section	.text.MX_CRC_Init,"ax",%progbits
 212              		.align	1
 213              		.syntax unified
 214              		.thumb
 215              		.thumb_func
 216              		.fpu fpv4-sp-d16
 218              	MX_CRC_Init:
 219              	.LFB132:
 171:Core/Src/main.c **** 
 220              		.loc 1 171 1 view -0
 221              		.cfi_startproc
 222              		@ args = 0, pretend = 0, frame = 0
 223              		@ frame_needed = 0, uses_anonymous_args = 0
 224 0000 08B5     		push	{r3, lr}
 225              	.LCFI3:
 226              		.cfi_def_cfa_offset 8
 227              		.cfi_offset 3, -8
 228              		.cfi_offset 14, -4
 180:Core/Src/main.c ****   if (HAL_CRC_Init(&hcrc) != HAL_OK)
 229              		.loc 1 180 3 view .LVU53
 180:Core/Src/main.c ****   if (HAL_CRC_Init(&hcrc) != HAL_OK)
 230              		.loc 1 180 17 is_stmt 0 view .LVU54
 231 0002 0448     		ldr	r0, .L11
 232 0004 044B     		ldr	r3, .L11+4
 233 0006 0360     		str	r3, [r0]
 181:Core/Src/main.c ****   {
 234              		.loc 1 181 3 is_stmt 1 view .LVU55
 181:Core/Src/main.c ****   {
 235              		.loc 1 181 7 is_stmt 0 view .LVU56
ARM GAS  C:\Users\zacfi\AppData\Local\Temp\ccOBZAaL.s 			page 13


 236 0008 FFF7FEFF 		bl	HAL_CRC_Init
 237              	.LVL3:
 181:Core/Src/main.c ****   {
 238              		.loc 1 181 6 view .LVU57
 239 000c 00B9     		cbnz	r0, .L10
 189:Core/Src/main.c **** 
 240              		.loc 1 189 1 view .LVU58
 241 000e 08BD     		pop	{r3, pc}
 242              	.L10:
 183:Core/Src/main.c ****   }
 243              		.loc 1 183 5 is_stmt 1 view .LVU59
 244 0010 FFF7FEFF 		bl	Error_Handler
 245              	.LVL4:
 246              	.L12:
 247              		.align	2
 248              	.L11:
 249 0014 00000000 		.word	.LANCHOR0
 250 0018 00300240 		.word	1073885184
 251              		.cfi_endproc
 252              	.LFE132:
 254              		.section	.text.MX_I2C1_Init,"ax",%progbits
 255              		.align	1
 256              		.syntax unified
 257              		.thumb
 258              		.thumb_func
 259              		.fpu fpv4-sp-d16
 261              	MX_I2C1_Init:
 262              	.LFB133:
 197:Core/Src/main.c **** 
 263              		.loc 1 197 1 view -0
 264              		.cfi_startproc
 265              		@ args = 0, pretend = 0, frame = 0
 266              		@ frame_needed = 0, uses_anonymous_args = 0
 267 0000 08B5     		push	{r3, lr}
 268              	.LCFI4:
 269              		.cfi_def_cfa_offset 8
 270              		.cfi_offset 3, -8
 271              		.cfi_offset 14, -4
 206:Core/Src/main.c ****   hi2c1.Init.ClockSpeed = 400000;
 272              		.loc 1 206 3 view .LVU61
 206:Core/Src/main.c ****   hi2c1.Init.ClockSpeed = 400000;
 273              		.loc 1 206 18 is_stmt 0 view .LVU62
 274 0002 0A48     		ldr	r0, .L17
 275 0004 0A4B     		ldr	r3, .L17+4
 276 0006 0360     		str	r3, [r0]
 207:Core/Src/main.c ****   hi2c1.Init.DutyCycle = I2C_DUTYCYCLE_2;
 277              		.loc 1 207 3 is_stmt 1 view .LVU63
 207:Core/Src/main.c ****   hi2c1.Init.DutyCycle = I2C_DUTYCYCLE_2;
 278              		.loc 1 207 25 is_stmt 0 view .LVU64
 279 0008 0A4B     		ldr	r3, .L17+8
 280 000a 4360     		str	r3, [r0, #4]
 208:Core/Src/main.c ****   hi2c1.Init.OwnAddress1 = 0;
 281              		.loc 1 208 3 is_stmt 1 view .LVU65
 208:Core/Src/main.c ****   hi2c1.Init.OwnAddress1 = 0;
 282              		.loc 1 208 24 is_stmt 0 view .LVU66
 283 000c 0023     		movs	r3, #0
 284 000e 8360     		str	r3, [r0, #8]
ARM GAS  C:\Users\zacfi\AppData\Local\Temp\ccOBZAaL.s 			page 14


 209:Core/Src/main.c ****   hi2c1.Init.AddressingMode = I2C_ADDRESSINGMODE_7BIT;
 285              		.loc 1 209 3 is_stmt 1 view .LVU67
 209:Core/Src/main.c ****   hi2c1.Init.AddressingMode = I2C_ADDRESSINGMODE_7BIT;
 286              		.loc 1 209 26 is_stmt 0 view .LVU68
 287 0010 C360     		str	r3, [r0, #12]
 210:Core/Src/main.c ****   hi2c1.Init.DualAddressMode = I2C_DUALADDRESS_DISABLE;
 288              		.loc 1 210 3 is_stmt 1 view .LVU69
 210:Core/Src/main.c ****   hi2c1.Init.DualAddressMode = I2C_DUALADDRESS_DISABLE;
 289              		.loc 1 210 29 is_stmt 0 view .LVU70
 290 0012 4FF48042 		mov	r2, #16384
 291 0016 0261     		str	r2, [r0, #16]
 211:Core/Src/main.c ****   hi2c1.Init.OwnAddress2 = 0;
 292              		.loc 1 211 3 is_stmt 1 view .LVU71
 211:Core/Src/main.c ****   hi2c1.Init.OwnAddress2 = 0;
 293              		.loc 1 211 30 is_stmt 0 view .LVU72
 294 0018 4361     		str	r3, [r0, #20]
 212:Core/Src/main.c ****   hi2c1.Init.GeneralCallMode = I2C_GENERALCALL_DISABLE;
 295              		.loc 1 212 3 is_stmt 1 view .LVU73
 212:Core/Src/main.c ****   hi2c1.Init.GeneralCallMode = I2C_GENERALCALL_DISABLE;
 296              		.loc 1 212 26 is_stmt 0 view .LVU74
 297 001a 8361     		str	r3, [r0, #24]
 213:Core/Src/main.c ****   hi2c1.Init.NoStretchMode = I2C_NOSTRETCH_DISABLE;
 298              		.loc 1 213 3 is_stmt 1 view .LVU75
 213:Core/Src/main.c ****   hi2c1.Init.NoStretchMode = I2C_NOSTRETCH_DISABLE;
 299              		.loc 1 213 30 is_stmt 0 view .LVU76
 300 001c C361     		str	r3, [r0, #28]
 214:Core/Src/main.c ****   if (HAL_I2C_Init(&hi2c1) != HAL_OK)
 301              		.loc 1 214 3 is_stmt 1 view .LVU77
 214:Core/Src/main.c ****   if (HAL_I2C_Init(&hi2c1) != HAL_OK)
 302              		.loc 1 214 28 is_stmt 0 view .LVU78
 303 001e 0362     		str	r3, [r0, #32]
 215:Core/Src/main.c ****   {
 304              		.loc 1 215 3 is_stmt 1 view .LVU79
 215:Core/Src/main.c ****   {
 305              		.loc 1 215 7 is_stmt 0 view .LVU80
 306 0020 FFF7FEFF 		bl	HAL_I2C_Init
 307              	.LVL5:
 215:Core/Src/main.c ****   {
 308              		.loc 1 215 6 view .LVU81
 309 0024 00B9     		cbnz	r0, .L16
 223:Core/Src/main.c **** 
 310              		.loc 1 223 1 view .LVU82
 311 0026 08BD     		pop	{r3, pc}
 312              	.L16:
 217:Core/Src/main.c ****   }
 313              		.loc 1 217 5 is_stmt 1 view .LVU83
 314 0028 FFF7FEFF 		bl	Error_Handler
 315              	.LVL6:
 316              	.L18:
 317              		.align	2
 318              	.L17:
 319 002c 00000000 		.word	.LANCHOR1
 320 0030 00540040 		.word	1073763328
 321 0034 801A0600 		.word	400000
 322              		.cfi_endproc
 323              	.LFE133:
 325              		.section	.text.SystemClock_Config,"ax",%progbits
ARM GAS  C:\Users\zacfi\AppData\Local\Temp\ccOBZAaL.s 			page 15


 326              		.align	1
 327              		.global	SystemClock_Config
 328              		.syntax unified
 329              		.thumb
 330              		.thumb_func
 331              		.fpu fpv4-sp-d16
 333              	SystemClock_Config:
 334              	.LFB131:
 120:Core/Src/main.c ****   RCC_OscInitTypeDef RCC_OscInitStruct = {0};
 335              		.loc 1 120 1 view -0
 336              		.cfi_startproc
 337              		@ args = 0, pretend = 0, frame = 80
 338              		@ frame_needed = 0, uses_anonymous_args = 0
 339 0000 00B5     		push	{lr}
 340              	.LCFI5:
 341              		.cfi_def_cfa_offset 4
 342              		.cfi_offset 14, -4
 343 0002 95B0     		sub	sp, sp, #84
 344              	.LCFI6:
 345              		.cfi_def_cfa_offset 88
 121:Core/Src/main.c ****   RCC_ClkInitTypeDef RCC_ClkInitStruct = {0};
 346              		.loc 1 121 3 view .LVU85
 121:Core/Src/main.c ****   RCC_ClkInitTypeDef RCC_ClkInitStruct = {0};
 347              		.loc 1 121 22 is_stmt 0 view .LVU86
 348 0004 3422     		movs	r2, #52
 349 0006 0021     		movs	r1, #0
 350 0008 07A8     		add	r0, sp, #28
 351 000a FFF7FEFF 		bl	memset
 352              	.LVL7:
 122:Core/Src/main.c **** 
 353              		.loc 1 122 3 is_stmt 1 view .LVU87
 122:Core/Src/main.c **** 
 354              		.loc 1 122 22 is_stmt 0 view .LVU88
 355 000e 0023     		movs	r3, #0
 356 0010 0293     		str	r3, [sp, #8]
 357 0012 0393     		str	r3, [sp, #12]
 358 0014 0493     		str	r3, [sp, #16]
 359 0016 0593     		str	r3, [sp, #20]
 360 0018 0693     		str	r3, [sp, #24]
 126:Core/Src/main.c ****   __HAL_PWR_VOLTAGESCALING_CONFIG(PWR_REGULATOR_VOLTAGE_SCALE1);
 361              		.loc 1 126 3 is_stmt 1 view .LVU89
 362              	.LBB10:
 126:Core/Src/main.c ****   __HAL_PWR_VOLTAGESCALING_CONFIG(PWR_REGULATOR_VOLTAGE_SCALE1);
 363              		.loc 1 126 3 view .LVU90
 364 001a 0093     		str	r3, [sp]
 126:Core/Src/main.c ****   __HAL_PWR_VOLTAGESCALING_CONFIG(PWR_REGULATOR_VOLTAGE_SCALE1);
 365              		.loc 1 126 3 view .LVU91
 366 001c 234A     		ldr	r2, .L27
 367 001e 116C     		ldr	r1, [r2, #64]
 368 0020 41F08051 		orr	r1, r1, #268435456
 369 0024 1164     		str	r1, [r2, #64]
 126:Core/Src/main.c ****   __HAL_PWR_VOLTAGESCALING_CONFIG(PWR_REGULATOR_VOLTAGE_SCALE1);
 370              		.loc 1 126 3 view .LVU92
 371 0026 126C     		ldr	r2, [r2, #64]
 372 0028 02F08052 		and	r2, r2, #268435456
 373 002c 0092     		str	r2, [sp]
 126:Core/Src/main.c ****   __HAL_PWR_VOLTAGESCALING_CONFIG(PWR_REGULATOR_VOLTAGE_SCALE1);
ARM GAS  C:\Users\zacfi\AppData\Local\Temp\ccOBZAaL.s 			page 16


 374              		.loc 1 126 3 view .LVU93
 375 002e 009A     		ldr	r2, [sp]
 376              	.LBE10:
 126:Core/Src/main.c ****   __HAL_PWR_VOLTAGESCALING_CONFIG(PWR_REGULATOR_VOLTAGE_SCALE1);
 377              		.loc 1 126 3 view .LVU94
 127:Core/Src/main.c ****   /** Initializes the RCC Oscillators according to the specified parameters
 378              		.loc 1 127 3 view .LVU95
 379              	.LBB11:
 127:Core/Src/main.c ****   /** Initializes the RCC Oscillators according to the specified parameters
 380              		.loc 1 127 3 view .LVU96
 381 0030 0193     		str	r3, [sp, #4]
 127:Core/Src/main.c ****   /** Initializes the RCC Oscillators according to the specified parameters
 382              		.loc 1 127 3 view .LVU97
 383 0032 1F4B     		ldr	r3, .L27+4
 384 0034 1A68     		ldr	r2, [r3]
 385 0036 42F44042 		orr	r2, r2, #49152
 386 003a 1A60     		str	r2, [r3]
 127:Core/Src/main.c ****   /** Initializes the RCC Oscillators according to the specified parameters
 387              		.loc 1 127 3 view .LVU98
 388 003c 1B68     		ldr	r3, [r3]
 389 003e 03F44043 		and	r3, r3, #49152
 390 0042 0193     		str	r3, [sp, #4]
 127:Core/Src/main.c ****   /** Initializes the RCC Oscillators according to the specified parameters
 391              		.loc 1 127 3 view .LVU99
 392 0044 019B     		ldr	r3, [sp, #4]
 393              	.LBE11:
 127:Core/Src/main.c ****   /** Initializes the RCC Oscillators according to the specified parameters
 394              		.loc 1 127 3 view .LVU100
 131:Core/Src/main.c ****   RCC_OscInitStruct.HSEState = RCC_HSE_ON;
 395              		.loc 1 131 3 view .LVU101
 131:Core/Src/main.c ****   RCC_OscInitStruct.HSEState = RCC_HSE_ON;
 396              		.loc 1 131 36 is_stmt 0 view .LVU102
 397 0046 0123     		movs	r3, #1
 398 0048 0793     		str	r3, [sp, #28]
 132:Core/Src/main.c ****   RCC_OscInitStruct.PLL.PLLState = RCC_PLL_ON;
 399              		.loc 1 132 3 is_stmt 1 view .LVU103
 132:Core/Src/main.c ****   RCC_OscInitStruct.PLL.PLLState = RCC_PLL_ON;
 400              		.loc 1 132 30 is_stmt 0 view .LVU104
 401 004a 4FF48033 		mov	r3, #65536
 402 004e 0893     		str	r3, [sp, #32]
 133:Core/Src/main.c ****   RCC_OscInitStruct.PLL.PLLSource = RCC_PLLSOURCE_HSE;
 403              		.loc 1 133 3 is_stmt 1 view .LVU105
 133:Core/Src/main.c ****   RCC_OscInitStruct.PLL.PLLSource = RCC_PLLSOURCE_HSE;
 404              		.loc 1 133 34 is_stmt 0 view .LVU106
 405 0050 0223     		movs	r3, #2
 406 0052 0D93     		str	r3, [sp, #52]
 134:Core/Src/main.c ****   RCC_OscInitStruct.PLL.PLLM = 4;
 407              		.loc 1 134 3 is_stmt 1 view .LVU107
 134:Core/Src/main.c ****   RCC_OscInitStruct.PLL.PLLM = 4;
 408              		.loc 1 134 35 is_stmt 0 view .LVU108
 409 0054 4FF48002 		mov	r2, #4194304
 410 0058 0E92     		str	r2, [sp, #56]
 135:Core/Src/main.c ****   RCC_OscInitStruct.PLL.PLLN = 180;
 411              		.loc 1 135 3 is_stmt 1 view .LVU109
 135:Core/Src/main.c ****   RCC_OscInitStruct.PLL.PLLN = 180;
 412              		.loc 1 135 30 is_stmt 0 view .LVU110
 413 005a 0422     		movs	r2, #4
ARM GAS  C:\Users\zacfi\AppData\Local\Temp\ccOBZAaL.s 			page 17


 414 005c 0F92     		str	r2, [sp, #60]
 136:Core/Src/main.c ****   RCC_OscInitStruct.PLL.PLLP = RCC_PLLP_DIV2;
 415              		.loc 1 136 3 is_stmt 1 view .LVU111
 136:Core/Src/main.c ****   RCC_OscInitStruct.PLL.PLLP = RCC_PLLP_DIV2;
 416              		.loc 1 136 30 is_stmt 0 view .LVU112
 417 005e B422     		movs	r2, #180
 418 0060 1092     		str	r2, [sp, #64]
 137:Core/Src/main.c ****   RCC_OscInitStruct.PLL.PLLQ = 2;
 419              		.loc 1 137 3 is_stmt 1 view .LVU113
 137:Core/Src/main.c ****   RCC_OscInitStruct.PLL.PLLQ = 2;
 420              		.loc 1 137 30 is_stmt 0 view .LVU114
 421 0062 1193     		str	r3, [sp, #68]
 138:Core/Src/main.c ****   RCC_OscInitStruct.PLL.PLLR = 2;
 422              		.loc 1 138 3 is_stmt 1 view .LVU115
 138:Core/Src/main.c ****   RCC_OscInitStruct.PLL.PLLR = 2;
 423              		.loc 1 138 30 is_stmt 0 view .LVU116
 424 0064 1293     		str	r3, [sp, #72]
 139:Core/Src/main.c ****   if (HAL_RCC_OscConfig(&RCC_OscInitStruct) != HAL_OK)
 425              		.loc 1 139 3 is_stmt 1 view .LVU117
 139:Core/Src/main.c ****   if (HAL_RCC_OscConfig(&RCC_OscInitStruct) != HAL_OK)
 426              		.loc 1 139 30 is_stmt 0 view .LVU118
 427 0066 1393     		str	r3, [sp, #76]
 140:Core/Src/main.c ****   {
 428              		.loc 1 140 3 is_stmt 1 view .LVU119
 140:Core/Src/main.c ****   {
 429              		.loc 1 140 7 is_stmt 0 view .LVU120
 430 0068 07A8     		add	r0, sp, #28
 431 006a FFF7FEFF 		bl	HAL_RCC_OscConfig
 432              	.LVL8:
 140:Core/Src/main.c ****   {
 433              		.loc 1 140 6 view .LVU121
 434 006e B0B9     		cbnz	r0, .L24
 146:Core/Src/main.c ****   {
 435              		.loc 1 146 3 is_stmt 1 view .LVU122
 146:Core/Src/main.c ****   {
 436              		.loc 1 146 7 is_stmt 0 view .LVU123
 437 0070 FFF7FEFF 		bl	HAL_PWREx_EnableOverDrive
 438              	.LVL9:
 146:Core/Src/main.c ****   {
 439              		.loc 1 146 6 view .LVU124
 440 0074 A8B9     		cbnz	r0, .L25
 152:Core/Src/main.c ****                               |RCC_CLOCKTYPE_PCLK1|RCC_CLOCKTYPE_PCLK2;
 441              		.loc 1 152 3 is_stmt 1 view .LVU125
 152:Core/Src/main.c ****                               |RCC_CLOCKTYPE_PCLK1|RCC_CLOCKTYPE_PCLK2;
 442              		.loc 1 152 31 is_stmt 0 view .LVU126
 443 0076 0F23     		movs	r3, #15
 444 0078 0293     		str	r3, [sp, #8]
 154:Core/Src/main.c ****   RCC_ClkInitStruct.AHBCLKDivider = RCC_SYSCLK_DIV1;
 445              		.loc 1 154 3 is_stmt 1 view .LVU127
 154:Core/Src/main.c ****   RCC_ClkInitStruct.AHBCLKDivider = RCC_SYSCLK_DIV1;
 446              		.loc 1 154 34 is_stmt 0 view .LVU128
 447 007a 0223     		movs	r3, #2
 448 007c 0393     		str	r3, [sp, #12]
 155:Core/Src/main.c ****   RCC_ClkInitStruct.APB1CLKDivider = RCC_HCLK_DIV4;
 449              		.loc 1 155 3 is_stmt 1 view .LVU129
 155:Core/Src/main.c ****   RCC_ClkInitStruct.APB1CLKDivider = RCC_HCLK_DIV4;
 450              		.loc 1 155 35 is_stmt 0 view .LVU130
ARM GAS  C:\Users\zacfi\AppData\Local\Temp\ccOBZAaL.s 			page 18


 451 007e 0023     		movs	r3, #0
 452 0080 0493     		str	r3, [sp, #16]
 156:Core/Src/main.c ****   RCC_ClkInitStruct.APB2CLKDivider = RCC_HCLK_DIV2;
 453              		.loc 1 156 3 is_stmt 1 view .LVU131
 156:Core/Src/main.c ****   RCC_ClkInitStruct.APB2CLKDivider = RCC_HCLK_DIV2;
 454              		.loc 1 156 36 is_stmt 0 view .LVU132
 455 0082 4FF4A053 		mov	r3, #5120
 456 0086 0593     		str	r3, [sp, #20]
 157:Core/Src/main.c **** 
 457              		.loc 1 157 3 is_stmt 1 view .LVU133
 157:Core/Src/main.c **** 
 458              		.loc 1 157 36 is_stmt 0 view .LVU134
 459 0088 4FF48053 		mov	r3, #4096
 460 008c 0693     		str	r3, [sp, #24]
 159:Core/Src/main.c ****   {
 461              		.loc 1 159 3 is_stmt 1 view .LVU135
 159:Core/Src/main.c ****   {
 462              		.loc 1 159 7 is_stmt 0 view .LVU136
 463 008e 0521     		movs	r1, #5
 464 0090 02A8     		add	r0, sp, #8
 465 0092 FFF7FEFF 		bl	HAL_RCC_ClockConfig
 466              	.LVL10:
 159:Core/Src/main.c ****   {
 467              		.loc 1 159 6 view .LVU137
 468 0096 30B9     		cbnz	r0, .L26
 163:Core/Src/main.c **** 
 469              		.loc 1 163 1 view .LVU138
 470 0098 15B0     		add	sp, sp, #84
 471              	.LCFI7:
 472              		.cfi_remember_state
 473              		.cfi_def_cfa_offset 4
 474              		@ sp needed
 475 009a 5DF804FB 		ldr	pc, [sp], #4
 476              	.L24:
 477              	.LCFI8:
 478              		.cfi_restore_state
 142:Core/Src/main.c ****   }
 479              		.loc 1 142 5 is_stmt 1 view .LVU139
 480 009e FFF7FEFF 		bl	Error_Handler
 481              	.LVL11:
 482              	.L25:
 148:Core/Src/main.c ****   }
 483              		.loc 1 148 5 view .LVU140
 484 00a2 FFF7FEFF 		bl	Error_Handler
 485              	.LVL12:
 486              	.L26:
 161:Core/Src/main.c ****   }
 487              		.loc 1 161 5 view .LVU141
 488 00a6 FFF7FEFF 		bl	Error_Handler
 489              	.LVL13:
 490              	.L28:
 491 00aa 00BF     		.align	2
 492              	.L27:
 493 00ac 00380240 		.word	1073887232
 494 00b0 00700040 		.word	1073770496
 495              		.cfi_endproc
 496              	.LFE131:
ARM GAS  C:\Users\zacfi\AppData\Local\Temp\ccOBZAaL.s 			page 19


 498              		.section	.text.main,"ax",%progbits
 499              		.align	1
 500              		.global	main
 501              		.syntax unified
 502              		.thumb
 503              		.thumb_func
 504              		.fpu fpv4-sp-d16
 506              	main:
 507              	.LFB130:
  73:Core/Src/main.c ****   /* USER CODE BEGIN 1 */
 508              		.loc 1 73 1 view -0
 509              		.cfi_startproc
 510              		@ Volatile: function does not return.
 511              		@ args = 0, pretend = 0, frame = 0
 512              		@ frame_needed = 0, uses_anonymous_args = 0
 513 0000 08B5     		push	{r3, lr}
 514              	.LCFI9:
 515              		.cfi_def_cfa_offset 8
 516              		.cfi_offset 3, -8
 517              		.cfi_offset 14, -4
  81:Core/Src/main.c **** 
 518              		.loc 1 81 3 view .LVU143
 519 0002 FFF7FEFF 		bl	HAL_Init
 520              	.LVL14:
  88:Core/Src/main.c **** 
 521              		.loc 1 88 3 view .LVU144
 522 0006 FFF7FEFF 		bl	SystemClock_Config
 523              	.LVL15:
  95:Core/Src/main.c ****   MX_CRC_Init();
 524              		.loc 1 95 3 view .LVU145
 525 000a FFF7FEFF 		bl	MX_GPIO_Init
 526              	.LVL16:
  96:Core/Src/main.c ****   MX_I2C1_Init();
 527              		.loc 1 96 3 view .LVU146
 528 000e FFF7FEFF 		bl	MX_CRC_Init
 529              	.LVL17:
  97:Core/Src/main.c ****   MX_X_CUBE_AI_Init();
 530              		.loc 1 97 3 view .LVU147
 531 0012 FFF7FEFF 		bl	MX_I2C1_Init
 532              	.LVL18:
  98:Core/Src/main.c ****   /* USER CODE BEGIN 2 */
 533              		.loc 1 98 3 view .LVU148
 534 0016 FFF7FEFF 		bl	MX_X_CUBE_AI_Init
 535              	.LVL19:
 536              	.L30:
 105:Core/Src/main.c ****   {
 537              		.loc 1 105 3 discriminator 1 view .LVU149
 109:Core/Src/main.c ****     /* USER CODE BEGIN 3 */
 538              		.loc 1 109 3 discriminator 1 view .LVU150
 539 001a FFF7FEFF 		bl	MX_X_CUBE_AI_Process
 540              	.LVL20:
 105:Core/Src/main.c ****   {
 541              		.loc 1 105 9 discriminator 1 view .LVU151
 542 001e FCE7     		b	.L30
 543              		.cfi_endproc
 544              	.LFE130:
 546              		.section	.text.MX_USART2_UART_Init,"ax",%progbits
ARM GAS  C:\Users\zacfi\AppData\Local\Temp\ccOBZAaL.s 			page 20


 547              		.align	1
 548              		.global	MX_USART2_UART_Init
 549              		.syntax unified
 550              		.thumb
 551              		.thumb_func
 552              		.fpu fpv4-sp-d16
 554              	MX_USART2_UART_Init:
 555              	.LFB134:
 231:Core/Src/main.c **** 
 556              		.loc 1 231 1 view -0
 557              		.cfi_startproc
 558              		@ args = 0, pretend = 0, frame = 0
 559              		@ frame_needed = 0, uses_anonymous_args = 0
 560 0000 08B5     		push	{r3, lr}
 561              	.LCFI10:
 562              		.cfi_def_cfa_offset 8
 563              		.cfi_offset 3, -8
 564              		.cfi_offset 14, -4
 240:Core/Src/main.c ****   huart2.Init.BaudRate = 115200;
 565              		.loc 1 240 3 view .LVU153
 240:Core/Src/main.c ****   huart2.Init.BaudRate = 115200;
 566              		.loc 1 240 19 is_stmt 0 view .LVU154
 567 0002 0A48     		ldr	r0, .L36
 568 0004 0A4B     		ldr	r3, .L36+4
 569 0006 0360     		str	r3, [r0]
 241:Core/Src/main.c ****   huart2.Init.WordLength = UART_WORDLENGTH_8B;
 570              		.loc 1 241 3 is_stmt 1 view .LVU155
 241:Core/Src/main.c ****   huart2.Init.WordLength = UART_WORDLENGTH_8B;
 571              		.loc 1 241 24 is_stmt 0 view .LVU156
 572 0008 4FF4E133 		mov	r3, #115200
 573 000c 4360     		str	r3, [r0, #4]
 242:Core/Src/main.c ****   huart2.Init.StopBits = UART_STOPBITS_1;
 574              		.loc 1 242 3 is_stmt 1 view .LVU157
 242:Core/Src/main.c ****   huart2.Init.StopBits = UART_STOPBITS_1;
 575              		.loc 1 242 26 is_stmt 0 view .LVU158
 576 000e 0023     		movs	r3, #0
 577 0010 8360     		str	r3, [r0, #8]
 243:Core/Src/main.c ****   huart2.Init.Parity = UART_PARITY_NONE;
 578              		.loc 1 243 3 is_stmt 1 view .LVU159
 243:Core/Src/main.c ****   huart2.Init.Parity = UART_PARITY_NONE;
 579              		.loc 1 243 24 is_stmt 0 view .LVU160
 580 0012 C360     		str	r3, [r0, #12]
 244:Core/Src/main.c ****   huart2.Init.Mode = UART_MODE_TX_RX;
 581              		.loc 1 244 3 is_stmt 1 view .LVU161
 244:Core/Src/main.c ****   huart2.Init.Mode = UART_MODE_TX_RX;
 582              		.loc 1 244 22 is_stmt 0 view .LVU162
 583 0014 0361     		str	r3, [r0, #16]
 245:Core/Src/main.c ****   huart2.Init.HwFlowCtl = UART_HWCONTROL_NONE;
 584              		.loc 1 245 3 is_stmt 1 view .LVU163
 245:Core/Src/main.c ****   huart2.Init.HwFlowCtl = UART_HWCONTROL_NONE;
 585              		.loc 1 245 20 is_stmt 0 view .LVU164
 586 0016 0C22     		movs	r2, #12
 587 0018 4261     		str	r2, [r0, #20]
 246:Core/Src/main.c ****   huart2.Init.OverSampling = UART_OVERSAMPLING_16;
 588              		.loc 1 246 3 is_stmt 1 view .LVU165
 246:Core/Src/main.c ****   huart2.Init.OverSampling = UART_OVERSAMPLING_16;
 589              		.loc 1 246 25 is_stmt 0 view .LVU166
ARM GAS  C:\Users\zacfi\AppData\Local\Temp\ccOBZAaL.s 			page 21


 590 001a 8361     		str	r3, [r0, #24]
 247:Core/Src/main.c ****   if (HAL_UART_Init(&huart2) != HAL_OK)
 591              		.loc 1 247 3 is_stmt 1 view .LVU167
 247:Core/Src/main.c ****   if (HAL_UART_Init(&huart2) != HAL_OK)
 592              		.loc 1 247 28 is_stmt 0 view .LVU168
 593 001c C361     		str	r3, [r0, #28]
 248:Core/Src/main.c ****   {
 594              		.loc 1 248 3 is_stmt 1 view .LVU169
 248:Core/Src/main.c ****   {
 595              		.loc 1 248 7 is_stmt 0 view .LVU170
 596 001e FFF7FEFF 		bl	HAL_UART_Init
 597              	.LVL21:
 248:Core/Src/main.c ****   {
 598              		.loc 1 248 6 view .LVU171
 599 0022 00B9     		cbnz	r0, .L35
 256:Core/Src/main.c **** 
 600              		.loc 1 256 1 view .LVU172
 601 0024 08BD     		pop	{r3, pc}
 602              	.L35:
 250:Core/Src/main.c ****   }
 603              		.loc 1 250 5 is_stmt 1 view .LVU173
 604 0026 FFF7FEFF 		bl	Error_Handler
 605              	.LVL22:
 606              	.L37:
 607 002a 00BF     		.align	2
 608              	.L36:
 609 002c 00000000 		.word	.LANCHOR2
 610 0030 00440040 		.word	1073759232
 611              		.cfi_endproc
 612              	.LFE134:
 614              		.global	huart2
 615              		.global	hi2c1
 616              		.global	hcrc
 617              		.section	.bss.hcrc,"aw",%nobits
 618              		.align	2
 619              		.set	.LANCHOR0,. + 0
 622              	hcrc:
 623 0000 00000000 		.space	8
 623      00000000 
 624              		.section	.bss.hi2c1,"aw",%nobits
 625              		.align	2
 626              		.set	.LANCHOR1,. + 0
 629              	hi2c1:
 630 0000 00000000 		.space	84
 630      00000000 
 630      00000000 
 630      00000000 
 630      00000000 
 631              		.section	.bss.huart2,"aw",%nobits
 632              		.align	2
 633              		.set	.LANCHOR2,. + 0
 636              	huart2:
 637 0000 00000000 		.space	68
 637      00000000 
 637      00000000 
 637      00000000 
 637      00000000 
ARM GAS  C:\Users\zacfi\AppData\Local\Temp\ccOBZAaL.s 			page 22


 638              		.text
 639              	.Letext0:
 640              		.file 3 "c:\\gnu\\gnu_arm_embedded_toolchain\\10-2020-q4-major\\arm-none-eabi\\include\\machine\\_
 641              		.file 4 "c:\\gnu\\gnu_arm_embedded_toolchain\\10-2020-q4-major\\arm-none-eabi\\include\\sys\\_stdi
 642              		.file 5 "Drivers/CMSIS/Device/ST/STM32F4xx/Include/stm32f446xx.h"
 643              		.file 6 "Drivers/STM32F4xx_HAL_Driver/Inc/stm32f4xx_hal_def.h"
 644              		.file 7 "Drivers/STM32F4xx_HAL_Driver/Inc/stm32f4xx_hal_rcc_ex.h"
 645              		.file 8 "Drivers/STM32F4xx_HAL_Driver/Inc/stm32f4xx_hal_rcc.h"
 646              		.file 9 "Drivers/STM32F4xx_HAL_Driver/Inc/stm32f4xx_hal_gpio.h"
 647              		.file 10 "Drivers/STM32F4xx_HAL_Driver/Inc/stm32f4xx_hal_dma.h"
 648              		.file 11 "Drivers/STM32F4xx_HAL_Driver/Inc/stm32f4xx_hal_crc.h"
 649              		.file 12 "Drivers/STM32F4xx_HAL_Driver/Inc/stm32f4xx_hal_i2c.h"
 650              		.file 13 "Drivers/STM32F4xx_HAL_Driver/Inc/stm32f4xx_hal_uart.h"
 651              		.file 14 "Middlewares/ST/AI/Inc/ai_platform.h"
 652              		.file 15 "Drivers/STM32F4xx_HAL_Driver/Inc/stm32f4xx_hal_pwr_ex.h"
 653              		.file 16 "Drivers/STM32F4xx_HAL_Driver/Inc/stm32f4xx_hal.h"
 654              		.file 17 "X-CUBE-AI/App/app_x-cube-ai.h"
 655              		.file 18 "<built-in>"
ARM GAS  C:\Users\zacfi\AppData\Local\Temp\ccOBZAaL.s 			page 23

