ARM GAS  C:\Users\zacfi\AppData\Local\Temp\ccS8tvjk.s 			page 1


   1              		.cpu cortex-m4
   2              		.eabi_attribute 27, 1
   3              		.eabi_attribute 28, 1
   4              		.eabi_attribute 20, 1
   5              		.eabi_attribute 21, 1
   6              		.eabi_attribute 23, 3
   7              		.eabi_attribute 24, 1
   8              		.eabi_attribute 25, 1
   9              		.eabi_attribute 26, 1
  10              		.eabi_attribute 30, 1
  11              		.eabi_attribute 34, 1
  12              		.eabi_attribute 18, 4
  13              		.file	"stm32f4xx_hal_msp.c"
  14              		.text
  15              	.Ltext0:
  16              		.cfi_sections	.debug_frame
  17              		.section	.text.HAL_MspInit,"ax",%progbits
  18              		.align	1
  19              		.global	HAL_MspInit
  20              		.arch armv7e-m
  21              		.syntax unified
  22              		.thumb
  23              		.thumb_func
  24              		.fpu fpv4-sp-d16
  26              	HAL_MspInit:
  27              	.LFB130:
  28              		.file 1 "Core/Src/stm32f4xx_hal_msp.c"
   1:Core/Src/stm32f4xx_hal_msp.c **** /* USER CODE BEGIN Header */
   2:Core/Src/stm32f4xx_hal_msp.c **** /**
   3:Core/Src/stm32f4xx_hal_msp.c ****   ******************************************************************************
   4:Core/Src/stm32f4xx_hal_msp.c ****   * @file         stm32f4xx_hal_msp.c
   5:Core/Src/stm32f4xx_hal_msp.c ****   * @brief        This file provides code for the MSP Initialization
   6:Core/Src/stm32f4xx_hal_msp.c ****   *               and de-Initialization codes.
   7:Core/Src/stm32f4xx_hal_msp.c ****   ******************************************************************************
   8:Core/Src/stm32f4xx_hal_msp.c ****   * @attention
   9:Core/Src/stm32f4xx_hal_msp.c ****   *
  10:Core/Src/stm32f4xx_hal_msp.c ****   * <h2><center>&copy; Copyright (c) 2021 STMicroelectronics.
  11:Core/Src/stm32f4xx_hal_msp.c ****   * All rights reserved.</center></h2>
  12:Core/Src/stm32f4xx_hal_msp.c ****   *
  13:Core/Src/stm32f4xx_hal_msp.c ****   * This software component is licensed by ST under Ultimate Liberty license
  14:Core/Src/stm32f4xx_hal_msp.c ****   * SLA0044, the "License"; You may not use this file except in compliance with
  15:Core/Src/stm32f4xx_hal_msp.c ****   * the License. You may obtain a copy of the License at:
  16:Core/Src/stm32f4xx_hal_msp.c ****   *                             www.st.com/SLA0044
  17:Core/Src/stm32f4xx_hal_msp.c ****   *
  18:Core/Src/stm32f4xx_hal_msp.c ****   ******************************************************************************
  19:Core/Src/stm32f4xx_hal_msp.c ****   */
  20:Core/Src/stm32f4xx_hal_msp.c **** /* USER CODE END Header */
  21:Core/Src/stm32f4xx_hal_msp.c **** 
  22:Core/Src/stm32f4xx_hal_msp.c **** /* Includes ------------------------------------------------------------------*/
  23:Core/Src/stm32f4xx_hal_msp.c **** #include "main.h"
  24:Core/Src/stm32f4xx_hal_msp.c **** /* USER CODE BEGIN Includes */
  25:Core/Src/stm32f4xx_hal_msp.c **** 
  26:Core/Src/stm32f4xx_hal_msp.c **** /* USER CODE END Includes */
  27:Core/Src/stm32f4xx_hal_msp.c **** 
  28:Core/Src/stm32f4xx_hal_msp.c **** /* Private typedef -----------------------------------------------------------*/
  29:Core/Src/stm32f4xx_hal_msp.c **** /* USER CODE BEGIN TD */
  30:Core/Src/stm32f4xx_hal_msp.c **** 
ARM GAS  C:\Users\zacfi\AppData\Local\Temp\ccS8tvjk.s 			page 2


  31:Core/Src/stm32f4xx_hal_msp.c **** /* USER CODE END TD */
  32:Core/Src/stm32f4xx_hal_msp.c **** 
  33:Core/Src/stm32f4xx_hal_msp.c **** /* Private define ------------------------------------------------------------*/
  34:Core/Src/stm32f4xx_hal_msp.c **** /* USER CODE BEGIN Define */
  35:Core/Src/stm32f4xx_hal_msp.c **** 
  36:Core/Src/stm32f4xx_hal_msp.c **** /* USER CODE END Define */
  37:Core/Src/stm32f4xx_hal_msp.c **** 
  38:Core/Src/stm32f4xx_hal_msp.c **** /* Private macro -------------------------------------------------------------*/
  39:Core/Src/stm32f4xx_hal_msp.c **** /* USER CODE BEGIN Macro */
  40:Core/Src/stm32f4xx_hal_msp.c **** 
  41:Core/Src/stm32f4xx_hal_msp.c **** /* USER CODE END Macro */
  42:Core/Src/stm32f4xx_hal_msp.c **** 
  43:Core/Src/stm32f4xx_hal_msp.c **** /* Private variables ---------------------------------------------------------*/
  44:Core/Src/stm32f4xx_hal_msp.c **** /* USER CODE BEGIN PV */
  45:Core/Src/stm32f4xx_hal_msp.c **** 
  46:Core/Src/stm32f4xx_hal_msp.c **** /* USER CODE END PV */
  47:Core/Src/stm32f4xx_hal_msp.c **** 
  48:Core/Src/stm32f4xx_hal_msp.c **** /* Private function prototypes -----------------------------------------------*/
  49:Core/Src/stm32f4xx_hal_msp.c **** /* USER CODE BEGIN PFP */
  50:Core/Src/stm32f4xx_hal_msp.c **** 
  51:Core/Src/stm32f4xx_hal_msp.c **** /* USER CODE END PFP */
  52:Core/Src/stm32f4xx_hal_msp.c **** 
  53:Core/Src/stm32f4xx_hal_msp.c **** /* External functions --------------------------------------------------------*/
  54:Core/Src/stm32f4xx_hal_msp.c **** /* USER CODE BEGIN ExternalFunctions */
  55:Core/Src/stm32f4xx_hal_msp.c **** 
  56:Core/Src/stm32f4xx_hal_msp.c **** /* USER CODE END ExternalFunctions */
  57:Core/Src/stm32f4xx_hal_msp.c **** 
  58:Core/Src/stm32f4xx_hal_msp.c **** /* USER CODE BEGIN 0 */
  59:Core/Src/stm32f4xx_hal_msp.c **** 
  60:Core/Src/stm32f4xx_hal_msp.c **** /* USER CODE END 0 */
  61:Core/Src/stm32f4xx_hal_msp.c **** /**
  62:Core/Src/stm32f4xx_hal_msp.c ****   * Initializes the Global MSP.
  63:Core/Src/stm32f4xx_hal_msp.c ****   */
  64:Core/Src/stm32f4xx_hal_msp.c **** void HAL_MspInit(void)
  65:Core/Src/stm32f4xx_hal_msp.c **** {
  29              		.loc 1 65 1 view -0
  30              		.cfi_startproc
  31              		@ args = 0, pretend = 0, frame = 8
  32              		@ frame_needed = 0, uses_anonymous_args = 0
  33 0000 00B5     		push	{lr}
  34              	.LCFI0:
  35              		.cfi_def_cfa_offset 4
  36              		.cfi_offset 14, -4
  37 0002 83B0     		sub	sp, sp, #12
  38              	.LCFI1:
  39              		.cfi_def_cfa_offset 16
  66:Core/Src/stm32f4xx_hal_msp.c ****   /* USER CODE BEGIN MspInit 0 */
  67:Core/Src/stm32f4xx_hal_msp.c **** 
  68:Core/Src/stm32f4xx_hal_msp.c ****   /* USER CODE END MspInit 0 */
  69:Core/Src/stm32f4xx_hal_msp.c **** 
  70:Core/Src/stm32f4xx_hal_msp.c ****   __HAL_RCC_SYSCFG_CLK_ENABLE();
  40              		.loc 1 70 3 view .LVU1
  41              	.LBB2:
  42              		.loc 1 70 3 view .LVU2
  43 0004 0021     		movs	r1, #0
  44 0006 0091     		str	r1, [sp]
  45              		.loc 1 70 3 view .LVU3
ARM GAS  C:\Users\zacfi\AppData\Local\Temp\ccS8tvjk.s 			page 3


  46 0008 0C4B     		ldr	r3, .L3
  47 000a 5A6C     		ldr	r2, [r3, #68]
  48 000c 42F48042 		orr	r2, r2, #16384
  49 0010 5A64     		str	r2, [r3, #68]
  50              		.loc 1 70 3 view .LVU4
  51 0012 5A6C     		ldr	r2, [r3, #68]
  52 0014 02F48042 		and	r2, r2, #16384
  53 0018 0092     		str	r2, [sp]
  54              		.loc 1 70 3 view .LVU5
  55 001a 009A     		ldr	r2, [sp]
  56              	.LBE2:
  57              		.loc 1 70 3 view .LVU6
  71:Core/Src/stm32f4xx_hal_msp.c ****   __HAL_RCC_PWR_CLK_ENABLE();
  58              		.loc 1 71 3 view .LVU7
  59              	.LBB3:
  60              		.loc 1 71 3 view .LVU8
  61 001c 0191     		str	r1, [sp, #4]
  62              		.loc 1 71 3 view .LVU9
  63 001e 1A6C     		ldr	r2, [r3, #64]
  64 0020 42F08052 		orr	r2, r2, #268435456
  65 0024 1A64     		str	r2, [r3, #64]
  66              		.loc 1 71 3 view .LVU10
  67 0026 1B6C     		ldr	r3, [r3, #64]
  68 0028 03F08053 		and	r3, r3, #268435456
  69 002c 0193     		str	r3, [sp, #4]
  70              		.loc 1 71 3 view .LVU11
  71 002e 019B     		ldr	r3, [sp, #4]
  72              	.LBE3:
  73              		.loc 1 71 3 view .LVU12
  72:Core/Src/stm32f4xx_hal_msp.c **** 
  73:Core/Src/stm32f4xx_hal_msp.c ****   HAL_NVIC_SetPriorityGrouping(NVIC_PRIORITYGROUP_0);
  74              		.loc 1 73 3 view .LVU13
  75 0030 0720     		movs	r0, #7
  76 0032 FFF7FEFF 		bl	HAL_NVIC_SetPriorityGrouping
  77              	.LVL0:
  74:Core/Src/stm32f4xx_hal_msp.c **** 
  75:Core/Src/stm32f4xx_hal_msp.c ****   /* System interrupt init*/
  76:Core/Src/stm32f4xx_hal_msp.c **** 
  77:Core/Src/stm32f4xx_hal_msp.c ****   /* USER CODE BEGIN MspInit 1 */
  78:Core/Src/stm32f4xx_hal_msp.c **** 
  79:Core/Src/stm32f4xx_hal_msp.c ****   /* USER CODE END MspInit 1 */
  80:Core/Src/stm32f4xx_hal_msp.c **** }
  78              		.loc 1 80 1 is_stmt 0 view .LVU14
  79 0036 03B0     		add	sp, sp, #12
  80              	.LCFI2:
  81              		.cfi_def_cfa_offset 4
  82              		@ sp needed
  83 0038 5DF804FB 		ldr	pc, [sp], #4
  84              	.L4:
  85              		.align	2
  86              	.L3:
  87 003c 00380240 		.word	1073887232
  88              		.cfi_endproc
  89              	.LFE130:
  91              		.section	.text.HAL_CRC_MspInit,"ax",%progbits
  92              		.align	1
  93              		.global	HAL_CRC_MspInit
ARM GAS  C:\Users\zacfi\AppData\Local\Temp\ccS8tvjk.s 			page 4


  94              		.syntax unified
  95              		.thumb
  96              		.thumb_func
  97              		.fpu fpv4-sp-d16
  99              	HAL_CRC_MspInit:
 100              	.LVL1:
 101              	.LFB131:
  81:Core/Src/stm32f4xx_hal_msp.c **** 
  82:Core/Src/stm32f4xx_hal_msp.c **** /**
  83:Core/Src/stm32f4xx_hal_msp.c **** * @brief CRC MSP Initialization
  84:Core/Src/stm32f4xx_hal_msp.c **** * This function configures the hardware resources used in this example
  85:Core/Src/stm32f4xx_hal_msp.c **** * @param hcrc: CRC handle pointer
  86:Core/Src/stm32f4xx_hal_msp.c **** * @retval None
  87:Core/Src/stm32f4xx_hal_msp.c **** */
  88:Core/Src/stm32f4xx_hal_msp.c **** void HAL_CRC_MspInit(CRC_HandleTypeDef* hcrc)
  89:Core/Src/stm32f4xx_hal_msp.c **** {
 102              		.loc 1 89 1 is_stmt 1 view -0
 103              		.cfi_startproc
 104              		@ args = 0, pretend = 0, frame = 8
 105              		@ frame_needed = 0, uses_anonymous_args = 0
 106              		@ link register save eliminated.
  90:Core/Src/stm32f4xx_hal_msp.c ****   if(hcrc->Instance==CRC)
 107              		.loc 1 90 3 view .LVU16
 108              		.loc 1 90 10 is_stmt 0 view .LVU17
 109 0000 0268     		ldr	r2, [r0]
 110              		.loc 1 90 5 view .LVU18
 111 0002 094B     		ldr	r3, .L12
 112 0004 9A42     		cmp	r2, r3
 113 0006 00D0     		beq	.L11
 114 0008 7047     		bx	lr
 115              	.L11:
  89:Core/Src/stm32f4xx_hal_msp.c ****   if(hcrc->Instance==CRC)
 116              		.loc 1 89 1 view .LVU19
 117 000a 82B0     		sub	sp, sp, #8
 118              	.LCFI3:
 119              		.cfi_def_cfa_offset 8
  91:Core/Src/stm32f4xx_hal_msp.c ****   {
  92:Core/Src/stm32f4xx_hal_msp.c ****   /* USER CODE BEGIN CRC_MspInit 0 */
  93:Core/Src/stm32f4xx_hal_msp.c **** 
  94:Core/Src/stm32f4xx_hal_msp.c ****   /* USER CODE END CRC_MspInit 0 */
  95:Core/Src/stm32f4xx_hal_msp.c ****     /* Peripheral clock enable */
  96:Core/Src/stm32f4xx_hal_msp.c ****     __HAL_RCC_CRC_CLK_ENABLE();
 120              		.loc 1 96 5 is_stmt 1 view .LVU20
 121              	.LBB4:
 122              		.loc 1 96 5 view .LVU21
 123 000c 0023     		movs	r3, #0
 124 000e 0193     		str	r3, [sp, #4]
 125              		.loc 1 96 5 view .LVU22
 126 0010 064B     		ldr	r3, .L12+4
 127 0012 1A6B     		ldr	r2, [r3, #48]
 128 0014 42F48052 		orr	r2, r2, #4096
 129 0018 1A63     		str	r2, [r3, #48]
 130              		.loc 1 96 5 view .LVU23
 131 001a 1B6B     		ldr	r3, [r3, #48]
 132 001c 03F48053 		and	r3, r3, #4096
 133 0020 0193     		str	r3, [sp, #4]
 134              		.loc 1 96 5 view .LVU24
ARM GAS  C:\Users\zacfi\AppData\Local\Temp\ccS8tvjk.s 			page 5


 135 0022 019B     		ldr	r3, [sp, #4]
 136              	.LBE4:
 137              		.loc 1 96 5 view .LVU25
  97:Core/Src/stm32f4xx_hal_msp.c ****   /* USER CODE BEGIN CRC_MspInit 1 */
  98:Core/Src/stm32f4xx_hal_msp.c **** 
  99:Core/Src/stm32f4xx_hal_msp.c ****   /* USER CODE END CRC_MspInit 1 */
 100:Core/Src/stm32f4xx_hal_msp.c ****   }
 101:Core/Src/stm32f4xx_hal_msp.c **** 
 102:Core/Src/stm32f4xx_hal_msp.c **** }
 138              		.loc 1 102 1 is_stmt 0 view .LVU26
 139 0024 02B0     		add	sp, sp, #8
 140              	.LCFI4:
 141              		.cfi_def_cfa_offset 0
 142              		@ sp needed
 143 0026 7047     		bx	lr
 144              	.L13:
 145              		.align	2
 146              	.L12:
 147 0028 00300240 		.word	1073885184
 148 002c 00380240 		.word	1073887232
 149              		.cfi_endproc
 150              	.LFE131:
 152              		.section	.text.HAL_CRC_MspDeInit,"ax",%progbits
 153              		.align	1
 154              		.global	HAL_CRC_MspDeInit
 155              		.syntax unified
 156              		.thumb
 157              		.thumb_func
 158              		.fpu fpv4-sp-d16
 160              	HAL_CRC_MspDeInit:
 161              	.LVL2:
 162              	.LFB132:
 103:Core/Src/stm32f4xx_hal_msp.c **** 
 104:Core/Src/stm32f4xx_hal_msp.c **** /**
 105:Core/Src/stm32f4xx_hal_msp.c **** * @brief CRC MSP De-Initialization
 106:Core/Src/stm32f4xx_hal_msp.c **** * This function freeze the hardware resources used in this example
 107:Core/Src/stm32f4xx_hal_msp.c **** * @param hcrc: CRC handle pointer
 108:Core/Src/stm32f4xx_hal_msp.c **** * @retval None
 109:Core/Src/stm32f4xx_hal_msp.c **** */
 110:Core/Src/stm32f4xx_hal_msp.c **** void HAL_CRC_MspDeInit(CRC_HandleTypeDef* hcrc)
 111:Core/Src/stm32f4xx_hal_msp.c **** {
 163              		.loc 1 111 1 is_stmt 1 view -0
 164              		.cfi_startproc
 165              		@ args = 0, pretend = 0, frame = 0
 166              		@ frame_needed = 0, uses_anonymous_args = 0
 167              		@ link register save eliminated.
 112:Core/Src/stm32f4xx_hal_msp.c ****   if(hcrc->Instance==CRC)
 168              		.loc 1 112 3 view .LVU28
 169              		.loc 1 112 10 is_stmt 0 view .LVU29
 170 0000 0268     		ldr	r2, [r0]
 171              		.loc 1 112 5 view .LVU30
 172 0002 054B     		ldr	r3, .L17
 173 0004 9A42     		cmp	r2, r3
 174 0006 00D0     		beq	.L16
 175              	.L14:
 113:Core/Src/stm32f4xx_hal_msp.c ****   {
 114:Core/Src/stm32f4xx_hal_msp.c ****   /* USER CODE BEGIN CRC_MspDeInit 0 */
ARM GAS  C:\Users\zacfi\AppData\Local\Temp\ccS8tvjk.s 			page 6


 115:Core/Src/stm32f4xx_hal_msp.c **** 
 116:Core/Src/stm32f4xx_hal_msp.c ****   /* USER CODE END CRC_MspDeInit 0 */
 117:Core/Src/stm32f4xx_hal_msp.c ****     /* Peripheral clock disable */
 118:Core/Src/stm32f4xx_hal_msp.c ****     __HAL_RCC_CRC_CLK_DISABLE();
 119:Core/Src/stm32f4xx_hal_msp.c ****   /* USER CODE BEGIN CRC_MspDeInit 1 */
 120:Core/Src/stm32f4xx_hal_msp.c **** 
 121:Core/Src/stm32f4xx_hal_msp.c ****   /* USER CODE END CRC_MspDeInit 1 */
 122:Core/Src/stm32f4xx_hal_msp.c ****   }
 123:Core/Src/stm32f4xx_hal_msp.c **** 
 124:Core/Src/stm32f4xx_hal_msp.c **** }
 176              		.loc 1 124 1 view .LVU31
 177 0008 7047     		bx	lr
 178              	.L16:
 118:Core/Src/stm32f4xx_hal_msp.c ****   /* USER CODE BEGIN CRC_MspDeInit 1 */
 179              		.loc 1 118 5 is_stmt 1 view .LVU32
 180 000a 044A     		ldr	r2, .L17+4
 181 000c 136B     		ldr	r3, [r2, #48]
 182 000e 23F48053 		bic	r3, r3, #4096
 183 0012 1363     		str	r3, [r2, #48]
 184              		.loc 1 124 1 is_stmt 0 view .LVU33
 185 0014 F8E7     		b	.L14
 186              	.L18:
 187 0016 00BF     		.align	2
 188              	.L17:
 189 0018 00300240 		.word	1073885184
 190 001c 00380240 		.word	1073887232
 191              		.cfi_endproc
 192              	.LFE132:
 194              		.section	.text.HAL_I2C_MspInit,"ax",%progbits
 195              		.align	1
 196              		.global	HAL_I2C_MspInit
 197              		.syntax unified
 198              		.thumb
 199              		.thumb_func
 200              		.fpu fpv4-sp-d16
 202              	HAL_I2C_MspInit:
 203              	.LVL3:
 204              	.LFB133:
 125:Core/Src/stm32f4xx_hal_msp.c **** 
 126:Core/Src/stm32f4xx_hal_msp.c **** /**
 127:Core/Src/stm32f4xx_hal_msp.c **** * @brief I2C MSP Initialization
 128:Core/Src/stm32f4xx_hal_msp.c **** * This function configures the hardware resources used in this example
 129:Core/Src/stm32f4xx_hal_msp.c **** * @param hi2c: I2C handle pointer
 130:Core/Src/stm32f4xx_hal_msp.c **** * @retval None
 131:Core/Src/stm32f4xx_hal_msp.c **** */
 132:Core/Src/stm32f4xx_hal_msp.c **** void HAL_I2C_MspInit(I2C_HandleTypeDef* hi2c)
 133:Core/Src/stm32f4xx_hal_msp.c **** {
 205              		.loc 1 133 1 is_stmt 1 view -0
 206              		.cfi_startproc
 207              		@ args = 0, pretend = 0, frame = 32
 208              		@ frame_needed = 0, uses_anonymous_args = 0
 209              		.loc 1 133 1 is_stmt 0 view .LVU35
 210 0000 30B5     		push	{r4, r5, lr}
 211              	.LCFI5:
 212              		.cfi_def_cfa_offset 12
 213              		.cfi_offset 4, -12
 214              		.cfi_offset 5, -8
ARM GAS  C:\Users\zacfi\AppData\Local\Temp\ccS8tvjk.s 			page 7


 215              		.cfi_offset 14, -4
 216 0002 89B0     		sub	sp, sp, #36
 217              	.LCFI6:
 218              		.cfi_def_cfa_offset 48
 134:Core/Src/stm32f4xx_hal_msp.c ****   GPIO_InitTypeDef GPIO_InitStruct = {0};
 219              		.loc 1 134 3 is_stmt 1 view .LVU36
 220              		.loc 1 134 20 is_stmt 0 view .LVU37
 221 0004 0023     		movs	r3, #0
 222 0006 0393     		str	r3, [sp, #12]
 223 0008 0493     		str	r3, [sp, #16]
 224 000a 0593     		str	r3, [sp, #20]
 225 000c 0693     		str	r3, [sp, #24]
 226 000e 0793     		str	r3, [sp, #28]
 135:Core/Src/stm32f4xx_hal_msp.c ****   if(hi2c->Instance==I2C1)
 227              		.loc 1 135 3 is_stmt 1 view .LVU38
 228              		.loc 1 135 10 is_stmt 0 view .LVU39
 229 0010 0268     		ldr	r2, [r0]
 230              		.loc 1 135 5 view .LVU40
 231 0012 154B     		ldr	r3, .L23
 232 0014 9A42     		cmp	r2, r3
 233 0016 01D0     		beq	.L22
 234              	.LVL4:
 235              	.L19:
 136:Core/Src/stm32f4xx_hal_msp.c ****   {
 137:Core/Src/stm32f4xx_hal_msp.c ****   /* USER CODE BEGIN I2C1_MspInit 0 */
 138:Core/Src/stm32f4xx_hal_msp.c **** 
 139:Core/Src/stm32f4xx_hal_msp.c ****   /* USER CODE END I2C1_MspInit 0 */
 140:Core/Src/stm32f4xx_hal_msp.c **** 
 141:Core/Src/stm32f4xx_hal_msp.c ****     __HAL_RCC_GPIOB_CLK_ENABLE();
 142:Core/Src/stm32f4xx_hal_msp.c ****     /**I2C1 GPIO Configuration
 143:Core/Src/stm32f4xx_hal_msp.c ****     PB6     ------> I2C1_SCL
 144:Core/Src/stm32f4xx_hal_msp.c ****     PB7     ------> I2C1_SDA
 145:Core/Src/stm32f4xx_hal_msp.c ****     */
 146:Core/Src/stm32f4xx_hal_msp.c ****     GPIO_InitStruct.Pin = GPIO_PIN_6|GPIO_PIN_7;
 147:Core/Src/stm32f4xx_hal_msp.c ****     GPIO_InitStruct.Mode = GPIO_MODE_AF_OD;
 148:Core/Src/stm32f4xx_hal_msp.c ****     GPIO_InitStruct.Pull = GPIO_PULLUP;
 149:Core/Src/stm32f4xx_hal_msp.c ****     GPIO_InitStruct.Speed = GPIO_SPEED_FREQ_VERY_HIGH;
 150:Core/Src/stm32f4xx_hal_msp.c ****     GPIO_InitStruct.Alternate = GPIO_AF4_I2C1;
 151:Core/Src/stm32f4xx_hal_msp.c ****     HAL_GPIO_Init(GPIOB, &GPIO_InitStruct);
 152:Core/Src/stm32f4xx_hal_msp.c **** 
 153:Core/Src/stm32f4xx_hal_msp.c ****     /* Peripheral clock enable */
 154:Core/Src/stm32f4xx_hal_msp.c ****     __HAL_RCC_I2C1_CLK_ENABLE();
 155:Core/Src/stm32f4xx_hal_msp.c ****   /* USER CODE BEGIN I2C1_MspInit 1 */
 156:Core/Src/stm32f4xx_hal_msp.c **** 
 157:Core/Src/stm32f4xx_hal_msp.c ****   /* USER CODE END I2C1_MspInit 1 */
 158:Core/Src/stm32f4xx_hal_msp.c ****   }
 159:Core/Src/stm32f4xx_hal_msp.c **** 
 160:Core/Src/stm32f4xx_hal_msp.c **** }
 236              		.loc 1 160 1 view .LVU41
 237 0018 09B0     		add	sp, sp, #36
 238              	.LCFI7:
 239              		.cfi_remember_state
 240              		.cfi_def_cfa_offset 12
 241              		@ sp needed
 242 001a 30BD     		pop	{r4, r5, pc}
 243              	.LVL5:
 244              	.L22:
ARM GAS  C:\Users\zacfi\AppData\Local\Temp\ccS8tvjk.s 			page 8


 245              	.LCFI8:
 246              		.cfi_restore_state
 141:Core/Src/stm32f4xx_hal_msp.c ****     /**I2C1 GPIO Configuration
 247              		.loc 1 141 5 is_stmt 1 view .LVU42
 248              	.LBB5:
 141:Core/Src/stm32f4xx_hal_msp.c ****     /**I2C1 GPIO Configuration
 249              		.loc 1 141 5 view .LVU43
 250 001c 0025     		movs	r5, #0
 251 001e 0195     		str	r5, [sp, #4]
 141:Core/Src/stm32f4xx_hal_msp.c ****     /**I2C1 GPIO Configuration
 252              		.loc 1 141 5 view .LVU44
 253 0020 124C     		ldr	r4, .L23+4
 254 0022 236B     		ldr	r3, [r4, #48]
 255 0024 43F00203 		orr	r3, r3, #2
 256 0028 2363     		str	r3, [r4, #48]
 141:Core/Src/stm32f4xx_hal_msp.c ****     /**I2C1 GPIO Configuration
 257              		.loc 1 141 5 view .LVU45
 258 002a 236B     		ldr	r3, [r4, #48]
 259 002c 03F00203 		and	r3, r3, #2
 260 0030 0193     		str	r3, [sp, #4]
 141:Core/Src/stm32f4xx_hal_msp.c ****     /**I2C1 GPIO Configuration
 261              		.loc 1 141 5 view .LVU46
 262 0032 019B     		ldr	r3, [sp, #4]
 263              	.LBE5:
 141:Core/Src/stm32f4xx_hal_msp.c ****     /**I2C1 GPIO Configuration
 264              		.loc 1 141 5 view .LVU47
 146:Core/Src/stm32f4xx_hal_msp.c ****     GPIO_InitStruct.Mode = GPIO_MODE_AF_OD;
 265              		.loc 1 146 5 view .LVU48
 146:Core/Src/stm32f4xx_hal_msp.c ****     GPIO_InitStruct.Mode = GPIO_MODE_AF_OD;
 266              		.loc 1 146 25 is_stmt 0 view .LVU49
 267 0034 C023     		movs	r3, #192
 268 0036 0393     		str	r3, [sp, #12]
 147:Core/Src/stm32f4xx_hal_msp.c ****     GPIO_InitStruct.Pull = GPIO_PULLUP;
 269              		.loc 1 147 5 is_stmt 1 view .LVU50
 147:Core/Src/stm32f4xx_hal_msp.c ****     GPIO_InitStruct.Pull = GPIO_PULLUP;
 270              		.loc 1 147 26 is_stmt 0 view .LVU51
 271 0038 1223     		movs	r3, #18
 272 003a 0493     		str	r3, [sp, #16]
 148:Core/Src/stm32f4xx_hal_msp.c ****     GPIO_InitStruct.Speed = GPIO_SPEED_FREQ_VERY_HIGH;
 273              		.loc 1 148 5 is_stmt 1 view .LVU52
 148:Core/Src/stm32f4xx_hal_msp.c ****     GPIO_InitStruct.Speed = GPIO_SPEED_FREQ_VERY_HIGH;
 274              		.loc 1 148 26 is_stmt 0 view .LVU53
 275 003c 0123     		movs	r3, #1
 276 003e 0593     		str	r3, [sp, #20]
 149:Core/Src/stm32f4xx_hal_msp.c ****     GPIO_InitStruct.Alternate = GPIO_AF4_I2C1;
 277              		.loc 1 149 5 is_stmt 1 view .LVU54
 149:Core/Src/stm32f4xx_hal_msp.c ****     GPIO_InitStruct.Alternate = GPIO_AF4_I2C1;
 278              		.loc 1 149 27 is_stmt 0 view .LVU55
 279 0040 0323     		movs	r3, #3
 280 0042 0693     		str	r3, [sp, #24]
 150:Core/Src/stm32f4xx_hal_msp.c ****     HAL_GPIO_Init(GPIOB, &GPIO_InitStruct);
 281              		.loc 1 150 5 is_stmt 1 view .LVU56
 150:Core/Src/stm32f4xx_hal_msp.c ****     HAL_GPIO_Init(GPIOB, &GPIO_InitStruct);
 282              		.loc 1 150 31 is_stmt 0 view .LVU57
 283 0044 0423     		movs	r3, #4
 284 0046 0793     		str	r3, [sp, #28]
 151:Core/Src/stm32f4xx_hal_msp.c **** 
ARM GAS  C:\Users\zacfi\AppData\Local\Temp\ccS8tvjk.s 			page 9


 285              		.loc 1 151 5 is_stmt 1 view .LVU58
 286 0048 03A9     		add	r1, sp, #12
 287 004a 0948     		ldr	r0, .L23+8
 288              	.LVL6:
 151:Core/Src/stm32f4xx_hal_msp.c **** 
 289              		.loc 1 151 5 is_stmt 0 view .LVU59
 290 004c FFF7FEFF 		bl	HAL_GPIO_Init
 291              	.LVL7:
 154:Core/Src/stm32f4xx_hal_msp.c ****   /* USER CODE BEGIN I2C1_MspInit 1 */
 292              		.loc 1 154 5 is_stmt 1 view .LVU60
 293              	.LBB6:
 154:Core/Src/stm32f4xx_hal_msp.c ****   /* USER CODE BEGIN I2C1_MspInit 1 */
 294              		.loc 1 154 5 view .LVU61
 295 0050 0295     		str	r5, [sp, #8]
 154:Core/Src/stm32f4xx_hal_msp.c ****   /* USER CODE BEGIN I2C1_MspInit 1 */
 296              		.loc 1 154 5 view .LVU62
 297 0052 236C     		ldr	r3, [r4, #64]
 298 0054 43F40013 		orr	r3, r3, #2097152
 299 0058 2364     		str	r3, [r4, #64]
 154:Core/Src/stm32f4xx_hal_msp.c ****   /* USER CODE BEGIN I2C1_MspInit 1 */
 300              		.loc 1 154 5 view .LVU63
 301 005a 236C     		ldr	r3, [r4, #64]
 302 005c 03F40013 		and	r3, r3, #2097152
 303 0060 0293     		str	r3, [sp, #8]
 154:Core/Src/stm32f4xx_hal_msp.c ****   /* USER CODE BEGIN I2C1_MspInit 1 */
 304              		.loc 1 154 5 view .LVU64
 305 0062 029B     		ldr	r3, [sp, #8]
 306              	.LBE6:
 154:Core/Src/stm32f4xx_hal_msp.c ****   /* USER CODE BEGIN I2C1_MspInit 1 */
 307              		.loc 1 154 5 view .LVU65
 308              		.loc 1 160 1 is_stmt 0 view .LVU66
 309 0064 D8E7     		b	.L19
 310              	.L24:
 311 0066 00BF     		.align	2
 312              	.L23:
 313 0068 00540040 		.word	1073763328
 314 006c 00380240 		.word	1073887232
 315 0070 00040240 		.word	1073873920
 316              		.cfi_endproc
 317              	.LFE133:
 319              		.section	.text.HAL_I2C_MspDeInit,"ax",%progbits
 320              		.align	1
 321              		.global	HAL_I2C_MspDeInit
 322              		.syntax unified
 323              		.thumb
 324              		.thumb_func
 325              		.fpu fpv4-sp-d16
 327              	HAL_I2C_MspDeInit:
 328              	.LVL8:
 329              	.LFB134:
 161:Core/Src/stm32f4xx_hal_msp.c **** 
 162:Core/Src/stm32f4xx_hal_msp.c **** /**
 163:Core/Src/stm32f4xx_hal_msp.c **** * @brief I2C MSP De-Initialization
 164:Core/Src/stm32f4xx_hal_msp.c **** * This function freeze the hardware resources used in this example
 165:Core/Src/stm32f4xx_hal_msp.c **** * @param hi2c: I2C handle pointer
 166:Core/Src/stm32f4xx_hal_msp.c **** * @retval None
 167:Core/Src/stm32f4xx_hal_msp.c **** */
ARM GAS  C:\Users\zacfi\AppData\Local\Temp\ccS8tvjk.s 			page 10


 168:Core/Src/stm32f4xx_hal_msp.c **** void HAL_I2C_MspDeInit(I2C_HandleTypeDef* hi2c)
 169:Core/Src/stm32f4xx_hal_msp.c **** {
 330              		.loc 1 169 1 is_stmt 1 view -0
 331              		.cfi_startproc
 332              		@ args = 0, pretend = 0, frame = 0
 333              		@ frame_needed = 0, uses_anonymous_args = 0
 170:Core/Src/stm32f4xx_hal_msp.c ****   if(hi2c->Instance==I2C1)
 334              		.loc 1 170 3 view .LVU68
 335              		.loc 1 170 10 is_stmt 0 view .LVU69
 336 0000 0268     		ldr	r2, [r0]
 337              		.loc 1 170 5 view .LVU70
 338 0002 0A4B     		ldr	r3, .L32
 339 0004 9A42     		cmp	r2, r3
 340 0006 00D0     		beq	.L31
 341 0008 7047     		bx	lr
 342              	.L31:
 169:Core/Src/stm32f4xx_hal_msp.c ****   if(hi2c->Instance==I2C1)
 343              		.loc 1 169 1 view .LVU71
 344 000a 10B5     		push	{r4, lr}
 345              	.LCFI9:
 346              		.cfi_def_cfa_offset 8
 347              		.cfi_offset 4, -8
 348              		.cfi_offset 14, -4
 171:Core/Src/stm32f4xx_hal_msp.c ****   {
 172:Core/Src/stm32f4xx_hal_msp.c ****   /* USER CODE BEGIN I2C1_MspDeInit 0 */
 173:Core/Src/stm32f4xx_hal_msp.c **** 
 174:Core/Src/stm32f4xx_hal_msp.c ****   /* USER CODE END I2C1_MspDeInit 0 */
 175:Core/Src/stm32f4xx_hal_msp.c ****     /* Peripheral clock disable */
 176:Core/Src/stm32f4xx_hal_msp.c ****     __HAL_RCC_I2C1_CLK_DISABLE();
 349              		.loc 1 176 5 is_stmt 1 view .LVU72
 350 000c 084A     		ldr	r2, .L32+4
 351 000e 136C     		ldr	r3, [r2, #64]
 352 0010 23F40013 		bic	r3, r3, #2097152
 353 0014 1364     		str	r3, [r2, #64]
 177:Core/Src/stm32f4xx_hal_msp.c **** 
 178:Core/Src/stm32f4xx_hal_msp.c ****     /**I2C1 GPIO Configuration
 179:Core/Src/stm32f4xx_hal_msp.c ****     PB6     ------> I2C1_SCL
 180:Core/Src/stm32f4xx_hal_msp.c ****     PB7     ------> I2C1_SDA
 181:Core/Src/stm32f4xx_hal_msp.c ****     */
 182:Core/Src/stm32f4xx_hal_msp.c ****     HAL_GPIO_DeInit(GPIOB, GPIO_PIN_6);
 354              		.loc 1 182 5 view .LVU73
 355 0016 074C     		ldr	r4, .L32+8
 356 0018 4021     		movs	r1, #64
 357 001a 2046     		mov	r0, r4
 358              	.LVL9:
 359              		.loc 1 182 5 is_stmt 0 view .LVU74
 360 001c FFF7FEFF 		bl	HAL_GPIO_DeInit
 361              	.LVL10:
 183:Core/Src/stm32f4xx_hal_msp.c **** 
 184:Core/Src/stm32f4xx_hal_msp.c ****     HAL_GPIO_DeInit(GPIOB, GPIO_PIN_7);
 362              		.loc 1 184 5 is_stmt 1 view .LVU75
 363 0020 8021     		movs	r1, #128
 364 0022 2046     		mov	r0, r4
 365 0024 FFF7FEFF 		bl	HAL_GPIO_DeInit
 366              	.LVL11:
 185:Core/Src/stm32f4xx_hal_msp.c **** 
 186:Core/Src/stm32f4xx_hal_msp.c ****   /* USER CODE BEGIN I2C1_MspDeInit 1 */
ARM GAS  C:\Users\zacfi\AppData\Local\Temp\ccS8tvjk.s 			page 11


 187:Core/Src/stm32f4xx_hal_msp.c **** 
 188:Core/Src/stm32f4xx_hal_msp.c ****   /* USER CODE END I2C1_MspDeInit 1 */
 189:Core/Src/stm32f4xx_hal_msp.c ****   }
 190:Core/Src/stm32f4xx_hal_msp.c **** 
 191:Core/Src/stm32f4xx_hal_msp.c **** }
 367              		.loc 1 191 1 is_stmt 0 view .LVU76
 368 0028 10BD     		pop	{r4, pc}
 369              	.L33:
 370 002a 00BF     		.align	2
 371              	.L32:
 372 002c 00540040 		.word	1073763328
 373 0030 00380240 		.word	1073887232
 374 0034 00040240 		.word	1073873920
 375              		.cfi_endproc
 376              	.LFE134:
 378              		.section	.text.HAL_UART_MspInit,"ax",%progbits
 379              		.align	1
 380              		.global	HAL_UART_MspInit
 381              		.syntax unified
 382              		.thumb
 383              		.thumb_func
 384              		.fpu fpv4-sp-d16
 386              	HAL_UART_MspInit:
 387              	.LVL12:
 388              	.LFB135:
 192:Core/Src/stm32f4xx_hal_msp.c **** 
 193:Core/Src/stm32f4xx_hal_msp.c **** /**
 194:Core/Src/stm32f4xx_hal_msp.c **** * @brief UART MSP Initialization
 195:Core/Src/stm32f4xx_hal_msp.c **** * This function configures the hardware resources used in this example
 196:Core/Src/stm32f4xx_hal_msp.c **** * @param huart: UART handle pointer
 197:Core/Src/stm32f4xx_hal_msp.c **** * @retval None
 198:Core/Src/stm32f4xx_hal_msp.c **** */
 199:Core/Src/stm32f4xx_hal_msp.c **** void HAL_UART_MspInit(UART_HandleTypeDef* huart)
 200:Core/Src/stm32f4xx_hal_msp.c **** {
 389              		.loc 1 200 1 is_stmt 1 view -0
 390              		.cfi_startproc
 391              		@ args = 0, pretend = 0, frame = 32
 392              		@ frame_needed = 0, uses_anonymous_args = 0
 393              		.loc 1 200 1 is_stmt 0 view .LVU78
 394 0000 00B5     		push	{lr}
 395              	.LCFI10:
 396              		.cfi_def_cfa_offset 4
 397              		.cfi_offset 14, -4
 398 0002 89B0     		sub	sp, sp, #36
 399              	.LCFI11:
 400              		.cfi_def_cfa_offset 40
 201:Core/Src/stm32f4xx_hal_msp.c ****   GPIO_InitTypeDef GPIO_InitStruct = {0};
 401              		.loc 1 201 3 is_stmt 1 view .LVU79
 402              		.loc 1 201 20 is_stmt 0 view .LVU80
 403 0004 0023     		movs	r3, #0
 404 0006 0393     		str	r3, [sp, #12]
 405 0008 0493     		str	r3, [sp, #16]
 406 000a 0593     		str	r3, [sp, #20]
 407 000c 0693     		str	r3, [sp, #24]
 408 000e 0793     		str	r3, [sp, #28]
 202:Core/Src/stm32f4xx_hal_msp.c ****   if(huart->Instance==USART2)
 409              		.loc 1 202 3 is_stmt 1 view .LVU81
ARM GAS  C:\Users\zacfi\AppData\Local\Temp\ccS8tvjk.s 			page 12


 410              		.loc 1 202 11 is_stmt 0 view .LVU82
 411 0010 0268     		ldr	r2, [r0]
 412              		.loc 1 202 5 view .LVU83
 413 0012 154B     		ldr	r3, .L38
 414 0014 9A42     		cmp	r2, r3
 415 0016 02D0     		beq	.L37
 416              	.LVL13:
 417              	.L34:
 203:Core/Src/stm32f4xx_hal_msp.c ****   {
 204:Core/Src/stm32f4xx_hal_msp.c ****   /* USER CODE BEGIN USART2_MspInit 0 */
 205:Core/Src/stm32f4xx_hal_msp.c **** 
 206:Core/Src/stm32f4xx_hal_msp.c ****   /* USER CODE END USART2_MspInit 0 */
 207:Core/Src/stm32f4xx_hal_msp.c ****     /* Peripheral clock enable */
 208:Core/Src/stm32f4xx_hal_msp.c ****     __HAL_RCC_USART2_CLK_ENABLE();
 209:Core/Src/stm32f4xx_hal_msp.c **** 
 210:Core/Src/stm32f4xx_hal_msp.c ****     __HAL_RCC_GPIOA_CLK_ENABLE();
 211:Core/Src/stm32f4xx_hal_msp.c ****     /**USART2 GPIO Configuration
 212:Core/Src/stm32f4xx_hal_msp.c ****     PA2     ------> USART2_TX
 213:Core/Src/stm32f4xx_hal_msp.c ****     PA3     ------> USART2_RX
 214:Core/Src/stm32f4xx_hal_msp.c ****     */
 215:Core/Src/stm32f4xx_hal_msp.c ****     GPIO_InitStruct.Pin = USART_TX_Pin|USART_RX_Pin;
 216:Core/Src/stm32f4xx_hal_msp.c ****     GPIO_InitStruct.Mode = GPIO_MODE_AF_PP;
 217:Core/Src/stm32f4xx_hal_msp.c ****     GPIO_InitStruct.Pull = GPIO_NOPULL;
 218:Core/Src/stm32f4xx_hal_msp.c ****     GPIO_InitStruct.Speed = GPIO_SPEED_FREQ_VERY_HIGH;
 219:Core/Src/stm32f4xx_hal_msp.c ****     GPIO_InitStruct.Alternate = GPIO_AF7_USART2;
 220:Core/Src/stm32f4xx_hal_msp.c ****     HAL_GPIO_Init(GPIOA, &GPIO_InitStruct);
 221:Core/Src/stm32f4xx_hal_msp.c **** 
 222:Core/Src/stm32f4xx_hal_msp.c ****   /* USER CODE BEGIN USART2_MspInit 1 */
 223:Core/Src/stm32f4xx_hal_msp.c **** 
 224:Core/Src/stm32f4xx_hal_msp.c ****   /* USER CODE END USART2_MspInit 1 */
 225:Core/Src/stm32f4xx_hal_msp.c ****   }
 226:Core/Src/stm32f4xx_hal_msp.c **** 
 227:Core/Src/stm32f4xx_hal_msp.c **** }
 418              		.loc 1 227 1 view .LVU84
 419 0018 09B0     		add	sp, sp, #36
 420              	.LCFI12:
 421              		.cfi_remember_state
 422              		.cfi_def_cfa_offset 4
 423              		@ sp needed
 424 001a 5DF804FB 		ldr	pc, [sp], #4
 425              	.LVL14:
 426              	.L37:
 427              	.LCFI13:
 428              		.cfi_restore_state
 208:Core/Src/stm32f4xx_hal_msp.c **** 
 429              		.loc 1 208 5 is_stmt 1 view .LVU85
 430              	.LBB7:
 208:Core/Src/stm32f4xx_hal_msp.c **** 
 431              		.loc 1 208 5 view .LVU86
 432 001e 0021     		movs	r1, #0
 433 0020 0191     		str	r1, [sp, #4]
 208:Core/Src/stm32f4xx_hal_msp.c **** 
 434              		.loc 1 208 5 view .LVU87
 435 0022 03F5FA33 		add	r3, r3, #128000
 436 0026 1A6C     		ldr	r2, [r3, #64]
 437 0028 42F40032 		orr	r2, r2, #131072
 438 002c 1A64     		str	r2, [r3, #64]
ARM GAS  C:\Users\zacfi\AppData\Local\Temp\ccS8tvjk.s 			page 13


 208:Core/Src/stm32f4xx_hal_msp.c **** 
 439              		.loc 1 208 5 view .LVU88
 440 002e 1A6C     		ldr	r2, [r3, #64]
 441 0030 02F40032 		and	r2, r2, #131072
 442 0034 0192     		str	r2, [sp, #4]
 208:Core/Src/stm32f4xx_hal_msp.c **** 
 443              		.loc 1 208 5 view .LVU89
 444 0036 019A     		ldr	r2, [sp, #4]
 445              	.LBE7:
 208:Core/Src/stm32f4xx_hal_msp.c **** 
 446              		.loc 1 208 5 view .LVU90
 210:Core/Src/stm32f4xx_hal_msp.c ****     /**USART2 GPIO Configuration
 447              		.loc 1 210 5 view .LVU91
 448              	.LBB8:
 210:Core/Src/stm32f4xx_hal_msp.c ****     /**USART2 GPIO Configuration
 449              		.loc 1 210 5 view .LVU92
 450 0038 0291     		str	r1, [sp, #8]
 210:Core/Src/stm32f4xx_hal_msp.c ****     /**USART2 GPIO Configuration
 451              		.loc 1 210 5 view .LVU93
 452 003a 1A6B     		ldr	r2, [r3, #48]
 453 003c 42F00102 		orr	r2, r2, #1
 454 0040 1A63     		str	r2, [r3, #48]
 210:Core/Src/stm32f4xx_hal_msp.c ****     /**USART2 GPIO Configuration
 455              		.loc 1 210 5 view .LVU94
 456 0042 1B6B     		ldr	r3, [r3, #48]
 457 0044 03F00103 		and	r3, r3, #1
 458 0048 0293     		str	r3, [sp, #8]
 210:Core/Src/stm32f4xx_hal_msp.c ****     /**USART2 GPIO Configuration
 459              		.loc 1 210 5 view .LVU95
 460 004a 029B     		ldr	r3, [sp, #8]
 461              	.LBE8:
 210:Core/Src/stm32f4xx_hal_msp.c ****     /**USART2 GPIO Configuration
 462              		.loc 1 210 5 view .LVU96
 215:Core/Src/stm32f4xx_hal_msp.c ****     GPIO_InitStruct.Mode = GPIO_MODE_AF_PP;
 463              		.loc 1 215 5 view .LVU97
 215:Core/Src/stm32f4xx_hal_msp.c ****     GPIO_InitStruct.Mode = GPIO_MODE_AF_PP;
 464              		.loc 1 215 25 is_stmt 0 view .LVU98
 465 004c 0C23     		movs	r3, #12
 466 004e 0393     		str	r3, [sp, #12]
 216:Core/Src/stm32f4xx_hal_msp.c ****     GPIO_InitStruct.Pull = GPIO_NOPULL;
 467              		.loc 1 216 5 is_stmt 1 view .LVU99
 216:Core/Src/stm32f4xx_hal_msp.c ****     GPIO_InitStruct.Pull = GPIO_NOPULL;
 468              		.loc 1 216 26 is_stmt 0 view .LVU100
 469 0050 0223     		movs	r3, #2
 470 0052 0493     		str	r3, [sp, #16]
 217:Core/Src/stm32f4xx_hal_msp.c ****     GPIO_InitStruct.Speed = GPIO_SPEED_FREQ_VERY_HIGH;
 471              		.loc 1 217 5 is_stmt 1 view .LVU101
 218:Core/Src/stm32f4xx_hal_msp.c ****     GPIO_InitStruct.Alternate = GPIO_AF7_USART2;
 472              		.loc 1 218 5 view .LVU102
 218:Core/Src/stm32f4xx_hal_msp.c ****     GPIO_InitStruct.Alternate = GPIO_AF7_USART2;
 473              		.loc 1 218 27 is_stmt 0 view .LVU103
 474 0054 0323     		movs	r3, #3
 475 0056 0693     		str	r3, [sp, #24]
 219:Core/Src/stm32f4xx_hal_msp.c ****     HAL_GPIO_Init(GPIOA, &GPIO_InitStruct);
 476              		.loc 1 219 5 is_stmt 1 view .LVU104
 219:Core/Src/stm32f4xx_hal_msp.c ****     HAL_GPIO_Init(GPIOA, &GPIO_InitStruct);
 477              		.loc 1 219 31 is_stmt 0 view .LVU105
ARM GAS  C:\Users\zacfi\AppData\Local\Temp\ccS8tvjk.s 			page 14


 478 0058 0723     		movs	r3, #7
 479 005a 0793     		str	r3, [sp, #28]
 220:Core/Src/stm32f4xx_hal_msp.c **** 
 480              		.loc 1 220 5 is_stmt 1 view .LVU106
 481 005c 03A9     		add	r1, sp, #12
 482 005e 0348     		ldr	r0, .L38+4
 483              	.LVL15:
 220:Core/Src/stm32f4xx_hal_msp.c **** 
 484              		.loc 1 220 5 is_stmt 0 view .LVU107
 485 0060 FFF7FEFF 		bl	HAL_GPIO_Init
 486              	.LVL16:
 487              		.loc 1 227 1 view .LVU108
 488 0064 D8E7     		b	.L34
 489              	.L39:
 490 0066 00BF     		.align	2
 491              	.L38:
 492 0068 00440040 		.word	1073759232
 493 006c 00000240 		.word	1073872896
 494              		.cfi_endproc
 495              	.LFE135:
 497              		.section	.text.HAL_UART_MspDeInit,"ax",%progbits
 498              		.align	1
 499              		.global	HAL_UART_MspDeInit
 500              		.syntax unified
 501              		.thumb
 502              		.thumb_func
 503              		.fpu fpv4-sp-d16
 505              	HAL_UART_MspDeInit:
 506              	.LVL17:
 507              	.LFB136:
 228:Core/Src/stm32f4xx_hal_msp.c **** 
 229:Core/Src/stm32f4xx_hal_msp.c **** /**
 230:Core/Src/stm32f4xx_hal_msp.c **** * @brief UART MSP De-Initialization
 231:Core/Src/stm32f4xx_hal_msp.c **** * This function freeze the hardware resources used in this example
 232:Core/Src/stm32f4xx_hal_msp.c **** * @param huart: UART handle pointer
 233:Core/Src/stm32f4xx_hal_msp.c **** * @retval None
 234:Core/Src/stm32f4xx_hal_msp.c **** */
 235:Core/Src/stm32f4xx_hal_msp.c **** void HAL_UART_MspDeInit(UART_HandleTypeDef* huart)
 236:Core/Src/stm32f4xx_hal_msp.c **** {
 508              		.loc 1 236 1 is_stmt 1 view -0
 509              		.cfi_startproc
 510              		@ args = 0, pretend = 0, frame = 0
 511              		@ frame_needed = 0, uses_anonymous_args = 0
 512              		.loc 1 236 1 is_stmt 0 view .LVU110
 513 0000 08B5     		push	{r3, lr}
 514              	.LCFI14:
 515              		.cfi_def_cfa_offset 8
 516              		.cfi_offset 3, -8
 517              		.cfi_offset 14, -4
 237:Core/Src/stm32f4xx_hal_msp.c ****   if(huart->Instance==USART2)
 518              		.loc 1 237 3 is_stmt 1 view .LVU111
 519              		.loc 1 237 11 is_stmt 0 view .LVU112
 520 0002 0268     		ldr	r2, [r0]
 521              		.loc 1 237 5 view .LVU113
 522 0004 064B     		ldr	r3, .L44
 523 0006 9A42     		cmp	r2, r3
 524 0008 00D0     		beq	.L43
ARM GAS  C:\Users\zacfi\AppData\Local\Temp\ccS8tvjk.s 			page 15


 525              	.LVL18:
 526              	.L40:
 238:Core/Src/stm32f4xx_hal_msp.c ****   {
 239:Core/Src/stm32f4xx_hal_msp.c ****   /* USER CODE BEGIN USART2_MspDeInit 0 */
 240:Core/Src/stm32f4xx_hal_msp.c **** 
 241:Core/Src/stm32f4xx_hal_msp.c ****   /* USER CODE END USART2_MspDeInit 0 */
 242:Core/Src/stm32f4xx_hal_msp.c ****     /* Peripheral clock disable */
 243:Core/Src/stm32f4xx_hal_msp.c ****     __HAL_RCC_USART2_CLK_DISABLE();
 244:Core/Src/stm32f4xx_hal_msp.c **** 
 245:Core/Src/stm32f4xx_hal_msp.c ****     /**USART2 GPIO Configuration
 246:Core/Src/stm32f4xx_hal_msp.c ****     PA2     ------> USART2_TX
 247:Core/Src/stm32f4xx_hal_msp.c ****     PA3     ------> USART2_RX
 248:Core/Src/stm32f4xx_hal_msp.c ****     */
 249:Core/Src/stm32f4xx_hal_msp.c ****     HAL_GPIO_DeInit(GPIOA, USART_TX_Pin|USART_RX_Pin);
 250:Core/Src/stm32f4xx_hal_msp.c **** 
 251:Core/Src/stm32f4xx_hal_msp.c ****   /* USER CODE BEGIN USART2_MspDeInit 1 */
 252:Core/Src/stm32f4xx_hal_msp.c **** 
 253:Core/Src/stm32f4xx_hal_msp.c ****   /* USER CODE END USART2_MspDeInit 1 */
 254:Core/Src/stm32f4xx_hal_msp.c ****   }
 255:Core/Src/stm32f4xx_hal_msp.c **** 
 256:Core/Src/stm32f4xx_hal_msp.c **** }
 527              		.loc 1 256 1 view .LVU114
 528 000a 08BD     		pop	{r3, pc}
 529              	.LVL19:
 530              	.L43:
 243:Core/Src/stm32f4xx_hal_msp.c **** 
 531              		.loc 1 243 5 is_stmt 1 view .LVU115
 532 000c 054A     		ldr	r2, .L44+4
 533 000e 136C     		ldr	r3, [r2, #64]
 534 0010 23F40033 		bic	r3, r3, #131072
 535 0014 1364     		str	r3, [r2, #64]
 249:Core/Src/stm32f4xx_hal_msp.c **** 
 536              		.loc 1 249 5 view .LVU116
 537 0016 0C21     		movs	r1, #12
 538 0018 0348     		ldr	r0, .L44+8
 539              	.LVL20:
 249:Core/Src/stm32f4xx_hal_msp.c **** 
 540              		.loc 1 249 5 is_stmt 0 view .LVU117
 541 001a FFF7FEFF 		bl	HAL_GPIO_DeInit
 542              	.LVL21:
 543              		.loc 1 256 1 view .LVU118
 544 001e F4E7     		b	.L40
 545              	.L45:
 546              		.align	2
 547              	.L44:
 548 0020 00440040 		.word	1073759232
 549 0024 00380240 		.word	1073887232
 550 0028 00000240 		.word	1073872896
 551              		.cfi_endproc
 552              	.LFE136:
 554              		.text
 555              	.Letext0:
 556              		.file 2 "c:\\gnu\\gnu_arm_embedded_toolchain\\10-2020-q4-major\\arm-none-eabi\\include\\machine\\_
 557              		.file 3 "c:\\gnu\\gnu_arm_embedded_toolchain\\10-2020-q4-major\\arm-none-eabi\\include\\sys\\_stdi
 558              		.file 4 "Drivers/CMSIS/Device/ST/STM32F4xx/Include/stm32f446xx.h"
 559              		.file 5 "Drivers/STM32F4xx_HAL_Driver/Inc/stm32f4xx_hal_def.h"
 560              		.file 6 "Drivers/STM32F4xx_HAL_Driver/Inc/stm32f4xx_hal_gpio.h"
ARM GAS  C:\Users\zacfi\AppData\Local\Temp\ccS8tvjk.s 			page 16


 561              		.file 7 "Drivers/STM32F4xx_HAL_Driver/Inc/stm32f4xx_hal_dma.h"
 562              		.file 8 "Drivers/STM32F4xx_HAL_Driver/Inc/stm32f4xx_hal_crc.h"
 563              		.file 9 "Drivers/STM32F4xx_HAL_Driver/Inc/stm32f4xx_hal_i2c.h"
 564              		.file 10 "Drivers/STM32F4xx_HAL_Driver/Inc/stm32f4xx_hal_uart.h"
 565              		.file 11 "Drivers/STM32F4xx_HAL_Driver/Inc/stm32f4xx_hal_cortex.h"
ARM GAS  C:\Users\zacfi\AppData\Local\Temp\ccS8tvjk.s 			page 17

