ARM GAS  C:\Users\zacfi\AppData\Local\Temp\ccP3vujd.s 			page 1


   1              		.cpu cortex-m4
   2              		.eabi_attribute 27, 1
   3              		.eabi_attribute 28, 1
   4              		.eabi_attribute 20, 1
   5              		.eabi_attribute 21, 1
   6              		.eabi_attribute 23, 3
   7              		.eabi_attribute 24, 1
   8              		.eabi_attribute 25, 1
   9              		.eabi_attribute 26, 1
  10              		.eabi_attribute 30, 1
  11              		.eabi_attribute 34, 1
  12              		.eabi_attribute 18, 4
  13              		.file	"adxl345.c"
  14              		.text
  15              	.Ltext0:
  16              		.cfi_sections	.debug_frame
  17              		.section	.text.setTargetDeviceAddress,"ax",%progbits
  18              		.align	1
  19              		.global	setTargetDeviceAddress
  20              		.arch armv7e-m
  21              		.syntax unified
  22              		.thumb
  23              		.thumb_func
  24              		.fpu fpv4-sp-d16
  26              	setTargetDeviceAddress:
  27              	.LVL0:
  28              	.LFB130:
  29              		.file 1 "Core/Src/adxl345.c"
   1:Core/Src/adxl345.c **** #include "adxl345.h"
   2:Core/Src/adxl345.c **** 
   3:Core/Src/adxl345.c **** //Buffer to perform operation
   4:Core/Src/adxl345.c **** uint8_t _buff[6];
   5:Core/Src/adxl345.c **** //Status variable
   6:Core/Src/adxl345.c **** HAL_StatusTypeDef _status;
   7:Core/Src/adxl345.c **** 
   8:Core/Src/adxl345.c **** 
   9:Core/Src/adxl345.c **** void setTargetDeviceAddress(I2C_HandleTypeDef *hi2c, uint16_t address){
  30              		.loc 1 9 71 view -0
  31              		.cfi_startproc
  32              		@ args = 0, pretend = 0, frame = 0
  33              		@ frame_needed = 0, uses_anonymous_args = 0
  34              		@ link register save eliminated.
  10:Core/Src/adxl345.c ****     hi2c->Devaddress = address;
  35              		.loc 1 10 5 view .LVU1
  36              		.loc 1 10 22 is_stmt 0 view .LVU2
  37 0000 4164     		str	r1, [r0, #68]
  11:Core/Src/adxl345.c **** }
  38              		.loc 1 11 1 view .LVU3
  39 0002 7047     		bx	lr
  40              		.cfi_endproc
  41              	.LFE130:
  43              		.section	.text.AccelWrite,"ax",%progbits
  44              		.align	1
  45              		.global	AccelWrite
  46              		.syntax unified
  47              		.thumb
  48              		.thumb_func
ARM GAS  C:\Users\zacfi\AppData\Local\Temp\ccP3vujd.s 			page 2


  49              		.fpu fpv4-sp-d16
  51              	AccelWrite:
  52              	.LVL1:
  53              	.LFB133:
  12:Core/Src/adxl345.c **** 
  13:Core/Src/adxl345.c **** HAL_StatusTypeDef AccelInit(I2C_HandleTypeDef *hi2c){
  14:Core/Src/adxl345.c ****     HAL_StatusTypeDef status;
  15:Core/Src/adxl345.c **** 	status = AccelWrite (hi2c, 0x2d, 0x00);  // reset all bits
  16:Core/Src/adxl345.c ****     if(status != HAL_OK){
  17:Core/Src/adxl345.c ****         return status;
  18:Core/Src/adxl345.c ****     }
  19:Core/Src/adxl345.c **** 	status = AccelWrite (hi2c, 0x2d, 0x08);  // power_cntl measure and wake up 8hz*/
  20:Core/Src/adxl345.c ****     if(status != HAL_OK){
  21:Core/Src/adxl345.c ****         return status;
  22:Core/Src/adxl345.c ****     }
  23:Core/Src/adxl345.c **** 	AccelWrite (hi2c, 0x31, 0x00);  // data_format range= +- 2g
  24:Core/Src/adxl345.c **** 	//AccelWrite (0x2c, 0x0d);  // 800 hz output data rate
  25:Core/Src/adxl345.c ****     return status;
  26:Core/Src/adxl345.c **** }
  27:Core/Src/adxl345.c **** 
  28:Core/Src/adxl345.c **** HAL_StatusTypeDef getAccelerations(I2C_HandleTypeDef *hi2c, Accelerations *accelerations) {
  29:Core/Src/adxl345.c ****     _status = AccelReadData(hi2c, _buff, 0x32, 6);
  30:Core/Src/adxl345.c ****     if(_status == HAL_OK){
  31:Core/Src/adxl345.c ****         accelerations->x = ((int16_t)_buff[1] << 8) + (int16_t)_buff[0];
  32:Core/Src/adxl345.c ****         accelerations->y = ((int16_t)_buff[3] << 8) + (int16_t)_buff[2];
  33:Core/Src/adxl345.c ****         accelerations->z = ((int16_t)_buff[5] << 8) + (int16_t)_buff[4];
  34:Core/Src/adxl345.c ****     }
  35:Core/Src/adxl345.c ****     return _status;
  36:Core/Src/adxl345.c **** }
  37:Core/Src/adxl345.c **** 
  38:Core/Src/adxl345.c **** HAL_StatusTypeDef AccelWrite(I2C_HandleTypeDef *hi2c, uint8_t reg, uint8_t value) {
  54              		.loc 1 38 83 is_stmt 1 view -0
  55              		.cfi_startproc
  56              		@ args = 0, pretend = 0, frame = 8
  57              		@ frame_needed = 0, uses_anonymous_args = 0
  58              		.loc 1 38 83 is_stmt 0 view .LVU5
  59 0000 00B5     		push	{lr}
  60              	.LCFI0:
  61              		.cfi_def_cfa_offset 4
  62              		.cfi_offset 14, -4
  63 0002 85B0     		sub	sp, sp, #20
  64              	.LCFI1:
  65              		.cfi_def_cfa_offset 24
  39:Core/Src/adxl345.c ****     uint8_t data[2] = {reg, value};
  66              		.loc 1 39 5 is_stmt 1 view .LVU6
  67              		.loc 1 39 13 is_stmt 0 view .LVU7
  68 0004 8DF80C10 		strb	r1, [sp, #12]
  69 0008 8DF80D20 		strb	r2, [sp, #13]
  40:Core/Src/adxl345.c ****     return HAL_I2C_Master_Transmit(hi2c, hi2c->Devaddress, data, 2, 100);
  70              		.loc 1 40 5 is_stmt 1 view .LVU8
  71              		.loc 1 40 46 is_stmt 0 view .LVU9
  72 000c 416C     		ldr	r1, [r0, #68]
  73              	.LVL2:
  74              		.loc 1 40 12 view .LVU10
  75 000e 6423     		movs	r3, #100
  76 0010 0093     		str	r3, [sp]
  77 0012 0223     		movs	r3, #2
ARM GAS  C:\Users\zacfi\AppData\Local\Temp\ccP3vujd.s 			page 3


  78 0014 03AA     		add	r2, sp, #12
  79              	.LVL3:
  80              		.loc 1 40 12 view .LVU11
  81 0016 89B2     		uxth	r1, r1
  82 0018 FFF7FEFF 		bl	HAL_I2C_Master_Transmit
  83              	.LVL4:
  41:Core/Src/adxl345.c **** }
  84              		.loc 1 41 1 view .LVU12
  85 001c 05B0     		add	sp, sp, #20
  86              	.LCFI2:
  87              		.cfi_def_cfa_offset 4
  88              		@ sp needed
  89 001e 5DF804FB 		ldr	pc, [sp], #4
  90              		.cfi_endproc
  91              	.LFE133:
  93              		.section	.text.AccelInit,"ax",%progbits
  94              		.align	1
  95              		.global	AccelInit
  96              		.syntax unified
  97              		.thumb
  98              		.thumb_func
  99              		.fpu fpv4-sp-d16
 101              	AccelInit:
 102              	.LVL5:
 103              	.LFB131:
  13:Core/Src/adxl345.c ****     HAL_StatusTypeDef status;
 104              		.loc 1 13 53 is_stmt 1 view -0
 105              		.cfi_startproc
 106              		@ args = 0, pretend = 0, frame = 0
 107              		@ frame_needed = 0, uses_anonymous_args = 0
  13:Core/Src/adxl345.c ****     HAL_StatusTypeDef status;
 108              		.loc 1 13 53 is_stmt 0 view .LVU14
 109 0000 38B5     		push	{r3, r4, r5, lr}
 110              	.LCFI3:
 111              		.cfi_def_cfa_offset 16
 112              		.cfi_offset 3, -16
 113              		.cfi_offset 4, -12
 114              		.cfi_offset 5, -8
 115              		.cfi_offset 14, -4
 116 0002 0446     		mov	r4, r0
  14:Core/Src/adxl345.c **** 	status = AccelWrite (hi2c, 0x2d, 0x00);  // reset all bits
 117              		.loc 1 14 5 is_stmt 1 view .LVU15
  15:Core/Src/adxl345.c ****     if(status != HAL_OK){
 118              		.loc 1 15 2 view .LVU16
  15:Core/Src/adxl345.c ****     if(status != HAL_OK){
 119              		.loc 1 15 11 is_stmt 0 view .LVU17
 120 0004 0022     		movs	r2, #0
 121 0006 2D21     		movs	r1, #45
 122 0008 FFF7FEFF 		bl	AccelWrite
 123              	.LVL6:
  16:Core/Src/adxl345.c ****         return status;
 124              		.loc 1 16 5 is_stmt 1 view .LVU18
  16:Core/Src/adxl345.c ****         return status;
 125              		.loc 1 16 7 is_stmt 0 view .LVU19
 126 000c 0546     		mov	r5, r0
 127 000e 08B1     		cbz	r0, .L7
 128              	.LVL7:
ARM GAS  C:\Users\zacfi\AppData\Local\Temp\ccP3vujd.s 			page 4


 129              	.L5:
  26:Core/Src/adxl345.c **** 
 130              		.loc 1 26 1 view .LVU20
 131 0010 2846     		mov	r0, r5
 132 0012 38BD     		pop	{r3, r4, r5, pc}
 133              	.LVL8:
 134              	.L7:
  19:Core/Src/adxl345.c ****     if(status != HAL_OK){
 135              		.loc 1 19 2 is_stmt 1 view .LVU21
  19:Core/Src/adxl345.c ****     if(status != HAL_OK){
 136              		.loc 1 19 11 is_stmt 0 view .LVU22
 137 0014 0822     		movs	r2, #8
 138 0016 2D21     		movs	r1, #45
 139 0018 2046     		mov	r0, r4
 140              	.LVL9:
  19:Core/Src/adxl345.c ****     if(status != HAL_OK){
 141              		.loc 1 19 11 view .LVU23
 142 001a FFF7FEFF 		bl	AccelWrite
 143              	.LVL10:
  20:Core/Src/adxl345.c ****         return status;
 144              		.loc 1 20 5 is_stmt 1 view .LVU24
  20:Core/Src/adxl345.c ****         return status;
 145              		.loc 1 20 7 is_stmt 0 view .LVU25
 146 001e 0546     		mov	r5, r0
 147 0020 0028     		cmp	r0, #0
 148 0022 F5D1     		bne	.L5
  23:Core/Src/adxl345.c **** 	//AccelWrite (0x2c, 0x0d);  // 800 hz output data rate
 149              		.loc 1 23 2 is_stmt 1 view .LVU26
 150 0024 0022     		movs	r2, #0
 151 0026 3121     		movs	r1, #49
 152 0028 2046     		mov	r0, r4
 153              	.LVL11:
  23:Core/Src/adxl345.c **** 	//AccelWrite (0x2c, 0x0d);  // 800 hz output data rate
 154              		.loc 1 23 2 is_stmt 0 view .LVU27
 155 002a FFF7FEFF 		bl	AccelWrite
 156              	.LVL12:
  25:Core/Src/adxl345.c **** }
 157              		.loc 1 25 5 is_stmt 1 view .LVU28
  25:Core/Src/adxl345.c **** }
 158              		.loc 1 25 12 is_stmt 0 view .LVU29
 159 002e EFE7     		b	.L5
 160              		.cfi_endproc
 161              	.LFE131:
 163              		.section	.text.AccelReadData,"ax",%progbits
 164              		.align	1
 165              		.global	AccelReadData
 166              		.syntax unified
 167              		.thumb
 168              		.thumb_func
 169              		.fpu fpv4-sp-d16
 171              	AccelReadData:
 172              	.LVL13:
 173              	.LFB134:
  42:Core/Src/adxl345.c **** 
  43:Core/Src/adxl345.c **** HAL_StatusTypeDef AccelReadData(I2C_HandleTypeDef *hi2c, uint8_t *buffer, uint8_t reg, int nb_byte)
 174              		.loc 1 43 101 is_stmt 1 view -0
 175              		.cfi_startproc
ARM GAS  C:\Users\zacfi\AppData\Local\Temp\ccP3vujd.s 			page 5


 176              		@ args = 0, pretend = 0, frame = 0
 177              		@ frame_needed = 0, uses_anonymous_args = 0
 178              		.loc 1 43 101 is_stmt 0 view .LVU31
 179 0000 30B5     		push	{r4, r5, lr}
 180              	.LCFI4:
 181              		.cfi_def_cfa_offset 12
 182              		.cfi_offset 4, -12
 183              		.cfi_offset 5, -8
 184              		.cfi_offset 14, -4
 185 0002 85B0     		sub	sp, sp, #20
 186              	.LCFI5:
 187              		.cfi_def_cfa_offset 32
  44:Core/Src/adxl345.c ****     return HAL_I2C_Mem_Read(hi2c, hi2c->Devaddress, reg, 1, buffer, nb_byte, 100);
 188              		.loc 1 44 5 is_stmt 1 view .LVU32
 189              		.loc 1 44 39 is_stmt 0 view .LVU33
 190 0004 446C     		ldr	r4, [r0, #68]
 191              		.loc 1 44 12 view .LVU34
 192 0006 6425     		movs	r5, #100
 193 0008 0295     		str	r5, [sp, #8]
 194 000a 9BB2     		uxth	r3, r3
 195              	.LVL14:
 196              		.loc 1 44 12 view .LVU35
 197 000c 0193     		str	r3, [sp, #4]
 198 000e 0091     		str	r1, [sp]
 199 0010 0123     		movs	r3, #1
 200 0012 A1B2     		uxth	r1, r4
 201              	.LVL15:
 202              		.loc 1 44 12 view .LVU36
 203 0014 FFF7FEFF 		bl	HAL_I2C_Mem_Read
 204              	.LVL16:
  45:Core/Src/adxl345.c **** }
 205              		.loc 1 45 1 view .LVU37
 206 0018 05B0     		add	sp, sp, #20
 207              	.LCFI6:
 208              		.cfi_def_cfa_offset 12
 209              		@ sp needed
 210 001a 30BD     		pop	{r4, r5, pc}
 211              		.cfi_endproc
 212              	.LFE134:
 214              		.section	.text.getAccelerations,"ax",%progbits
 215              		.align	1
 216              		.global	getAccelerations
 217              		.syntax unified
 218              		.thumb
 219              		.thumb_func
 220              		.fpu fpv4-sp-d16
 222              	getAccelerations:
 223              	.LVL17:
 224              	.LFB132:
  28:Core/Src/adxl345.c ****     _status = AccelReadData(hi2c, _buff, 0x32, 6);
 225              		.loc 1 28 91 is_stmt 1 view -0
 226              		.cfi_startproc
 227              		@ args = 0, pretend = 0, frame = 0
 228              		@ frame_needed = 0, uses_anonymous_args = 0
  28:Core/Src/adxl345.c ****     _status = AccelReadData(hi2c, _buff, 0x32, 6);
 229              		.loc 1 28 91 is_stmt 0 view .LVU39
 230 0000 10B5     		push	{r4, lr}
ARM GAS  C:\Users\zacfi\AppData\Local\Temp\ccP3vujd.s 			page 6


 231              	.LCFI7:
 232              		.cfi_def_cfa_offset 8
 233              		.cfi_offset 4, -8
 234              		.cfi_offset 14, -4
 235 0002 0C46     		mov	r4, r1
  29:Core/Src/adxl345.c ****     if(_status == HAL_OK){
 236              		.loc 1 29 5 is_stmt 1 view .LVU40
  29:Core/Src/adxl345.c ****     if(_status == HAL_OK){
 237              		.loc 1 29 15 is_stmt 0 view .LVU41
 238 0004 0623     		movs	r3, #6
 239 0006 3222     		movs	r2, #50
 240 0008 0C49     		ldr	r1, .L13
 241              	.LVL18:
  29:Core/Src/adxl345.c ****     if(_status == HAL_OK){
 242              		.loc 1 29 15 view .LVU42
 243 000a FFF7FEFF 		bl	AccelReadData
 244              	.LVL19:
  29:Core/Src/adxl345.c ****     if(_status == HAL_OK){
 245              		.loc 1 29 13 view .LVU43
 246 000e 0C4B     		ldr	r3, .L13+4
 247 0010 1870     		strb	r0, [r3]
  30:Core/Src/adxl345.c ****         accelerations->x = ((int16_t)_buff[1] << 8) + (int16_t)_buff[0];
 248              		.loc 1 30 5 is_stmt 1 view .LVU44
  30:Core/Src/adxl345.c ****         accelerations->x = ((int16_t)_buff[1] << 8) + (int16_t)_buff[0];
 249              		.loc 1 30 7 is_stmt 0 view .LVU45
 250 0012 78B9     		cbnz	r0, .L11
  31:Core/Src/adxl345.c ****         accelerations->y = ((int16_t)_buff[3] << 8) + (int16_t)_buff[2];
 251              		.loc 1 31 9 is_stmt 1 view .LVU46
  31:Core/Src/adxl345.c ****         accelerations->y = ((int16_t)_buff[3] << 8) + (int16_t)_buff[2];
 252              		.loc 1 31 43 is_stmt 0 view .LVU47
 253 0014 094B     		ldr	r3, .L13
 254 0016 5978     		ldrb	r1, [r3, #1]	@ zero_extendqisi2
  31:Core/Src/adxl345.c ****         accelerations->y = ((int16_t)_buff[3] << 8) + (int16_t)_buff[2];
 255              		.loc 1 31 69 view .LVU48
 256 0018 1A78     		ldrb	r2, [r3]	@ zero_extendqisi2
  31:Core/Src/adxl345.c ****         accelerations->y = ((int16_t)_buff[3] << 8) + (int16_t)_buff[2];
 257              		.loc 1 31 53 view .LVU49
 258 001a 02EB0122 		add	r2, r2, r1, lsl #8
  31:Core/Src/adxl345.c ****         accelerations->y = ((int16_t)_buff[3] << 8) + (int16_t)_buff[2];
 259              		.loc 1 31 26 view .LVU50
 260 001e 2280     		strh	r2, [r4]	@ movhi
  32:Core/Src/adxl345.c ****         accelerations->z = ((int16_t)_buff[5] << 8) + (int16_t)_buff[4];
 261              		.loc 1 32 9 is_stmt 1 view .LVU51
  32:Core/Src/adxl345.c ****         accelerations->z = ((int16_t)_buff[5] << 8) + (int16_t)_buff[4];
 262              		.loc 1 32 43 is_stmt 0 view .LVU52
 263 0020 D978     		ldrb	r1, [r3, #3]	@ zero_extendqisi2
  32:Core/Src/adxl345.c ****         accelerations->z = ((int16_t)_buff[5] << 8) + (int16_t)_buff[4];
 264              		.loc 1 32 69 view .LVU53
 265 0022 9A78     		ldrb	r2, [r3, #2]	@ zero_extendqisi2
  32:Core/Src/adxl345.c ****         accelerations->z = ((int16_t)_buff[5] << 8) + (int16_t)_buff[4];
 266              		.loc 1 32 53 view .LVU54
 267 0024 02EB0122 		add	r2, r2, r1, lsl #8
  32:Core/Src/adxl345.c ****         accelerations->z = ((int16_t)_buff[5] << 8) + (int16_t)_buff[4];
 268              		.loc 1 32 26 view .LVU55
 269 0028 6280     		strh	r2, [r4, #2]	@ movhi
  33:Core/Src/adxl345.c ****     }
 270              		.loc 1 33 9 is_stmt 1 view .LVU56
ARM GAS  C:\Users\zacfi\AppData\Local\Temp\ccP3vujd.s 			page 7


  33:Core/Src/adxl345.c ****     }
 271              		.loc 1 33 43 is_stmt 0 view .LVU57
 272 002a 5A79     		ldrb	r2, [r3, #5]	@ zero_extendqisi2
  33:Core/Src/adxl345.c ****     }
 273              		.loc 1 33 69 view .LVU58
 274 002c 1B79     		ldrb	r3, [r3, #4]	@ zero_extendqisi2
  33:Core/Src/adxl345.c ****     }
 275              		.loc 1 33 53 view .LVU59
 276 002e 03EB0223 		add	r3, r3, r2, lsl #8
  33:Core/Src/adxl345.c ****     }
 277              		.loc 1 33 26 view .LVU60
 278 0032 A380     		strh	r3, [r4, #4]	@ movhi
 279              	.L11:
  35:Core/Src/adxl345.c **** }
 280              		.loc 1 35 5 is_stmt 1 view .LVU61
  36:Core/Src/adxl345.c **** 
 281              		.loc 1 36 1 is_stmt 0 view .LVU62
 282 0034 024B     		ldr	r3, .L13+4
 283 0036 1878     		ldrb	r0, [r3]	@ zero_extendqisi2
 284 0038 10BD     		pop	{r4, pc}
 285              	.LVL20:
 286              	.L14:
  36:Core/Src/adxl345.c **** 
 287              		.loc 1 36 1 view .LVU63
 288 003a 00BF     		.align	2
 289              	.L13:
 290 003c 00000000 		.word	.LANCHOR0
 291 0040 00000000 		.word	.LANCHOR1
 292              		.cfi_endproc
 293              	.LFE132:
 295              		.section	.text.AccelGetId,"ax",%progbits
 296              		.align	1
 297              		.global	AccelGetId
 298              		.syntax unified
 299              		.thumb
 300              		.thumb_func
 301              		.fpu fpv4-sp-d16
 303              	AccelGetId:
 304              	.LVL21:
 305              	.LFB135:
  46:Core/Src/adxl345.c **** 
  47:Core/Src/adxl345.c **** HAL_StatusTypeDef AccelGetId(I2C_HandleTypeDef *hi2c, int *id){
 306              		.loc 1 47 63 is_stmt 1 view -0
 307              		.cfi_startproc
 308              		@ args = 0, pretend = 0, frame = 0
 309              		@ frame_needed = 0, uses_anonymous_args = 0
 310              		.loc 1 47 63 is_stmt 0 view .LVU65
 311 0000 08B5     		push	{r3, lr}
 312              	.LCFI8:
 313              		.cfi_def_cfa_offset 8
 314              		.cfi_offset 3, -8
 315              		.cfi_offset 14, -4
  48:Core/Src/adxl345.c ****     return AccelReadData(hi2c, (uint8_t *)id, 0x00, 1);
 316              		.loc 1 48 5 is_stmt 1 view .LVU66
 317              		.loc 1 48 12 is_stmt 0 view .LVU67
 318 0002 0123     		movs	r3, #1
 319 0004 0022     		movs	r2, #0
ARM GAS  C:\Users\zacfi\AppData\Local\Temp\ccP3vujd.s 			page 8


 320 0006 FFF7FEFF 		bl	AccelReadData
 321              	.LVL22:
  49:Core/Src/adxl345.c **** }...
 322              		.loc 1 49 1 view .LVU68
 323 000a 08BD     		pop	{r3, pc}
 324              		.cfi_endproc
 325              	.LFE135:
 327              		.global	_status
 328              		.global	_buff
 329              		.section	.bss._buff,"aw",%nobits
 330              		.align	2
 331              		.set	.LANCHOR0,. + 0
 334              	_buff:
 335 0000 00000000 		.space	6
 335      0000
 336              		.section	.bss._status,"aw",%nobits
 337              		.set	.LANCHOR1,. + 0
 340              	_status:
 341 0000 00       		.space	1
 342              		.text
 343              	.Letext0:
 344              		.file 2 "c:\\gnu\\gnu_arm_embedded_toolchain\\10-2020-q4-major\\arm-none-eabi\\include\\machine\\_
 345              		.file 3 "c:\\gnu\\gnu_arm_embedded_toolchain\\10-2020-q4-major\\arm-none-eabi\\include\\sys\\_stdi
 346              		.file 4 "Drivers/CMSIS/Device/ST/STM32F4xx/Include/stm32f446xx.h"
 347              		.file 5 "Drivers/STM32F4xx_HAL_Driver/Inc/stm32f4xx_hal_def.h"
 348              		.file 6 "Drivers/STM32F4xx_HAL_Driver/Inc/stm32f4xx_hal_dma.h"
 349              		.file 7 "Drivers/STM32F4xx_HAL_Driver/Inc/stm32f4xx_hal_i2c.h"
 350              		.file 8 "Core/Inc/adxl345.h"
ARM GAS  C:\Users\zacfi\AppData\Local\Temp\ccP3vujd.s 			page 9

