ARM GAS  C:\Users\zacfi\AppData\Local\Temp\ccKqD0lb.s 			page 1


   1              		.cpu cortex-m4
   2              		.eabi_attribute 27, 1
   3              		.eabi_attribute 28, 1
   4              		.eabi_attribute 20, 1
   5              		.eabi_attribute 21, 1
   6              		.eabi_attribute 23, 3
   7              		.eabi_attribute 24, 1
   8              		.eabi_attribute 25, 1
   9              		.eabi_attribute 26, 1
  10              		.eabi_attribute 30, 1
  11              		.eabi_attribute 34, 1
  12              		.eabi_attribute 18, 4
  13              		.file	"i2c.c"
  14              		.text
  15              	.Ltext0:
  16              		.cfi_sections	.debug_frame
  17              		.section	.text.MX_I2C1_Init,"ax",%progbits
  18              		.align	1
  19              		.global	MX_I2C1_Init
  20              		.arch armv7e-m
  21              		.syntax unified
  22              		.thumb
  23              		.thumb_func
  24              		.fpu fpv4-sp-d16
  26              	MX_I2C1_Init:
  27              	.LFB130:
  28              		.file 1 "Core/Src/i2c.c"
   1:Core/Src/i2c.c **** /**
   2:Core/Src/i2c.c ****   ******************************************************************************
   3:Core/Src/i2c.c ****   * @file    i2c.c
   4:Core/Src/i2c.c ****   * @brief   This file provides code for the configuration
   5:Core/Src/i2c.c ****   *          of the I2C instances.
   6:Core/Src/i2c.c ****   ******************************************************************************
   7:Core/Src/i2c.c ****   * @attention
   8:Core/Src/i2c.c ****   *
   9:Core/Src/i2c.c ****   * <h2><center>&copy; Copyright (c) 2021 STMicroelectronics.
  10:Core/Src/i2c.c ****   * All rights reserved.</center></h2>
  11:Core/Src/i2c.c ****   *
  12:Core/Src/i2c.c ****   * This software component is licensed by ST under BSD 3-Clause license,
  13:Core/Src/i2c.c ****   * the "License"; You may not use this file except in compliance with the
  14:Core/Src/i2c.c ****   * License. You may obtain a copy of the License at:
  15:Core/Src/i2c.c ****   *                        opensource.org/licenses/BSD-3-Clause
  16:Core/Src/i2c.c ****   *
  17:Core/Src/i2c.c ****   ******************************************************************************
  18:Core/Src/i2c.c ****   */
  19:Core/Src/i2c.c **** 
  20:Core/Src/i2c.c **** /* Includes ------------------------------------------------------------------*/
  21:Core/Src/i2c.c **** #include "i2c.h"
  22:Core/Src/i2c.c **** 
  23:Core/Src/i2c.c **** /* USER CODE BEGIN 0 */
  24:Core/Src/i2c.c **** 
  25:Core/Src/i2c.c **** /* USER CODE END 0 */
  26:Core/Src/i2c.c **** 
  27:Core/Src/i2c.c **** I2C_HandleTypeDef hi2c1;
  28:Core/Src/i2c.c **** 
  29:Core/Src/i2c.c **** /* I2C1 init function */
  30:Core/Src/i2c.c **** void MX_I2C1_Init(void)
ARM GAS  C:\Users\zacfi\AppData\Local\Temp\ccKqD0lb.s 			page 2


  31:Core/Src/i2c.c **** {
  29              		.loc 1 31 1 view -0
  30              		.cfi_startproc
  31              		@ args = 0, pretend = 0, frame = 0
  32              		@ frame_needed = 0, uses_anonymous_args = 0
  33 0000 08B5     		push	{r3, lr}
  34              	.LCFI0:
  35              		.cfi_def_cfa_offset 8
  36              		.cfi_offset 3, -8
  37              		.cfi_offset 14, -4
  32:Core/Src/i2c.c **** 
  33:Core/Src/i2c.c ****   /* USER CODE BEGIN I2C1_Init 0 */
  34:Core/Src/i2c.c **** 
  35:Core/Src/i2c.c ****   /* USER CODE END I2C1_Init 0 */
  36:Core/Src/i2c.c **** 
  37:Core/Src/i2c.c ****   /* USER CODE BEGIN I2C1_Init 1 */
  38:Core/Src/i2c.c **** 
  39:Core/Src/i2c.c ****   /* USER CODE END I2C1_Init 1 */
  40:Core/Src/i2c.c ****   hi2c1.Instance = I2C1;
  38              		.loc 1 40 3 view .LVU1
  39              		.loc 1 40 18 is_stmt 0 view .LVU2
  40 0002 0B48     		ldr	r0, .L5
  41 0004 0B4B     		ldr	r3, .L5+4
  42 0006 0360     		str	r3, [r0]
  41:Core/Src/i2c.c ****   hi2c1.Init.ClockSpeed = 100000;
  43              		.loc 1 41 3 is_stmt 1 view .LVU3
  44              		.loc 1 41 25 is_stmt 0 view .LVU4
  45 0008 0B4B     		ldr	r3, .L5+8
  46 000a 4360     		str	r3, [r0, #4]
  42:Core/Src/i2c.c ****   hi2c1.Init.DutyCycle = I2C_DUTYCYCLE_2;
  47              		.loc 1 42 3 is_stmt 1 view .LVU5
  48              		.loc 1 42 24 is_stmt 0 view .LVU6
  49 000c 0023     		movs	r3, #0
  50 000e 8360     		str	r3, [r0, #8]
  43:Core/Src/i2c.c ****   hi2c1.Init.OwnAddress1 = 58;
  51              		.loc 1 43 3 is_stmt 1 view .LVU7
  52              		.loc 1 43 26 is_stmt 0 view .LVU8
  53 0010 3A22     		movs	r2, #58
  54 0012 C260     		str	r2, [r0, #12]
  44:Core/Src/i2c.c ****   hi2c1.Init.AddressingMode = I2C_ADDRESSINGMODE_7BIT;
  55              		.loc 1 44 3 is_stmt 1 view .LVU9
  56              		.loc 1 44 29 is_stmt 0 view .LVU10
  57 0014 4FF48042 		mov	r2, #16384
  58 0018 0261     		str	r2, [r0, #16]
  45:Core/Src/i2c.c ****   hi2c1.Init.DualAddressMode = I2C_DUALADDRESS_DISABLE;
  59              		.loc 1 45 3 is_stmt 1 view .LVU11
  60              		.loc 1 45 30 is_stmt 0 view .LVU12
  61 001a 4361     		str	r3, [r0, #20]
  46:Core/Src/i2c.c ****   hi2c1.Init.OwnAddress2 = 0;
  62              		.loc 1 46 3 is_stmt 1 view .LVU13
  63              		.loc 1 46 26 is_stmt 0 view .LVU14
  64 001c 8361     		str	r3, [r0, #24]
  47:Core/Src/i2c.c ****   hi2c1.Init.GeneralCallMode = I2C_GENERALCALL_DISABLE;
  65              		.loc 1 47 3 is_stmt 1 view .LVU15
  66              		.loc 1 47 30 is_stmt 0 view .LVU16
  67 001e C361     		str	r3, [r0, #28]
  48:Core/Src/i2c.c ****   hi2c1.Init.NoStretchMode = I2C_NOSTRETCH_DISABLE;
ARM GAS  C:\Users\zacfi\AppData\Local\Temp\ccKqD0lb.s 			page 3


  68              		.loc 1 48 3 is_stmt 1 view .LVU17
  69              		.loc 1 48 28 is_stmt 0 view .LVU18
  70 0020 0362     		str	r3, [r0, #32]
  49:Core/Src/i2c.c ****   if (HAL_I2C_Init(&hi2c1) != HAL_OK)
  71              		.loc 1 49 3 is_stmt 1 view .LVU19
  72              		.loc 1 49 7 is_stmt 0 view .LVU20
  73 0022 FFF7FEFF 		bl	HAL_I2C_Init
  74              	.LVL0:
  75              		.loc 1 49 6 view .LVU21
  76 0026 00B9     		cbnz	r0, .L4
  77              	.L1:
  50:Core/Src/i2c.c ****   {
  51:Core/Src/i2c.c ****     Error_Handler();
  52:Core/Src/i2c.c ****   }
  53:Core/Src/i2c.c ****   /* USER CODE BEGIN I2C1_Init 2 */
  54:Core/Src/i2c.c **** 
  55:Core/Src/i2c.c ****   /* USER CODE END I2C1_Init 2 */
  56:Core/Src/i2c.c **** 
  57:Core/Src/i2c.c **** }
  78              		.loc 1 57 1 view .LVU22
  79 0028 08BD     		pop	{r3, pc}
  80              	.L4:
  51:Core/Src/i2c.c ****   }
  81              		.loc 1 51 5 is_stmt 1 view .LVU23
  82 002a FFF7FEFF 		bl	Error_Handler
  83              	.LVL1:
  84              		.loc 1 57 1 is_stmt 0 view .LVU24
  85 002e FBE7     		b	.L1
  86              	.L6:
  87              		.align	2
  88              	.L5:
  89 0030 00000000 		.word	.LANCHOR0
  90 0034 00540040 		.word	1073763328
  91 0038 A0860100 		.word	100000
  92              		.cfi_endproc
  93              	.LFE130:
  95              		.section	.text.HAL_I2C_MspInit,"ax",%progbits
  96              		.align	1
  97              		.global	HAL_I2C_MspInit
  98              		.syntax unified
  99              		.thumb
 100              		.thumb_func
 101              		.fpu fpv4-sp-d16
 103              	HAL_I2C_MspInit:
 104              	.LVL2:
 105              	.LFB131:
  58:Core/Src/i2c.c **** 
  59:Core/Src/i2c.c **** void HAL_I2C_MspInit(I2C_HandleTypeDef* i2cHandle)
  60:Core/Src/i2c.c **** {
 106              		.loc 1 60 1 is_stmt 1 view -0
 107              		.cfi_startproc
 108              		@ args = 0, pretend = 0, frame = 32
 109              		@ frame_needed = 0, uses_anonymous_args = 0
 110              		.loc 1 60 1 is_stmt 0 view .LVU26
 111 0000 30B5     		push	{r4, r5, lr}
 112              	.LCFI1:
 113              		.cfi_def_cfa_offset 12
ARM GAS  C:\Users\zacfi\AppData\Local\Temp\ccKqD0lb.s 			page 4


 114              		.cfi_offset 4, -12
 115              		.cfi_offset 5, -8
 116              		.cfi_offset 14, -4
 117 0002 89B0     		sub	sp, sp, #36
 118              	.LCFI2:
 119              		.cfi_def_cfa_offset 48
  61:Core/Src/i2c.c **** 
  62:Core/Src/i2c.c ****   GPIO_InitTypeDef GPIO_InitStruct = {0};
 120              		.loc 1 62 3 is_stmt 1 view .LVU27
 121              		.loc 1 62 20 is_stmt 0 view .LVU28
 122 0004 0023     		movs	r3, #0
 123 0006 0393     		str	r3, [sp, #12]
 124 0008 0493     		str	r3, [sp, #16]
 125 000a 0593     		str	r3, [sp, #20]
 126 000c 0693     		str	r3, [sp, #24]
 127 000e 0793     		str	r3, [sp, #28]
  63:Core/Src/i2c.c ****   if(i2cHandle->Instance==I2C1)
 128              		.loc 1 63 3 is_stmt 1 view .LVU29
 129              		.loc 1 63 15 is_stmt 0 view .LVU30
 130 0010 0268     		ldr	r2, [r0]
 131              		.loc 1 63 5 view .LVU31
 132 0012 154B     		ldr	r3, .L11
 133 0014 9A42     		cmp	r2, r3
 134 0016 01D0     		beq	.L10
 135              	.LVL3:
 136              	.L7:
  64:Core/Src/i2c.c ****   {
  65:Core/Src/i2c.c ****   /* USER CODE BEGIN I2C1_MspInit 0 */
  66:Core/Src/i2c.c **** 
  67:Core/Src/i2c.c ****   /* USER CODE END I2C1_MspInit 0 */
  68:Core/Src/i2c.c **** 
  69:Core/Src/i2c.c ****     __HAL_RCC_GPIOB_CLK_ENABLE();
  70:Core/Src/i2c.c ****     /**I2C1 GPIO Configuration
  71:Core/Src/i2c.c ****     PB6     ------> I2C1_SCL
  72:Core/Src/i2c.c ****     PB7     ------> I2C1_SDA
  73:Core/Src/i2c.c ****     */
  74:Core/Src/i2c.c ****     GPIO_InitStruct.Pin = GPIO_PIN_6|GPIO_PIN_7;
  75:Core/Src/i2c.c ****     GPIO_InitStruct.Mode = GPIO_MODE_AF_OD;
  76:Core/Src/i2c.c ****     GPIO_InitStruct.Pull = GPIO_PULLUP;
  77:Core/Src/i2c.c ****     GPIO_InitStruct.Speed = GPIO_SPEED_FREQ_VERY_HIGH;
  78:Core/Src/i2c.c ****     GPIO_InitStruct.Alternate = GPIO_AF4_I2C1;
  79:Core/Src/i2c.c ****     HAL_GPIO_Init(GPIOB, &GPIO_InitStruct);
  80:Core/Src/i2c.c **** 
  81:Core/Src/i2c.c ****     /* I2C1 clock enable */
  82:Core/Src/i2c.c ****     __HAL_RCC_I2C1_CLK_ENABLE();
  83:Core/Src/i2c.c ****   /* USER CODE BEGIN I2C1_MspInit 1 */
  84:Core/Src/i2c.c **** 
  85:Core/Src/i2c.c ****   /* USER CODE END I2C1_MspInit 1 */
  86:Core/Src/i2c.c ****   }
  87:Core/Src/i2c.c **** }
 137              		.loc 1 87 1 view .LVU32
 138 0018 09B0     		add	sp, sp, #36
 139              	.LCFI3:
 140              		.cfi_remember_state
 141              		.cfi_def_cfa_offset 12
 142              		@ sp needed
 143 001a 30BD     		pop	{r4, r5, pc}
ARM GAS  C:\Users\zacfi\AppData\Local\Temp\ccKqD0lb.s 			page 5


 144              	.LVL4:
 145              	.L10:
 146              	.LCFI4:
 147              		.cfi_restore_state
  69:Core/Src/i2c.c ****     /**I2C1 GPIO Configuration
 148              		.loc 1 69 5 is_stmt 1 view .LVU33
 149              	.LBB2:
  69:Core/Src/i2c.c ****     /**I2C1 GPIO Configuration
 150              		.loc 1 69 5 view .LVU34
 151 001c 0025     		movs	r5, #0
 152 001e 0195     		str	r5, [sp, #4]
  69:Core/Src/i2c.c ****     /**I2C1 GPIO Configuration
 153              		.loc 1 69 5 view .LVU35
 154 0020 124C     		ldr	r4, .L11+4
 155 0022 236B     		ldr	r3, [r4, #48]
 156 0024 43F00203 		orr	r3, r3, #2
 157 0028 2363     		str	r3, [r4, #48]
  69:Core/Src/i2c.c ****     /**I2C1 GPIO Configuration
 158              		.loc 1 69 5 view .LVU36
 159 002a 236B     		ldr	r3, [r4, #48]
 160 002c 03F00203 		and	r3, r3, #2
 161 0030 0193     		str	r3, [sp, #4]
  69:Core/Src/i2c.c ****     /**I2C1 GPIO Configuration
 162              		.loc 1 69 5 view .LVU37
 163 0032 019B     		ldr	r3, [sp, #4]
 164              	.LBE2:
  69:Core/Src/i2c.c ****     /**I2C1 GPIO Configuration
 165              		.loc 1 69 5 view .LVU38
  74:Core/Src/i2c.c ****     GPIO_InitStruct.Mode = GPIO_MODE_AF_OD;
 166              		.loc 1 74 5 view .LVU39
  74:Core/Src/i2c.c ****     GPIO_InitStruct.Mode = GPIO_MODE_AF_OD;
 167              		.loc 1 74 25 is_stmt 0 view .LVU40
 168 0034 C023     		movs	r3, #192
 169 0036 0393     		str	r3, [sp, #12]
  75:Core/Src/i2c.c ****     GPIO_InitStruct.Pull = GPIO_PULLUP;
 170              		.loc 1 75 5 is_stmt 1 view .LVU41
  75:Core/Src/i2c.c ****     GPIO_InitStruct.Pull = GPIO_PULLUP;
 171              		.loc 1 75 26 is_stmt 0 view .LVU42
 172 0038 1223     		movs	r3, #18
 173 003a 0493     		str	r3, [sp, #16]
  76:Core/Src/i2c.c ****     GPIO_InitStruct.Speed = GPIO_SPEED_FREQ_VERY_HIGH;
 174              		.loc 1 76 5 is_stmt 1 view .LVU43
  76:Core/Src/i2c.c ****     GPIO_InitStruct.Speed = GPIO_SPEED_FREQ_VERY_HIGH;
 175              		.loc 1 76 26 is_stmt 0 view .LVU44
 176 003c 0123     		movs	r3, #1
 177 003e 0593     		str	r3, [sp, #20]
  77:Core/Src/i2c.c ****     GPIO_InitStruct.Alternate = GPIO_AF4_I2C1;
 178              		.loc 1 77 5 is_stmt 1 view .LVU45
  77:Core/Src/i2c.c ****     GPIO_InitStruct.Alternate = GPIO_AF4_I2C1;
 179              		.loc 1 77 27 is_stmt 0 view .LVU46
 180 0040 0323     		movs	r3, #3
 181 0042 0693     		str	r3, [sp, #24]
  78:Core/Src/i2c.c ****     HAL_GPIO_Init(GPIOB, &GPIO_InitStruct);
 182              		.loc 1 78 5 is_stmt 1 view .LVU47
  78:Core/Src/i2c.c ****     HAL_GPIO_Init(GPIOB, &GPIO_InitStruct);
 183              		.loc 1 78 31 is_stmt 0 view .LVU48
 184 0044 0423     		movs	r3, #4
ARM GAS  C:\Users\zacfi\AppData\Local\Temp\ccKqD0lb.s 			page 6


 185 0046 0793     		str	r3, [sp, #28]
  79:Core/Src/i2c.c **** 
 186              		.loc 1 79 5 is_stmt 1 view .LVU49
 187 0048 03A9     		add	r1, sp, #12
 188 004a 0948     		ldr	r0, .L11+8
 189              	.LVL5:
  79:Core/Src/i2c.c **** 
 190              		.loc 1 79 5 is_stmt 0 view .LVU50
 191 004c FFF7FEFF 		bl	HAL_GPIO_Init
 192              	.LVL6:
  82:Core/Src/i2c.c ****   /* USER CODE BEGIN I2C1_MspInit 1 */
 193              		.loc 1 82 5 is_stmt 1 view .LVU51
 194              	.LBB3:
  82:Core/Src/i2c.c ****   /* USER CODE BEGIN I2C1_MspInit 1 */
 195              		.loc 1 82 5 view .LVU52
 196 0050 0295     		str	r5, [sp, #8]
  82:Core/Src/i2c.c ****   /* USER CODE BEGIN I2C1_MspInit 1 */
 197              		.loc 1 82 5 view .LVU53
 198 0052 236C     		ldr	r3, [r4, #64]
 199 0054 43F40013 		orr	r3, r3, #2097152
 200 0058 2364     		str	r3, [r4, #64]
  82:Core/Src/i2c.c ****   /* USER CODE BEGIN I2C1_MspInit 1 */
 201              		.loc 1 82 5 view .LVU54
 202 005a 236C     		ldr	r3, [r4, #64]
 203 005c 03F40013 		and	r3, r3, #2097152
 204 0060 0293     		str	r3, [sp, #8]
  82:Core/Src/i2c.c ****   /* USER CODE BEGIN I2C1_MspInit 1 */
 205              		.loc 1 82 5 view .LVU55
 206 0062 029B     		ldr	r3, [sp, #8]
 207              	.LBE3:
  82:Core/Src/i2c.c ****   /* USER CODE BEGIN I2C1_MspInit 1 */
 208              		.loc 1 82 5 view .LVU56
 209              		.loc 1 87 1 is_stmt 0 view .LVU57
 210 0064 D8E7     		b	.L7
 211              	.L12:
 212 0066 00BF     		.align	2
 213              	.L11:
 214 0068 00540040 		.word	1073763328
 215 006c 00380240 		.word	1073887232
 216 0070 00040240 		.word	1073873920
 217              		.cfi_endproc
 218              	.LFE131:
 220              		.section	.text.HAL_I2C_MspDeInit,"ax",%progbits
 221              		.align	1
 222              		.global	HAL_I2C_MspDeInit
 223              		.syntax unified
 224              		.thumb
 225              		.thumb_func
 226              		.fpu fpv4-sp-d16
 228              	HAL_I2C_MspDeInit:
 229              	.LVL7:
 230              	.LFB132:
  88:Core/Src/i2c.c **** 
  89:Core/Src/i2c.c **** void HAL_I2C_MspDeInit(I2C_HandleTypeDef* i2cHandle)
  90:Core/Src/i2c.c **** {
 231              		.loc 1 90 1 is_stmt 1 view -0
 232              		.cfi_startproc
ARM GAS  C:\Users\zacfi\AppData\Local\Temp\ccKqD0lb.s 			page 7


 233              		@ args = 0, pretend = 0, frame = 0
 234              		@ frame_needed = 0, uses_anonymous_args = 0
  91:Core/Src/i2c.c **** 
  92:Core/Src/i2c.c ****   if(i2cHandle->Instance==I2C1)
 235              		.loc 1 92 3 view .LVU59
 236              		.loc 1 92 15 is_stmt 0 view .LVU60
 237 0000 0268     		ldr	r2, [r0]
 238              		.loc 1 92 5 view .LVU61
 239 0002 0A4B     		ldr	r3, .L20
 240 0004 9A42     		cmp	r2, r3
 241 0006 00D0     		beq	.L19
 242 0008 7047     		bx	lr
 243              	.L19:
  90:Core/Src/i2c.c **** 
 244              		.loc 1 90 1 view .LVU62
 245 000a 10B5     		push	{r4, lr}
 246              	.LCFI5:
 247              		.cfi_def_cfa_offset 8
 248              		.cfi_offset 4, -8
 249              		.cfi_offset 14, -4
  93:Core/Src/i2c.c ****   {
  94:Core/Src/i2c.c ****   /* USER CODE BEGIN I2C1_MspDeInit 0 */
  95:Core/Src/i2c.c **** 
  96:Core/Src/i2c.c ****   /* USER CODE END I2C1_MspDeInit 0 */
  97:Core/Src/i2c.c ****     /* Peripheral clock disable */
  98:Core/Src/i2c.c ****     __HAL_RCC_I2C1_CLK_DISABLE();
 250              		.loc 1 98 5 is_stmt 1 view .LVU63
 251 000c 084A     		ldr	r2, .L20+4
 252 000e 136C     		ldr	r3, [r2, #64]
 253 0010 23F40013 		bic	r3, r3, #2097152
 254 0014 1364     		str	r3, [r2, #64]
  99:Core/Src/i2c.c **** 
 100:Core/Src/i2c.c ****     /**I2C1 GPIO Configuration
 101:Core/Src/i2c.c ****     PB6     ------> I2C1_SCL
 102:Core/Src/i2c.c ****     PB7     ------> I2C1_SDA
 103:Core/Src/i2c.c ****     */
 104:Core/Src/i2c.c ****     HAL_GPIO_DeInit(GPIOB, GPIO_PIN_6);
 255              		.loc 1 104 5 view .LVU64
 256 0016 074C     		ldr	r4, .L20+8
 257 0018 4021     		movs	r1, #64
 258 001a 2046     		mov	r0, r4
 259              	.LVL8:
 260              		.loc 1 104 5 is_stmt 0 view .LVU65
 261 001c FFF7FEFF 		bl	HAL_GPIO_DeInit
 262              	.LVL9:
 105:Core/Src/i2c.c **** 
 106:Core/Src/i2c.c ****     HAL_GPIO_DeInit(GPIOB, GPIO_PIN_7);
 263              		.loc 1 106 5 is_stmt 1 view .LVU66
 264 0020 8021     		movs	r1, #128
 265 0022 2046     		mov	r0, r4
 266 0024 FFF7FEFF 		bl	HAL_GPIO_DeInit
 267              	.LVL10:
 107:Core/Src/i2c.c **** 
 108:Core/Src/i2c.c ****   /* USER CODE BEGIN I2C1_MspDeInit 1 */
 109:Core/Src/i2c.c **** 
 110:Core/Src/i2c.c ****   /* USER CODE END I2C1_MspDeInit 1 */
 111:Core/Src/i2c.c ****   }
ARM GAS  C:\Users\zacfi\AppData\Local\Temp\ccKqD0lb.s 			page 8


 112:Core/Src/i2c.c **** }
 268              		.loc 1 112 1 is_stmt 0 view .LVU67
 269 0028 10BD     		pop	{r4, pc}
 270              	.L21:
 271 002a 00BF     		.align	2
 272              	.L20:
 273 002c 00540040 		.word	1073763328
 274 0030 00380240 		.word	1073887232
 275 0034 00040240 		.word	1073873920
 276              		.cfi_endproc
 277              	.LFE132:
 279              		.global	hi2c1
 280              		.section	.bss.hi2c1,"aw",%nobits
 281              		.align	2
 282              		.set	.LANCHOR0,. + 0
 285              	hi2c1:
 286 0000 00000000 		.space	84
 286      00000000 
 286      00000000 
 286      00000000 
 286      00000000 
 287              		.text
 288              	.Letext0:
 289              		.file 2 "c:\\gnu\\gnu_arm_embedded_toolchain\\10-2020-q4-major\\arm-none-eabi\\include\\machine\\_
 290              		.file 3 "c:\\gnu\\gnu_arm_embedded_toolchain\\10-2020-q4-major\\arm-none-eabi\\include\\sys\\_stdi
 291              		.file 4 "Drivers/CMSIS/Device/ST/STM32F4xx/Include/stm32f446xx.h"
 292              		.file 5 "Drivers/STM32F4xx_HAL_Driver/Inc/stm32f4xx_hal_def.h"
 293              		.file 6 "Drivers/STM32F4xx_HAL_Driver/Inc/stm32f4xx_hal_gpio.h"
 294              		.file 7 "Drivers/STM32F4xx_HAL_Driver/Inc/stm32f4xx_hal_dma.h"
 295              		.file 8 "Drivers/STM32F4xx_HAL_Driver/Inc/stm32f4xx_hal_i2c.h"
 296              		.file 9 "Core/Inc/main.h"
 297              		.file 10 "Core/Inc/i2c.h"
ARM GAS  C:\Users\zacfi\AppData\Local\Temp\ccKqD0lb.s 			page 9

