ARM GAS  C:\Users\zacfi\AppData\Local\Temp\ccJwctI9.s 			page 1


   1              		.cpu cortex-m4
   2              		.eabi_attribute 27, 1
   3              		.eabi_attribute 28, 1
   4              		.eabi_attribute 20, 1
   5              		.eabi_attribute 21, 1
   6              		.eabi_attribute 23, 3
   7              		.eabi_attribute 24, 1
   8              		.eabi_attribute 25, 1
   9              		.eabi_attribute 26, 1
  10              		.eabi_attribute 30, 1
  11              		.eabi_attribute 34, 1
  12              		.eabi_attribute 18, 4
  13              		.file	"main.c"
  14              		.text
  15              	.Ltext0:
  16              		.cfi_sections	.debug_frame
  17              		.section	.text.Error_Handler,"ax",%progbits
  18              		.align	1
  19              		.global	Error_Handler
  20              		.arch armv7e-m
  21              		.syntax unified
  22              		.thumb
  23              		.thumb_func
  24              		.fpu fpv4-sp-d16
  26              	Error_Handler:
  27              	.LFB135:
  28              		.file 1 "Core/Src/main.c"
   1:Core/Src/main.c **** /* USER CODE BEGIN Header */
   2:Core/Src/main.c **** /**
   3:Core/Src/main.c ****   ******************************************************************************
   4:Core/Src/main.c ****   * @file           : main.c
   5:Core/Src/main.c ****   * @brief          : Main program body
   6:Core/Src/main.c ****   ******************************************************************************
   7:Core/Src/main.c ****   * @attention
   8:Core/Src/main.c ****   *
   9:Core/Src/main.c ****   * <h2><center>&copy; Copyright (c) 2021 STMicroelectronics.
  10:Core/Src/main.c ****   * All rights reserved.</center></h2>
  11:Core/Src/main.c ****   *
  12:Core/Src/main.c ****   * This software component is licensed by ST under BSD 3-Clause license,
  13:Core/Src/main.c ****   * the "License"; You may not use this file except in compliance with the
  14:Core/Src/main.c ****   * License. You may obtain a copy of the License at:
  15:Core/Src/main.c ****   *                        opensource.org/licenses/BSD-3-Clause
  16:Core/Src/main.c ****   *
  17:Core/Src/main.c ****   ******************************************************************************
  18:Core/Src/main.c ****   */
  19:Core/Src/main.c **** /* USER CODE END Header */
  20:Core/Src/main.c **** /* Includes ------------------------------------------------------------------*/
  21:Core/Src/main.c **** #include "main.h"
  22:Core/Src/main.c **** #include "i2c.h"
  23:Core/Src/main.c **** #include "usart.h"
  24:Core/Src/main.c **** #include "gpio.h"
  25:Core/Src/main.c **** 
  26:Core/Src/main.c **** /* Private includes ----------------------------------------------------------*/
  27:Core/Src/main.c **** /* USER CODE BEGIN Includes */
  28:Core/Src/main.c **** #include "adxl345.h"
  29:Core/Src/main.c **** #include <stdio.h>
  30:Core/Src/main.c **** /* USER CODE END Includes */
ARM GAS  C:\Users\zacfi\AppData\Local\Temp\ccJwctI9.s 			page 2


  31:Core/Src/main.c **** 
  32:Core/Src/main.c **** /* Private typedef -----------------------------------------------------------*/
  33:Core/Src/main.c **** /* USER CODE BEGIN PTD */
  34:Core/Src/main.c **** 
  35:Core/Src/main.c **** /* USER CODE END PTD */
  36:Core/Src/main.c **** 
  37:Core/Src/main.c **** /* Private define ------------------------------------------------------------*/
  38:Core/Src/main.c **** /* USER CODE BEGIN PD */
  39:Core/Src/main.c **** /* USER CODE END PD */
  40:Core/Src/main.c **** 
  41:Core/Src/main.c **** /* Private macro -------------------------------------------------------------*/
  42:Core/Src/main.c **** /* USER CODE BEGIN PM */
  43:Core/Src/main.c **** 
  44:Core/Src/main.c **** /* USER CODE END PM */
  45:Core/Src/main.c **** 
  46:Core/Src/main.c **** /* Private variables ---------------------------------------------------------*/
  47:Core/Src/main.c **** 
  48:Core/Src/main.c **** /* USER CODE BEGIN PV */
  49:Core/Src/main.c **** 
  50:Core/Src/main.c **** /* USER CODE END PV */
  51:Core/Src/main.c **** 
  52:Core/Src/main.c **** /* Private function prototypes -----------------------------------------------*/
  53:Core/Src/main.c **** void SystemClock_Config(void);
  54:Core/Src/main.c **** /* USER CODE BEGIN PFP */
  55:Core/Src/main.c **** 
  56:Core/Src/main.c **** /* USER CODE END PFP */
  57:Core/Src/main.c **** 
  58:Core/Src/main.c **** /* Private user code ---------------------------------------------------------*/
  59:Core/Src/main.c **** /* USER CODE BEGIN 0 */
  60:Core/Src/main.c **** 
  61:Core/Src/main.c **** /* USER CODE END 0 */
  62:Core/Src/main.c **** 
  63:Core/Src/main.c **** /**
  64:Core/Src/main.c ****   * @brief  The application entry point.
  65:Core/Src/main.c ****   * @retval int
  66:Core/Src/main.c ****   */
  67:Core/Src/main.c **** int main(void)
  68:Core/Src/main.c **** {
  69:Core/Src/main.c ****   /* USER CODE BEGIN 1 */
  70:Core/Src/main.c **** 
  71:Core/Src/main.c ****   /* USER CODE END 1 */
  72:Core/Src/main.c **** 
  73:Core/Src/main.c ****   /* MCU Configuration--------------------------------------------------------*/
  74:Core/Src/main.c **** 
  75:Core/Src/main.c ****   /* Reset of all peripherals, Initializes the Flash interface and the Systick. */
  76:Core/Src/main.c ****   HAL_Init();
  77:Core/Src/main.c **** 
  78:Core/Src/main.c ****   /* USER CODE BEGIN Init */
  79:Core/Src/main.c ****   /* USER CODE END Init */
  80:Core/Src/main.c **** 
  81:Core/Src/main.c ****   /* Configure the system clock */
  82:Core/Src/main.c ****   SystemClock_Config();
  83:Core/Src/main.c **** 
  84:Core/Src/main.c ****   /* USER CODE BEGIN SysInit */
  85:Core/Src/main.c **** 
  86:Core/Src/main.c ****   /* USER CODE END SysInit */
  87:Core/Src/main.c **** 
ARM GAS  C:\Users\zacfi\AppData\Local\Temp\ccJwctI9.s 			page 3


  88:Core/Src/main.c ****   /* Initialize all configured peripherals */
  89:Core/Src/main.c ****   MX_GPIO_Init();
  90:Core/Src/main.c ****   MX_I2C1_Init();
  91:Core/Src/main.c ****   MX_USART2_UART_Init();
  92:Core/Src/main.c ****   /* USER CODE BEGIN 2 */
  93:Core/Src/main.c ****   setTargetDeviceAddress(&hi2c1, 0x53<<1);
  94:Core/Src/main.c ****   /* USER CODE END 2 */
  95:Core/Src/main.c **** 
  96:Core/Src/main.c ****   char message[256];
  97:Core/Src/main.c ****   HAL_StatusTypeDef status;
  98:Core/Src/main.c ****   int id = 0;
  99:Core/Src/main.c ****   Accelerations accelerometerData;
 100:Core/Src/main.c **** 
 101:Core/Src/main.c ****   //Initialize the module
 102:Core/Src/main.c ****   status = AccelInit(&hi2c1);
 103:Core/Src/main.c ****   if(status == HAL_OK)
 104:Core/Src/main.c ****   {
 105:Core/Src/main.c ****     sprintf(message, "ADXL345 Module has been initialized successfully!\n");
 106:Core/Src/main.c ****     HAL_UART_Transmit(&huart2, (uint8_t *)&message, 50, 100);
 107:Core/Src/main.c ****   }
 108:Core/Src/main.c ****   else
 109:Core/Src/main.c ****   {
 110:Core/Src/main.c ****     HAL_UART_Transmit(&huart2, (uint8_t *)"ERROR!\n", 7, 100);
 111:Core/Src/main.c ****   }
 112:Core/Src/main.c **** 
 113:Core/Src/main.c ****   //Get ID of Accelerometer module (ensures the connection is working correctly)
 114:Core/Src/main.c ****   status = AccelGetId(&hi2c1, &id);
 115:Core/Src/main.c ****   if(status == HAL_OK)
 116:Core/Src/main.c ****   {
 117:Core/Src/main.c ****     sprintf(message, "ADXL345 ID is : %o\n", id);
 118:Core/Src/main.c ****     HAL_UART_Transmit(&huart2, (uint8_t *)&message, 20, 100);
 119:Core/Src/main.c ****   }
 120:Core/Src/main.c ****   else
 121:Core/Src/main.c ****   {
 122:Core/Src/main.c ****     HAL_UART_Transmit(&huart2, (uint8_t *)"ERROR!\n", 7, 100);
 123:Core/Src/main.c ****   }
 124:Core/Src/main.c ****   /* Infinite loop */
 125:Core/Src/main.c ****   /* USER CODE BEGIN WHILE */
 126:Core/Src/main.c ****   while (1)
 127:Core/Src/main.c ****   {
 128:Core/Src/main.c ****     /* USER CODE END WHILE */
 129:Core/Src/main.c ****     HAL_GPIO_TogglePin(LD2_GPIO_Port, LD2_Pin);
 130:Core/Src/main.c ****     status = getAccelerations(&hi2c1, &accelerometerData);
 131:Core/Src/main.c ****     if(status == HAL_OK){
 132:Core/Src/main.c ****       memset(message, 0, sizeof(message));
 133:Core/Src/main.c ****       float xf = (float)accelerometerData.x * 3.9f / 1000.0;
 134:Core/Src/main.c ****       float yf = (float)accelerometerData.y * 3.9f / 1000.0;
 135:Core/Src/main.c ****       float zf = (float)accelerometerData.z * 3.9f / 1000.0;
 136:Core/Src/main.c ****       sprintf(message, "X : %5.5f    Y : %5.5f    Z : %5.5f\n", xf, yf, zf);
 137:Core/Src/main.c ****       HAL_UART_Transmit(&huart2, (uint8_t *)message, 70, 100);
 138:Core/Src/main.c ****     }
 139:Core/Src/main.c ****     else
 140:Core/Src/main.c ****     {
 141:Core/Src/main.c ****       sprintf(message, "Error!\n");
 142:Core/Src/main.c ****       HAL_UART_Transmit(&huart2, (uint8_t *)message, 7, 100);
 143:Core/Src/main.c ****     }
 144:Core/Src/main.c ****     HAL_Delay(100);
ARM GAS  C:\Users\zacfi\AppData\Local\Temp\ccJwctI9.s 			page 4


 145:Core/Src/main.c ****     /* USER CODE BEGIN 3 */
 146:Core/Src/main.c ****   }
 147:Core/Src/main.c ****   /* USER CODE END 3 */
 148:Core/Src/main.c **** }
 149:Core/Src/main.c **** 
 150:Core/Src/main.c **** /**
 151:Core/Src/main.c ****   * @brief System Clock Configuration
 152:Core/Src/main.c ****   * @retval None
 153:Core/Src/main.c ****   */
 154:Core/Src/main.c **** void SystemClock_Config(void)
 155:Core/Src/main.c **** {
 156:Core/Src/main.c ****   RCC_OscInitTypeDef RCC_OscInitStruct = {0};
 157:Core/Src/main.c ****   RCC_ClkInitTypeDef RCC_ClkInitStruct = {0};
 158:Core/Src/main.c **** 
 159:Core/Src/main.c ****   /** Configure the main internal regulator output voltage
 160:Core/Src/main.c ****   */
 161:Core/Src/main.c ****   __HAL_RCC_PWR_CLK_ENABLE();
 162:Core/Src/main.c ****   __HAL_PWR_VOLTAGESCALING_CONFIG(PWR_REGULATOR_VOLTAGE_SCALE3);
 163:Core/Src/main.c ****   /** Initializes the RCC Oscillators according to the specified parameters
 164:Core/Src/main.c ****   * in the RCC_OscInitTypeDef structure.
 165:Core/Src/main.c ****   */
 166:Core/Src/main.c ****   RCC_OscInitStruct.OscillatorType = RCC_OSCILLATORTYPE_HSI;
 167:Core/Src/main.c ****   RCC_OscInitStruct.HSIState = RCC_HSI_ON;
 168:Core/Src/main.c ****   RCC_OscInitStruct.HSICalibrationValue = RCC_HSICALIBRATION_DEFAULT;
 169:Core/Src/main.c ****   RCC_OscInitStruct.PLL.PLLState = RCC_PLL_ON;
 170:Core/Src/main.c ****   RCC_OscInitStruct.PLL.PLLSource = RCC_PLLSOURCE_HSI;
 171:Core/Src/main.c ****   RCC_OscInitStruct.PLL.PLLM = 16;
 172:Core/Src/main.c ****   RCC_OscInitStruct.PLL.PLLN = 336;
 173:Core/Src/main.c ****   RCC_OscInitStruct.PLL.PLLP = RCC_PLLP_DIV4;
 174:Core/Src/main.c ****   RCC_OscInitStruct.PLL.PLLQ = 2;
 175:Core/Src/main.c ****   RCC_OscInitStruct.PLL.PLLR = 2;
 176:Core/Src/main.c ****   if (HAL_RCC_OscConfig(&RCC_OscInitStruct) != HAL_OK)
 177:Core/Src/main.c ****   {
 178:Core/Src/main.c ****     Error_Handler();
 179:Core/Src/main.c ****   }
 180:Core/Src/main.c ****   /** Initializes the CPU, AHB and APB buses clocks
 181:Core/Src/main.c ****   */
 182:Core/Src/main.c ****   RCC_ClkInitStruct.ClockType = RCC_CLOCKTYPE_HCLK|RCC_CLOCKTYPE_SYSCLK
 183:Core/Src/main.c ****                               |RCC_CLOCKTYPE_PCLK1|RCC_CLOCKTYPE_PCLK2;
 184:Core/Src/main.c ****   RCC_ClkInitStruct.SYSCLKSource = RCC_SYSCLKSOURCE_PLLCLK;
 185:Core/Src/main.c ****   RCC_ClkInitStruct.AHBCLKDivider = RCC_SYSCLK_DIV1;
 186:Core/Src/main.c ****   RCC_ClkInitStruct.APB1CLKDivider = RCC_HCLK_DIV2;
 187:Core/Src/main.c ****   RCC_ClkInitStruct.APB2CLKDivider = RCC_HCLK_DIV1;
 188:Core/Src/main.c **** 
 189:Core/Src/main.c ****   if (HAL_RCC_ClockConfig(&RCC_ClkInitStruct, FLASH_LATENCY_2) != HAL_OK)
 190:Core/Src/main.c ****   {
 191:Core/Src/main.c ****     Error_Handler();
 192:Core/Src/main.c ****   }
 193:Core/Src/main.c **** }
 194:Core/Src/main.c **** 
 195:Core/Src/main.c **** /* USER CODE BEGIN 4 */
 196:Core/Src/main.c **** 
 197:Core/Src/main.c **** /* USER CODE END 4 */
 198:Core/Src/main.c **** 
 199:Core/Src/main.c **** /**
 200:Core/Src/main.c ****   * @brief  This function is executed in case of error occurrence.
 201:Core/Src/main.c ****   * @retval None
ARM GAS  C:\Users\zacfi\AppData\Local\Temp\ccJwctI9.s 			page 5


 202:Core/Src/main.c ****   */
 203:Core/Src/main.c **** void Error_Handler(void)
 204:Core/Src/main.c **** {
  29              		.loc 1 204 1 view -0
  30              		.cfi_startproc
  31              		@ Volatile: function does not return.
  32              		@ args = 0, pretend = 0, frame = 0
  33              		@ frame_needed = 0, uses_anonymous_args = 0
  34              		@ link register save eliminated.
 205:Core/Src/main.c ****   /* USER CODE BEGIN Error_Handler_Debug */
 206:Core/Src/main.c ****   /* User can add his own implementation to report the HAL error return state */
 207:Core/Src/main.c ****   __disable_irq();
  35              		.loc 1 207 3 view .LVU1
  36              	.LBB4:
  37              	.LBI4:
  38              		.file 2 "Drivers/CMSIS/Include/cmsis_gcc.h"
   1:Drivers/CMSIS/Include/cmsis_gcc.h **** /**************************************************************************//**
   2:Drivers/CMSIS/Include/cmsis_gcc.h ****  * @file     cmsis_gcc.h
   3:Drivers/CMSIS/Include/cmsis_gcc.h ****  * @brief    CMSIS compiler GCC header file
   4:Drivers/CMSIS/Include/cmsis_gcc.h ****  * @version  V5.0.4
   5:Drivers/CMSIS/Include/cmsis_gcc.h ****  * @date     09. April 2018
   6:Drivers/CMSIS/Include/cmsis_gcc.h ****  ******************************************************************************/
   7:Drivers/CMSIS/Include/cmsis_gcc.h **** /*
   8:Drivers/CMSIS/Include/cmsis_gcc.h ****  * Copyright (c) 2009-2018 Arm Limited. All rights reserved.
   9:Drivers/CMSIS/Include/cmsis_gcc.h ****  *
  10:Drivers/CMSIS/Include/cmsis_gcc.h ****  * SPDX-License-Identifier: Apache-2.0
  11:Drivers/CMSIS/Include/cmsis_gcc.h ****  *
  12:Drivers/CMSIS/Include/cmsis_gcc.h ****  * Licensed under the Apache License, Version 2.0 (the License); you may
  13:Drivers/CMSIS/Include/cmsis_gcc.h ****  * not use this file except in compliance with the License.
  14:Drivers/CMSIS/Include/cmsis_gcc.h ****  * You may obtain a copy of the License at
  15:Drivers/CMSIS/Include/cmsis_gcc.h ****  *
  16:Drivers/CMSIS/Include/cmsis_gcc.h ****  * www.apache.org/licenses/LICENSE-2.0
  17:Drivers/CMSIS/Include/cmsis_gcc.h ****  *
  18:Drivers/CMSIS/Include/cmsis_gcc.h ****  * Unless required by applicable law or agreed to in writing, software
  19:Drivers/CMSIS/Include/cmsis_gcc.h ****  * distributed under the License is distributed on an AS IS BASIS, WITHOUT
  20:Drivers/CMSIS/Include/cmsis_gcc.h ****  * WARRANTIES OR CONDITIONS OF ANY KIND, either express or implied.
  21:Drivers/CMSIS/Include/cmsis_gcc.h ****  * See the License for the specific language governing permissions and
  22:Drivers/CMSIS/Include/cmsis_gcc.h ****  * limitations under the License.
  23:Drivers/CMSIS/Include/cmsis_gcc.h ****  */
  24:Drivers/CMSIS/Include/cmsis_gcc.h **** 
  25:Drivers/CMSIS/Include/cmsis_gcc.h **** #ifndef __CMSIS_GCC_H
  26:Drivers/CMSIS/Include/cmsis_gcc.h **** #define __CMSIS_GCC_H
  27:Drivers/CMSIS/Include/cmsis_gcc.h **** 
  28:Drivers/CMSIS/Include/cmsis_gcc.h **** /* ignore some GCC warnings */
  29:Drivers/CMSIS/Include/cmsis_gcc.h **** #pragma GCC diagnostic push
  30:Drivers/CMSIS/Include/cmsis_gcc.h **** #pragma GCC diagnostic ignored "-Wsign-conversion"
  31:Drivers/CMSIS/Include/cmsis_gcc.h **** #pragma GCC diagnostic ignored "-Wconversion"
  32:Drivers/CMSIS/Include/cmsis_gcc.h **** #pragma GCC diagnostic ignored "-Wunused-parameter"
  33:Drivers/CMSIS/Include/cmsis_gcc.h **** 
  34:Drivers/CMSIS/Include/cmsis_gcc.h **** /* Fallback for __has_builtin */
  35:Drivers/CMSIS/Include/cmsis_gcc.h **** #ifndef __has_builtin
  36:Drivers/CMSIS/Include/cmsis_gcc.h ****   #define __has_builtin(x) (0)
  37:Drivers/CMSIS/Include/cmsis_gcc.h **** #endif
  38:Drivers/CMSIS/Include/cmsis_gcc.h **** 
  39:Drivers/CMSIS/Include/cmsis_gcc.h **** /* CMSIS compiler specific defines */
  40:Drivers/CMSIS/Include/cmsis_gcc.h **** #ifndef   __ASM
  41:Drivers/CMSIS/Include/cmsis_gcc.h ****   #define __ASM                                  __asm
ARM GAS  C:\Users\zacfi\AppData\Local\Temp\ccJwctI9.s 			page 6


  42:Drivers/CMSIS/Include/cmsis_gcc.h **** #endif
  43:Drivers/CMSIS/Include/cmsis_gcc.h **** #ifndef   __INLINE
  44:Drivers/CMSIS/Include/cmsis_gcc.h ****   #define __INLINE                               inline
  45:Drivers/CMSIS/Include/cmsis_gcc.h **** #endif
  46:Drivers/CMSIS/Include/cmsis_gcc.h **** #ifndef   __STATIC_INLINE
  47:Drivers/CMSIS/Include/cmsis_gcc.h ****   #define __STATIC_INLINE                        static inline
  48:Drivers/CMSIS/Include/cmsis_gcc.h **** #endif
  49:Drivers/CMSIS/Include/cmsis_gcc.h **** #ifndef   __STATIC_FORCEINLINE                 
  50:Drivers/CMSIS/Include/cmsis_gcc.h ****   #define __STATIC_FORCEINLINE                   __attribute__((always_inline)) static inline
  51:Drivers/CMSIS/Include/cmsis_gcc.h **** #endif                                           
  52:Drivers/CMSIS/Include/cmsis_gcc.h **** #ifndef   __NO_RETURN
  53:Drivers/CMSIS/Include/cmsis_gcc.h ****   #define __NO_RETURN                            __attribute__((__noreturn__))
  54:Drivers/CMSIS/Include/cmsis_gcc.h **** #endif
  55:Drivers/CMSIS/Include/cmsis_gcc.h **** #ifndef   __USED
  56:Drivers/CMSIS/Include/cmsis_gcc.h ****   #define __USED                                 __attribute__((used))
  57:Drivers/CMSIS/Include/cmsis_gcc.h **** #endif
  58:Drivers/CMSIS/Include/cmsis_gcc.h **** #ifndef   __WEAK
  59:Drivers/CMSIS/Include/cmsis_gcc.h ****   #define __WEAK                                 __attribute__((weak))
  60:Drivers/CMSIS/Include/cmsis_gcc.h **** #endif
  61:Drivers/CMSIS/Include/cmsis_gcc.h **** #ifndef   __PACKED
  62:Drivers/CMSIS/Include/cmsis_gcc.h ****   #define __PACKED                               __attribute__((packed, aligned(1)))
  63:Drivers/CMSIS/Include/cmsis_gcc.h **** #endif
  64:Drivers/CMSIS/Include/cmsis_gcc.h **** #ifndef   __PACKED_STRUCT
  65:Drivers/CMSIS/Include/cmsis_gcc.h ****   #define __PACKED_STRUCT                        struct __attribute__((packed, aligned(1)))
  66:Drivers/CMSIS/Include/cmsis_gcc.h **** #endif
  67:Drivers/CMSIS/Include/cmsis_gcc.h **** #ifndef   __PACKED_UNION
  68:Drivers/CMSIS/Include/cmsis_gcc.h ****   #define __PACKED_UNION                         union __attribute__((packed, aligned(1)))
  69:Drivers/CMSIS/Include/cmsis_gcc.h **** #endif
  70:Drivers/CMSIS/Include/cmsis_gcc.h **** #ifndef   __UNALIGNED_UINT32        /* deprecated */
  71:Drivers/CMSIS/Include/cmsis_gcc.h ****   #pragma GCC diagnostic push
  72:Drivers/CMSIS/Include/cmsis_gcc.h ****   #pragma GCC diagnostic ignored "-Wpacked"
  73:Drivers/CMSIS/Include/cmsis_gcc.h ****   #pragma GCC diagnostic ignored "-Wattributes"
  74:Drivers/CMSIS/Include/cmsis_gcc.h ****   struct __attribute__((packed)) T_UINT32 { uint32_t v; };
  75:Drivers/CMSIS/Include/cmsis_gcc.h ****   #pragma GCC diagnostic pop
  76:Drivers/CMSIS/Include/cmsis_gcc.h ****   #define __UNALIGNED_UINT32(x)                  (((struct T_UINT32 *)(x))->v)
  77:Drivers/CMSIS/Include/cmsis_gcc.h **** #endif
  78:Drivers/CMSIS/Include/cmsis_gcc.h **** #ifndef   __UNALIGNED_UINT16_WRITE
  79:Drivers/CMSIS/Include/cmsis_gcc.h ****   #pragma GCC diagnostic push
  80:Drivers/CMSIS/Include/cmsis_gcc.h ****   #pragma GCC diagnostic ignored "-Wpacked"
  81:Drivers/CMSIS/Include/cmsis_gcc.h ****   #pragma GCC diagnostic ignored "-Wattributes"
  82:Drivers/CMSIS/Include/cmsis_gcc.h ****   __PACKED_STRUCT T_UINT16_WRITE { uint16_t v; };
  83:Drivers/CMSIS/Include/cmsis_gcc.h ****   #pragma GCC diagnostic pop
  84:Drivers/CMSIS/Include/cmsis_gcc.h ****   #define __UNALIGNED_UINT16_WRITE(addr, val)    (void)((((struct T_UINT16_WRITE *)(void *)(addr))-
  85:Drivers/CMSIS/Include/cmsis_gcc.h **** #endif
  86:Drivers/CMSIS/Include/cmsis_gcc.h **** #ifndef   __UNALIGNED_UINT16_READ
  87:Drivers/CMSIS/Include/cmsis_gcc.h ****   #pragma GCC diagnostic push
  88:Drivers/CMSIS/Include/cmsis_gcc.h ****   #pragma GCC diagnostic ignored "-Wpacked"
  89:Drivers/CMSIS/Include/cmsis_gcc.h ****   #pragma GCC diagnostic ignored "-Wattributes"
  90:Drivers/CMSIS/Include/cmsis_gcc.h ****   __PACKED_STRUCT T_UINT16_READ { uint16_t v; };
  91:Drivers/CMSIS/Include/cmsis_gcc.h ****   #pragma GCC diagnostic pop
  92:Drivers/CMSIS/Include/cmsis_gcc.h ****   #define __UNALIGNED_UINT16_READ(addr)          (((const struct T_UINT16_READ *)(const void *)(add
  93:Drivers/CMSIS/Include/cmsis_gcc.h **** #endif
  94:Drivers/CMSIS/Include/cmsis_gcc.h **** #ifndef   __UNALIGNED_UINT32_WRITE
  95:Drivers/CMSIS/Include/cmsis_gcc.h ****   #pragma GCC diagnostic push
  96:Drivers/CMSIS/Include/cmsis_gcc.h ****   #pragma GCC diagnostic ignored "-Wpacked"
  97:Drivers/CMSIS/Include/cmsis_gcc.h ****   #pragma GCC diagnostic ignored "-Wattributes"
  98:Drivers/CMSIS/Include/cmsis_gcc.h ****   __PACKED_STRUCT T_UINT32_WRITE { uint32_t v; };
ARM GAS  C:\Users\zacfi\AppData\Local\Temp\ccJwctI9.s 			page 7


  99:Drivers/CMSIS/Include/cmsis_gcc.h ****   #pragma GCC diagnostic pop
 100:Drivers/CMSIS/Include/cmsis_gcc.h ****   #define __UNALIGNED_UINT32_WRITE(addr, val)    (void)((((struct T_UINT32_WRITE *)(void *)(addr))-
 101:Drivers/CMSIS/Include/cmsis_gcc.h **** #endif
 102:Drivers/CMSIS/Include/cmsis_gcc.h **** #ifndef   __UNALIGNED_UINT32_READ
 103:Drivers/CMSIS/Include/cmsis_gcc.h ****   #pragma GCC diagnostic push
 104:Drivers/CMSIS/Include/cmsis_gcc.h ****   #pragma GCC diagnostic ignored "-Wpacked"
 105:Drivers/CMSIS/Include/cmsis_gcc.h ****   #pragma GCC diagnostic ignored "-Wattributes"
 106:Drivers/CMSIS/Include/cmsis_gcc.h ****   __PACKED_STRUCT T_UINT32_READ { uint32_t v; };
 107:Drivers/CMSIS/Include/cmsis_gcc.h ****   #pragma GCC diagnostic pop
 108:Drivers/CMSIS/Include/cmsis_gcc.h ****   #define __UNALIGNED_UINT32_READ(addr)          (((const struct T_UINT32_READ *)(const void *)(add
 109:Drivers/CMSIS/Include/cmsis_gcc.h **** #endif
 110:Drivers/CMSIS/Include/cmsis_gcc.h **** #ifndef   __ALIGNED
 111:Drivers/CMSIS/Include/cmsis_gcc.h ****   #define __ALIGNED(x)                           __attribute__((aligned(x)))
 112:Drivers/CMSIS/Include/cmsis_gcc.h **** #endif
 113:Drivers/CMSIS/Include/cmsis_gcc.h **** #ifndef   __RESTRICT
 114:Drivers/CMSIS/Include/cmsis_gcc.h ****   #define __RESTRICT                             __restrict
 115:Drivers/CMSIS/Include/cmsis_gcc.h **** #endif
 116:Drivers/CMSIS/Include/cmsis_gcc.h **** 
 117:Drivers/CMSIS/Include/cmsis_gcc.h **** 
 118:Drivers/CMSIS/Include/cmsis_gcc.h **** /* ###########################  Core Function Access  ########################### */
 119:Drivers/CMSIS/Include/cmsis_gcc.h **** /** \ingroup  CMSIS_Core_FunctionInterface
 120:Drivers/CMSIS/Include/cmsis_gcc.h ****     \defgroup CMSIS_Core_RegAccFunctions CMSIS Core Register Access Functions
 121:Drivers/CMSIS/Include/cmsis_gcc.h ****   @{
 122:Drivers/CMSIS/Include/cmsis_gcc.h ****  */
 123:Drivers/CMSIS/Include/cmsis_gcc.h **** 
 124:Drivers/CMSIS/Include/cmsis_gcc.h **** /**
 125:Drivers/CMSIS/Include/cmsis_gcc.h ****   \brief   Enable IRQ Interrupts
 126:Drivers/CMSIS/Include/cmsis_gcc.h ****   \details Enables IRQ interrupts by clearing the I-bit in the CPSR.
 127:Drivers/CMSIS/Include/cmsis_gcc.h ****            Can only be executed in Privileged modes.
 128:Drivers/CMSIS/Include/cmsis_gcc.h ****  */
 129:Drivers/CMSIS/Include/cmsis_gcc.h **** __STATIC_FORCEINLINE void __enable_irq(void)
 130:Drivers/CMSIS/Include/cmsis_gcc.h **** {
 131:Drivers/CMSIS/Include/cmsis_gcc.h ****   __ASM volatile ("cpsie i" : : : "memory");
 132:Drivers/CMSIS/Include/cmsis_gcc.h **** }
 133:Drivers/CMSIS/Include/cmsis_gcc.h **** 
 134:Drivers/CMSIS/Include/cmsis_gcc.h **** 
 135:Drivers/CMSIS/Include/cmsis_gcc.h **** /**
 136:Drivers/CMSIS/Include/cmsis_gcc.h ****   \brief   Disable IRQ Interrupts
 137:Drivers/CMSIS/Include/cmsis_gcc.h ****   \details Disables IRQ interrupts by setting the I-bit in the CPSR.
 138:Drivers/CMSIS/Include/cmsis_gcc.h ****            Can only be executed in Privileged modes.
 139:Drivers/CMSIS/Include/cmsis_gcc.h ****  */
 140:Drivers/CMSIS/Include/cmsis_gcc.h **** __STATIC_FORCEINLINE void __disable_irq(void)
  39              		.loc 2 140 27 view .LVU2
  40              	.LBB5:
 141:Drivers/CMSIS/Include/cmsis_gcc.h **** {
 142:Drivers/CMSIS/Include/cmsis_gcc.h ****   __ASM volatile ("cpsid i" : : : "memory");
  41              		.loc 2 142 3 view .LVU3
  42              		.syntax unified
  43              	@ 142 "Drivers/CMSIS/Include/cmsis_gcc.h" 1
  44 0000 72B6     		cpsid i
  45              	@ 0 "" 2
  46              		.thumb
  47              		.syntax unified
  48              	.L2:
  49              	.LBE5:
  50              	.LBE4:
 208:Core/Src/main.c ****   while (1)
ARM GAS  C:\Users\zacfi\AppData\Local\Temp\ccJwctI9.s 			page 8


  51              		.loc 1 208 3 discriminator 1 view .LVU4
 209:Core/Src/main.c ****   {
 210:Core/Src/main.c ****   }
  52              		.loc 1 210 3 discriminator 1 view .LVU5
 208:Core/Src/main.c ****   while (1)
  53              		.loc 1 208 9 discriminator 1 view .LVU6
  54 0002 FEE7     		b	.L2
  55              		.cfi_endproc
  56              	.LFE135:
  58              		.section	.text.SystemClock_Config,"ax",%progbits
  59              		.align	1
  60              		.global	SystemClock_Config
  61              		.syntax unified
  62              		.thumb
  63              		.thumb_func
  64              		.fpu fpv4-sp-d16
  66              	SystemClock_Config:
  67              	.LFB134:
 155:Core/Src/main.c ****   RCC_OscInitTypeDef RCC_OscInitStruct = {0};
  68              		.loc 1 155 1 view -0
  69              		.cfi_startproc
  70              		@ args = 0, pretend = 0, frame = 80
  71              		@ frame_needed = 0, uses_anonymous_args = 0
  72 0000 00B5     		push	{lr}
  73              	.LCFI0:
  74              		.cfi_def_cfa_offset 4
  75              		.cfi_offset 14, -4
  76 0002 95B0     		sub	sp, sp, #84
  77              	.LCFI1:
  78              		.cfi_def_cfa_offset 88
 156:Core/Src/main.c ****   RCC_ClkInitTypeDef RCC_ClkInitStruct = {0};
  79              		.loc 1 156 3 view .LVU8
 156:Core/Src/main.c ****   RCC_ClkInitTypeDef RCC_ClkInitStruct = {0};
  80              		.loc 1 156 22 is_stmt 0 view .LVU9
  81 0004 3422     		movs	r2, #52
  82 0006 0021     		movs	r1, #0
  83 0008 07A8     		add	r0, sp, #28
  84 000a FFF7FEFF 		bl	memset
  85              	.LVL0:
 157:Core/Src/main.c **** 
  86              		.loc 1 157 3 is_stmt 1 view .LVU10
 157:Core/Src/main.c **** 
  87              		.loc 1 157 22 is_stmt 0 view .LVU11
  88 000e 0023     		movs	r3, #0
  89 0010 0293     		str	r3, [sp, #8]
  90 0012 0393     		str	r3, [sp, #12]
  91 0014 0493     		str	r3, [sp, #16]
  92 0016 0593     		str	r3, [sp, #20]
  93 0018 0693     		str	r3, [sp, #24]
 161:Core/Src/main.c ****   __HAL_PWR_VOLTAGESCALING_CONFIG(PWR_REGULATOR_VOLTAGE_SCALE3);
  94              		.loc 1 161 3 is_stmt 1 view .LVU12
  95              	.LBB6:
 161:Core/Src/main.c ****   __HAL_PWR_VOLTAGESCALING_CONFIG(PWR_REGULATOR_VOLTAGE_SCALE3);
  96              		.loc 1 161 3 view .LVU13
  97 001a 0093     		str	r3, [sp]
 161:Core/Src/main.c ****   __HAL_PWR_VOLTAGESCALING_CONFIG(PWR_REGULATOR_VOLTAGE_SCALE3);
  98              		.loc 1 161 3 view .LVU14
ARM GAS  C:\Users\zacfi\AppData\Local\Temp\ccJwctI9.s 			page 9


  99 001c 1F4A     		ldr	r2, .L9
 100 001e 116C     		ldr	r1, [r2, #64]
 101 0020 41F08051 		orr	r1, r1, #268435456
 102 0024 1164     		str	r1, [r2, #64]
 161:Core/Src/main.c ****   __HAL_PWR_VOLTAGESCALING_CONFIG(PWR_REGULATOR_VOLTAGE_SCALE3);
 103              		.loc 1 161 3 view .LVU15
 104 0026 126C     		ldr	r2, [r2, #64]
 105 0028 02F08052 		and	r2, r2, #268435456
 106 002c 0092     		str	r2, [sp]
 161:Core/Src/main.c ****   __HAL_PWR_VOLTAGESCALING_CONFIG(PWR_REGULATOR_VOLTAGE_SCALE3);
 107              		.loc 1 161 3 view .LVU16
 108 002e 009A     		ldr	r2, [sp]
 109              	.LBE6:
 161:Core/Src/main.c ****   __HAL_PWR_VOLTAGESCALING_CONFIG(PWR_REGULATOR_VOLTAGE_SCALE3);
 110              		.loc 1 161 3 view .LVU17
 162:Core/Src/main.c ****   /** Initializes the RCC Oscillators according to the specified parameters
 111              		.loc 1 162 3 view .LVU18
 112              	.LBB7:
 162:Core/Src/main.c ****   /** Initializes the RCC Oscillators according to the specified parameters
 113              		.loc 1 162 3 view .LVU19
 114 0030 0193     		str	r3, [sp, #4]
 162:Core/Src/main.c ****   /** Initializes the RCC Oscillators according to the specified parameters
 115              		.loc 1 162 3 view .LVU20
 116 0032 1B49     		ldr	r1, .L9+4
 117 0034 0A68     		ldr	r2, [r1]
 118 0036 22F44042 		bic	r2, r2, #49152
 119 003a 42F48042 		orr	r2, r2, #16384
 120 003e 0A60     		str	r2, [r1]
 162:Core/Src/main.c ****   /** Initializes the RCC Oscillators according to the specified parameters
 121              		.loc 1 162 3 view .LVU21
 122 0040 0A68     		ldr	r2, [r1]
 123 0042 02F44042 		and	r2, r2, #49152
 124 0046 0192     		str	r2, [sp, #4]
 162:Core/Src/main.c ****   /** Initializes the RCC Oscillators according to the specified parameters
 125              		.loc 1 162 3 view .LVU22
 126 0048 019A     		ldr	r2, [sp, #4]
 127              	.LBE7:
 162:Core/Src/main.c ****   /** Initializes the RCC Oscillators according to the specified parameters
 128              		.loc 1 162 3 view .LVU23
 166:Core/Src/main.c ****   RCC_OscInitStruct.HSIState = RCC_HSI_ON;
 129              		.loc 1 166 3 view .LVU24
 166:Core/Src/main.c ****   RCC_OscInitStruct.HSIState = RCC_HSI_ON;
 130              		.loc 1 166 36 is_stmt 0 view .LVU25
 131 004a 0222     		movs	r2, #2
 132 004c 0792     		str	r2, [sp, #28]
 167:Core/Src/main.c ****   RCC_OscInitStruct.HSICalibrationValue = RCC_HSICALIBRATION_DEFAULT;
 133              		.loc 1 167 3 is_stmt 1 view .LVU26
 167:Core/Src/main.c ****   RCC_OscInitStruct.HSICalibrationValue = RCC_HSICALIBRATION_DEFAULT;
 134              		.loc 1 167 30 is_stmt 0 view .LVU27
 135 004e 0121     		movs	r1, #1
 136 0050 0A91     		str	r1, [sp, #40]
 168:Core/Src/main.c ****   RCC_OscInitStruct.PLL.PLLState = RCC_PLL_ON;
 137              		.loc 1 168 3 is_stmt 1 view .LVU28
 168:Core/Src/main.c ****   RCC_OscInitStruct.PLL.PLLState = RCC_PLL_ON;
 138              		.loc 1 168 41 is_stmt 0 view .LVU29
 139 0052 1021     		movs	r1, #16
 140 0054 0B91     		str	r1, [sp, #44]
ARM GAS  C:\Users\zacfi\AppData\Local\Temp\ccJwctI9.s 			page 10


 169:Core/Src/main.c ****   RCC_OscInitStruct.PLL.PLLSource = RCC_PLLSOURCE_HSI;
 141              		.loc 1 169 3 is_stmt 1 view .LVU30
 169:Core/Src/main.c ****   RCC_OscInitStruct.PLL.PLLSource = RCC_PLLSOURCE_HSI;
 142              		.loc 1 169 34 is_stmt 0 view .LVU31
 143 0056 0D92     		str	r2, [sp, #52]
 170:Core/Src/main.c ****   RCC_OscInitStruct.PLL.PLLM = 16;
 144              		.loc 1 170 3 is_stmt 1 view .LVU32
 170:Core/Src/main.c ****   RCC_OscInitStruct.PLL.PLLM = 16;
 145              		.loc 1 170 35 is_stmt 0 view .LVU33
 146 0058 0E93     		str	r3, [sp, #56]
 171:Core/Src/main.c ****   RCC_OscInitStruct.PLL.PLLN = 336;
 147              		.loc 1 171 3 is_stmt 1 view .LVU34
 171:Core/Src/main.c ****   RCC_OscInitStruct.PLL.PLLN = 336;
 148              		.loc 1 171 30 is_stmt 0 view .LVU35
 149 005a 0F91     		str	r1, [sp, #60]
 172:Core/Src/main.c ****   RCC_OscInitStruct.PLL.PLLP = RCC_PLLP_DIV4;
 150              		.loc 1 172 3 is_stmt 1 view .LVU36
 172:Core/Src/main.c ****   RCC_OscInitStruct.PLL.PLLP = RCC_PLLP_DIV4;
 151              		.loc 1 172 30 is_stmt 0 view .LVU37
 152 005c 4FF4A873 		mov	r3, #336
 153 0060 1093     		str	r3, [sp, #64]
 173:Core/Src/main.c ****   RCC_OscInitStruct.PLL.PLLQ = 2;
 154              		.loc 1 173 3 is_stmt 1 view .LVU38
 173:Core/Src/main.c ****   RCC_OscInitStruct.PLL.PLLQ = 2;
 155              		.loc 1 173 30 is_stmt 0 view .LVU39
 156 0062 0423     		movs	r3, #4
 157 0064 1193     		str	r3, [sp, #68]
 174:Core/Src/main.c ****   RCC_OscInitStruct.PLL.PLLR = 2;
 158              		.loc 1 174 3 is_stmt 1 view .LVU40
 174:Core/Src/main.c ****   RCC_OscInitStruct.PLL.PLLR = 2;
 159              		.loc 1 174 30 is_stmt 0 view .LVU41
 160 0066 1292     		str	r2, [sp, #72]
 175:Core/Src/main.c ****   if (HAL_RCC_OscConfig(&RCC_OscInitStruct) != HAL_OK)
 161              		.loc 1 175 3 is_stmt 1 view .LVU42
 175:Core/Src/main.c ****   if (HAL_RCC_OscConfig(&RCC_OscInitStruct) != HAL_OK)
 162              		.loc 1 175 30 is_stmt 0 view .LVU43
 163 0068 1392     		str	r2, [sp, #76]
 176:Core/Src/main.c ****   {
 164              		.loc 1 176 3 is_stmt 1 view .LVU44
 176:Core/Src/main.c ****   {
 165              		.loc 1 176 7 is_stmt 0 view .LVU45
 166 006a 07A8     		add	r0, sp, #28
 167 006c FFF7FEFF 		bl	HAL_RCC_OscConfig
 168              	.LVL1:
 176:Core/Src/main.c ****   {
 169              		.loc 1 176 6 view .LVU46
 170 0070 80B9     		cbnz	r0, .L7
 182:Core/Src/main.c ****                               |RCC_CLOCKTYPE_PCLK1|RCC_CLOCKTYPE_PCLK2;
 171              		.loc 1 182 3 is_stmt 1 view .LVU47
 182:Core/Src/main.c ****                               |RCC_CLOCKTYPE_PCLK1|RCC_CLOCKTYPE_PCLK2;
 172              		.loc 1 182 31 is_stmt 0 view .LVU48
 173 0072 0F23     		movs	r3, #15
 174 0074 0293     		str	r3, [sp, #8]
 184:Core/Src/main.c ****   RCC_ClkInitStruct.AHBCLKDivider = RCC_SYSCLK_DIV1;
 175              		.loc 1 184 3 is_stmt 1 view .LVU49
 184:Core/Src/main.c ****   RCC_ClkInitStruct.AHBCLKDivider = RCC_SYSCLK_DIV1;
 176              		.loc 1 184 34 is_stmt 0 view .LVU50
ARM GAS  C:\Users\zacfi\AppData\Local\Temp\ccJwctI9.s 			page 11


 177 0076 0221     		movs	r1, #2
 178 0078 0391     		str	r1, [sp, #12]
 185:Core/Src/main.c ****   RCC_ClkInitStruct.APB1CLKDivider = RCC_HCLK_DIV2;
 179              		.loc 1 185 3 is_stmt 1 view .LVU51
 185:Core/Src/main.c ****   RCC_ClkInitStruct.APB1CLKDivider = RCC_HCLK_DIV2;
 180              		.loc 1 185 35 is_stmt 0 view .LVU52
 181 007a 0023     		movs	r3, #0
 182 007c 0493     		str	r3, [sp, #16]
 186:Core/Src/main.c ****   RCC_ClkInitStruct.APB2CLKDivider = RCC_HCLK_DIV1;
 183              		.loc 1 186 3 is_stmt 1 view .LVU53
 186:Core/Src/main.c ****   RCC_ClkInitStruct.APB2CLKDivider = RCC_HCLK_DIV1;
 184              		.loc 1 186 36 is_stmt 0 view .LVU54
 185 007e 4FF48052 		mov	r2, #4096
 186 0082 0592     		str	r2, [sp, #20]
 187:Core/Src/main.c **** 
 187              		.loc 1 187 3 is_stmt 1 view .LVU55
 187:Core/Src/main.c **** 
 188              		.loc 1 187 36 is_stmt 0 view .LVU56
 189 0084 0693     		str	r3, [sp, #24]
 189:Core/Src/main.c ****   {
 190              		.loc 1 189 3 is_stmt 1 view .LVU57
 189:Core/Src/main.c ****   {
 191              		.loc 1 189 7 is_stmt 0 view .LVU58
 192 0086 02A8     		add	r0, sp, #8
 193 0088 FFF7FEFF 		bl	HAL_RCC_ClockConfig
 194              	.LVL2:
 189:Core/Src/main.c ****   {
 195              		.loc 1 189 6 view .LVU59
 196 008c 20B9     		cbnz	r0, .L8
 193:Core/Src/main.c **** 
 197              		.loc 1 193 1 view .LVU60
 198 008e 15B0     		add	sp, sp, #84
 199              	.LCFI2:
 200              		.cfi_remember_state
 201              		.cfi_def_cfa_offset 4
 202              		@ sp needed
 203 0090 5DF804FB 		ldr	pc, [sp], #4
 204              	.L7:
 205              	.LCFI3:
 206              		.cfi_restore_state
 178:Core/Src/main.c ****   }
 207              		.loc 1 178 5 is_stmt 1 view .LVU61
 208 0094 FFF7FEFF 		bl	Error_Handler
 209              	.LVL3:
 210              	.L8:
 191:Core/Src/main.c ****   }
 211              		.loc 1 191 5 view .LVU62
 212 0098 FFF7FEFF 		bl	Error_Handler
 213              	.LVL4:
 214              	.L10:
 215              		.align	2
 216              	.L9:
 217 009c 00380240 		.word	1073887232
 218 00a0 00700040 		.word	1073770496
 219              		.cfi_endproc
 220              	.LFE134:
 222              		.section	.rodata.main.str1.4,"aMS",%progbits,1
ARM GAS  C:\Users\zacfi\AppData\Local\Temp\ccJwctI9.s 			page 12


 223              		.align	2
 224              	.LC0:
 225 0000 4144584C 		.ascii	"ADXL345 Module has been initialized successfully!\012"
 225      33343520 
 225      4D6F6475 
 225      6C652068 
 225      61732062 
 226 0032 00       		.ascii	"\000"
 227 0033 00       		.align	2
 228              	.LC1:
 229 0034 4552524F 		.ascii	"ERROR!\012\000"
 229      52210A00 
 230              		.align	2
 231              	.LC2:
 232 003c 4144584C 		.ascii	"ADXL345 ID is : %o\012\000"
 232      33343520 
 232      49442069 
 232      73203A20 
 232      256F0A00 
 233              		.global	__aeabi_f2d
 234              		.align	2
 235              	.LC3:
 236 0050 58203A20 		.ascii	"X : %5.5f    Y : %5.5f    Z : %5.5f\012\000"
 236      25352E35 
 236      66202020 
 236      2059203A 
 236      2025352E 
 237 0075 000000   		.align	2
 238              	.LC4:
 239 0078 4572726F 		.ascii	"Error!\012\000"
 239      72210A00 
 240              		.section	.text.main,"ax",%progbits
 241              		.align	1
 242              		.global	main
 243              		.syntax unified
 244              		.thumb
 245              		.thumb_func
 246              		.fpu fpv4-sp-d16
 248              	main:
 249              	.LFB133:
  68:Core/Src/main.c ****   /* USER CODE BEGIN 1 */
 250              		.loc 1 68 1 view -0
 251              		.cfi_startproc
 252              		@ args = 0, pretend = 0, frame = 272
 253              		@ frame_needed = 0, uses_anonymous_args = 0
 254 0000 30B5     		push	{r4, r5, lr}
 255              	.LCFI4:
 256              		.cfi_def_cfa_offset 12
 257              		.cfi_offset 4, -12
 258              		.cfi_offset 5, -8
 259              		.cfi_offset 14, -4
 260 0002 2DED028B 		vpush.64	{d8}
 261              	.LCFI5:
 262              		.cfi_def_cfa_offset 20
 263              		.cfi_offset 80, -20
 264              		.cfi_offset 81, -16
 265 0006 C9B0     		sub	sp, sp, #292
ARM GAS  C:\Users\zacfi\AppData\Local\Temp\ccJwctI9.s 			page 13


 266              	.LCFI6:
 267              		.cfi_def_cfa_offset 312
  76:Core/Src/main.c **** 
 268              		.loc 1 76 3 view .LVU64
 269 0008 FFF7FEFF 		bl	HAL_Init
 270              	.LVL5:
  82:Core/Src/main.c **** 
 271              		.loc 1 82 3 view .LVU65
 272 000c FFF7FEFF 		bl	SystemClock_Config
 273              	.LVL6:
  89:Core/Src/main.c ****   MX_I2C1_Init();
 274              		.loc 1 89 3 view .LVU66
 275 0010 FFF7FEFF 		bl	MX_GPIO_Init
 276              	.LVL7:
  90:Core/Src/main.c ****   MX_USART2_UART_Init();
 277              		.loc 1 90 3 view .LVU67
 278 0014 FFF7FEFF 		bl	MX_I2C1_Init
 279              	.LVL8:
  91:Core/Src/main.c ****   /* USER CODE BEGIN 2 */
 280              		.loc 1 91 3 view .LVU68
 281 0018 FFF7FEFF 		bl	MX_USART2_UART_Init
 282              	.LVL9:
  93:Core/Src/main.c ****   /* USER CODE END 2 */
 283              		.loc 1 93 3 view .LVU69
 284 001c 4E4C     		ldr	r4, .L21
 285 001e A621     		movs	r1, #166
 286 0020 2046     		mov	r0, r4
 287 0022 FFF7FEFF 		bl	setTargetDeviceAddress
 288              	.LVL10:
  96:Core/Src/main.c ****   HAL_StatusTypeDef status;
 289              		.loc 1 96 3 view .LVU70
  97:Core/Src/main.c ****   int id = 0;
 290              		.loc 1 97 3 view .LVU71
  98:Core/Src/main.c ****   Accelerations accelerometerData;
 291              		.loc 1 98 3 view .LVU72
  98:Core/Src/main.c ****   Accelerations accelerometerData;
 292              		.loc 1 98 7 is_stmt 0 view .LVU73
 293 0026 0023     		movs	r3, #0
 294 0028 0793     		str	r3, [sp, #28]
  99:Core/Src/main.c **** 
 295              		.loc 1 99 3 is_stmt 1 view .LVU74
 102:Core/Src/main.c ****   if(status == HAL_OK)
 296              		.loc 1 102 3 view .LVU75
 102:Core/Src/main.c ****   if(status == HAL_OK)
 297              		.loc 1 102 12 is_stmt 0 view .LVU76
 298 002a 2046     		mov	r0, r4
 299 002c FFF7FEFF 		bl	AccelInit
 300              	.LVL11:
 103:Core/Src/main.c ****   {
 301              		.loc 1 103 3 is_stmt 1 view .LVU77
 103:Core/Src/main.c ****   {
 302              		.loc 1 103 5 is_stmt 0 view .LVU78
 303 0030 18BB     		cbnz	r0, .L12
 105:Core/Src/main.c ****     HAL_UART_Transmit(&huart2, (uint8_t *)&message, 50, 100);
 304              		.loc 1 105 5 is_stmt 1 view .LVU79
 305 0032 08AC     		add	r4, sp, #32
 306 0034 494D     		ldr	r5, .L21+4
ARM GAS  C:\Users\zacfi\AppData\Local\Temp\ccJwctI9.s 			page 14


 307 0036 0FCD     		ldmia	r5!, {r0, r1, r2, r3}
 308              	.LVL12:
 105:Core/Src/main.c ****     HAL_UART_Transmit(&huart2, (uint8_t *)&message, 50, 100);
 309              		.loc 1 105 5 is_stmt 0 view .LVU80
 310 0038 0FC4     		stmia	r4!, {r0, r1, r2, r3}
 311 003a 0FCD     		ldmia	r5!, {r0, r1, r2, r3}
 312 003c 0FC4     		stmia	r4!, {r0, r1, r2, r3}
 313 003e 0FCD     		ldmia	r5!, {r0, r1, r2, r3}
 314 0040 0FC4     		stmia	r4!, {r0, r1, r2, r3}
 315 0042 2B68     		ldr	r3, [r5]
 316 0044 24F8023B 		strh	r3, [r4], #2	@ movhi
 317 0048 1B0C     		lsrs	r3, r3, #16
 318 004a 2370     		strb	r3, [r4]
 106:Core/Src/main.c ****   }
 319              		.loc 1 106 5 is_stmt 1 view .LVU81
 320 004c 6423     		movs	r3, #100
 321 004e 3222     		movs	r2, #50
 322 0050 08A9     		add	r1, sp, #32
 323 0052 4348     		ldr	r0, .L21+8
 324 0054 FFF7FEFF 		bl	HAL_UART_Transmit
 325              	.LVL13:
 326              	.L13:
 114:Core/Src/main.c ****   if(status == HAL_OK)
 327              		.loc 1 114 3 view .LVU82
 114:Core/Src/main.c ****   if(status == HAL_OK)
 328              		.loc 1 114 12 is_stmt 0 view .LVU83
 329 0058 07A9     		add	r1, sp, #28
 330 005a 3F48     		ldr	r0, .L21
 331 005c FFF7FEFF 		bl	AccelGetId
 332              	.LVL14:
 115:Core/Src/main.c ****   {
 333              		.loc 1 115 3 is_stmt 1 view .LVU84
 115:Core/Src/main.c ****   {
 334              		.loc 1 115 5 is_stmt 0 view .LVU85
 335 0060 90B9     		cbnz	r0, .L14
 117:Core/Src/main.c ****     HAL_UART_Transmit(&huart2, (uint8_t *)&message, 20, 100);
 336              		.loc 1 117 5 is_stmt 1 view .LVU86
 337 0062 079A     		ldr	r2, [sp, #28]
 338 0064 3F49     		ldr	r1, .L21+12
 339 0066 08A8     		add	r0, sp, #32
 340              	.LVL15:
 117:Core/Src/main.c ****     HAL_UART_Transmit(&huart2, (uint8_t *)&message, 20, 100);
 341              		.loc 1 117 5 is_stmt 0 view .LVU87
 342 0068 FFF7FEFF 		bl	sprintf
 343              	.LVL16:
 118:Core/Src/main.c ****   }
 344              		.loc 1 118 5 is_stmt 1 view .LVU88
 345 006c 6423     		movs	r3, #100
 346 006e 1422     		movs	r2, #20
 347 0070 08A9     		add	r1, sp, #32
 348 0072 3B48     		ldr	r0, .L21+8
 349 0074 FFF7FEFF 		bl	HAL_UART_Transmit
 350              	.LVL17:
 351 0078 56E0     		b	.L15
 352              	.LVL18:
 353              	.L12:
 110:Core/Src/main.c ****   }
ARM GAS  C:\Users\zacfi\AppData\Local\Temp\ccJwctI9.s 			page 15


 354              		.loc 1 110 5 view .LVU89
 355 007a 6423     		movs	r3, #100
 356 007c 0722     		movs	r2, #7
 357 007e 3A49     		ldr	r1, .L21+16
 358 0080 3748     		ldr	r0, .L21+8
 359              	.LVL19:
 110:Core/Src/main.c ****   }
 360              		.loc 1 110 5 is_stmt 0 view .LVU90
 361 0082 FFF7FEFF 		bl	HAL_UART_Transmit
 362              	.LVL20:
 363 0086 E7E7     		b	.L13
 364              	.LVL21:
 365              	.L14:
 122:Core/Src/main.c ****   }
 366              		.loc 1 122 5 is_stmt 1 view .LVU91
 367 0088 6423     		movs	r3, #100
 368 008a 0722     		movs	r2, #7
 369 008c 3649     		ldr	r1, .L21+16
 370 008e 3448     		ldr	r0, .L21+8
 371              	.LVL22:
 122:Core/Src/main.c ****   }
 372              		.loc 1 122 5 is_stmt 0 view .LVU92
 373 0090 FFF7FEFF 		bl	HAL_UART_Transmit
 374              	.LVL23:
 375 0094 48E0     		b	.L15
 376              	.LVL24:
 377              	.L20:
 378              	.LBB8:
 132:Core/Src/main.c ****       float xf = (float)accelerometerData.x * 3.9f / 1000.0;
 379              		.loc 1 132 7 is_stmt 1 view .LVU93
 380 0096 4FF48072 		mov	r2, #256
 381 009a 0021     		movs	r1, #0
 382 009c 08A8     		add	r0, sp, #32
 383              	.LVL25:
 132:Core/Src/main.c ****       float xf = (float)accelerometerData.x * 3.9f / 1000.0;
 384              		.loc 1 132 7 is_stmt 0 view .LVU94
 385 009e FFF7FEFF 		bl	memset
 386              	.LVL26:
 133:Core/Src/main.c ****       float yf = (float)accelerometerData.y * 3.9f / 1000.0;
 387              		.loc 1 133 7 is_stmt 1 view .LVU95
 133:Core/Src/main.c ****       float yf = (float)accelerometerData.y * 3.9f / 1000.0;
 388              		.loc 1 133 42 is_stmt 0 view .LVU96
 389 00a2 BDF91430 		ldrsh	r3, [sp, #20]
 390 00a6 07EE903A 		vmov	s15, r3	@ int
 133:Core/Src/main.c ****       float yf = (float)accelerometerData.y * 3.9f / 1000.0;
 391              		.loc 1 133 18 view .LVU97
 392 00aa F8EEE77A 		vcvt.f32.s32	s15, s15
 133:Core/Src/main.c ****       float yf = (float)accelerometerData.y * 3.9f / 1000.0;
 393              		.loc 1 133 45 view .LVU98
 394 00ae DFED2F5A 		vldr.32	s11, .L21+20
 395 00b2 67EEA57A 		vmul.f32	s15, s15, s11
 133:Core/Src/main.c ****       float yf = (float)accelerometerData.y * 3.9f / 1000.0;
 396              		.loc 1 133 13 view .LVU99
 397 00b6 9FED2E6A 		vldr.32	s12, .L21+24
 398              	.LVL27:
 134:Core/Src/main.c ****       float zf = (float)accelerometerData.z * 3.9f / 1000.0;
 399              		.loc 1 134 7 is_stmt 1 view .LVU100
ARM GAS  C:\Users\zacfi\AppData\Local\Temp\ccJwctI9.s 			page 16


 134:Core/Src/main.c ****       float zf = (float)accelerometerData.z * 3.9f / 1000.0;
 400              		.loc 1 134 42 is_stmt 0 view .LVU101
 401 00ba BDF91630 		ldrsh	r3, [sp, #22]
 402 00be 06EE903A 		vmov	s13, r3	@ int
 134:Core/Src/main.c ****       float zf = (float)accelerometerData.z * 3.9f / 1000.0;
 403              		.loc 1 134 18 view .LVU102
 404 00c2 F8EEE66A 		vcvt.f32.s32	s13, s13
 134:Core/Src/main.c ****       float zf = (float)accelerometerData.z * 3.9f / 1000.0;
 405              		.loc 1 134 45 view .LVU103
 406 00c6 66EEA56A 		vmul.f32	s13, s13, s11
 134:Core/Src/main.c ****       float zf = (float)accelerometerData.z * 3.9f / 1000.0;
 407              		.loc 1 134 13 view .LVU104
 408 00ca 86EE868A 		vdiv.f32	s16, s13, s12
 409              	.LVL28:
 135:Core/Src/main.c ****       sprintf(message, "X : %5.5f    Y : %5.5f    Z : %5.5f\n", xf, yf, zf);
 410              		.loc 1 135 7 is_stmt 1 view .LVU105
 135:Core/Src/main.c ****       sprintf(message, "X : %5.5f    Y : %5.5f    Z : %5.5f\n", xf, yf, zf);
 411              		.loc 1 135 42 is_stmt 0 view .LVU106
 412 00ce BDF91830 		ldrsh	r3, [sp, #24]
 413 00d2 07EE103A 		vmov	s14, r3	@ int
 135:Core/Src/main.c ****       sprintf(message, "X : %5.5f    Y : %5.5f    Z : %5.5f\n", xf, yf, zf);
 414              		.loc 1 135 18 view .LVU107
 415 00d6 B8EEC77A 		vcvt.f32.s32	s14, s14
 135:Core/Src/main.c ****       sprintf(message, "X : %5.5f    Y : %5.5f    Z : %5.5f\n", xf, yf, zf);
 416              		.loc 1 135 45 view .LVU108
 417 00da 27EE257A 		vmul.f32	s14, s14, s11
 135:Core/Src/main.c ****       sprintf(message, "X : %5.5f    Y : %5.5f    Z : %5.5f\n", xf, yf, zf);
 418              		.loc 1 135 13 view .LVU109
 419 00de C7EE068A 		vdiv.f32	s17, s14, s12
 420              	.LVL29:
 136:Core/Src/main.c ****       HAL_UART_Transmit(&huart2, (uint8_t *)message, 70, 100);
 421              		.loc 1 136 7 is_stmt 1 view .LVU110
 422 00e2 C7EE867A 		vdiv.f32	s15, s15, s12
 423              	.LVL30:
 136:Core/Src/main.c ****       HAL_UART_Transmit(&huart2, (uint8_t *)message, 70, 100);
 424              		.loc 1 136 7 is_stmt 0 view .LVU111
 425 00e6 17EE900A 		vmov	r0, s15
 426 00ea FFF7FEFF 		bl	__aeabi_f2d
 427              	.LVL31:
 136:Core/Src/main.c ****       HAL_UART_Transmit(&huart2, (uint8_t *)message, 70, 100);
 428              		.loc 1 136 7 view .LVU112
 429 00ee 0446     		mov	r4, r0
 430 00f0 0D46     		mov	r5, r1
 431 00f2 18EE900A 		vmov	r0, s17
 432 00f6 FFF7FEFF 		bl	__aeabi_f2d
 433              	.LVL32:
 434 00fa CDE90201 		strd	r0, [sp, #8]
 435 00fe 18EE100A 		vmov	r0, s16
 436 0102 FFF7FEFF 		bl	__aeabi_f2d
 437              	.LVL33:
 438 0106 CDE90001 		strd	r0, [sp]
 439 010a 2246     		mov	r2, r4
 440 010c 2B46     		mov	r3, r5
 441 010e 1949     		ldr	r1, .L21+28
 442 0110 08A8     		add	r0, sp, #32
 443 0112 FFF7FEFF 		bl	sprintf
 444              	.LVL34:
ARM GAS  C:\Users\zacfi\AppData\Local\Temp\ccJwctI9.s 			page 17


 137:Core/Src/main.c ****     }
 445              		.loc 1 137 7 is_stmt 1 view .LVU113
 446 0116 6423     		movs	r3, #100
 447 0118 4622     		movs	r2, #70
 448 011a 08A9     		add	r1, sp, #32
 449 011c 1048     		ldr	r0, .L21+8
 450 011e FFF7FEFF 		bl	HAL_UART_Transmit
 451              	.LVL35:
 452              	.L18:
 137:Core/Src/main.c ****     }
 453              		.loc 1 137 7 is_stmt 0 view .LVU114
 454              	.LBE8:
 144:Core/Src/main.c ****     /* USER CODE BEGIN 3 */
 455              		.loc 1 144 5 is_stmt 1 view .LVU115
 456 0122 6420     		movs	r0, #100
 457 0124 FFF7FEFF 		bl	HAL_Delay
 458              	.LVL36:
 126:Core/Src/main.c ****   {
 459              		.loc 1 126 9 view .LVU116
 460              	.L15:
 126:Core/Src/main.c ****   {
 461              		.loc 1 126 3 view .LVU117
 129:Core/Src/main.c ****     status = getAccelerations(&hi2c1, &accelerometerData);
 462              		.loc 1 129 5 view .LVU118
 463 0128 2021     		movs	r1, #32
 464 012a 1348     		ldr	r0, .L21+32
 465 012c FFF7FEFF 		bl	HAL_GPIO_TogglePin
 466              	.LVL37:
 130:Core/Src/main.c ****     if(status == HAL_OK){
 467              		.loc 1 130 5 view .LVU119
 130:Core/Src/main.c ****     if(status == HAL_OK){
 468              		.loc 1 130 14 is_stmt 0 view .LVU120
 469 0130 05A9     		add	r1, sp, #20
 470 0132 0948     		ldr	r0, .L21
 471 0134 FFF7FEFF 		bl	getAccelerations
 472              	.LVL38:
 131:Core/Src/main.c ****       memset(message, 0, sizeof(message));
 473              		.loc 1 131 5 is_stmt 1 view .LVU121
 131:Core/Src/main.c ****       memset(message, 0, sizeof(message));
 474              		.loc 1 131 7 is_stmt 0 view .LVU122
 475 0138 0028     		cmp	r0, #0
 476 013a ACD0     		beq	.L20
 141:Core/Src/main.c ****       HAL_UART_Transmit(&huart2, (uint8_t *)message, 7, 100);
 477              		.loc 1 141 7 is_stmt 1 view .LVU123
 478 013c 08AC     		add	r4, sp, #32
 479 013e 0F4B     		ldr	r3, .L21+36
 480 0140 93E80300 		ldm	r3, {r0, r1}
 481              	.LVL39:
 141:Core/Src/main.c ****       HAL_UART_Transmit(&huart2, (uint8_t *)message, 7, 100);
 482              		.loc 1 141 7 is_stmt 0 view .LVU124
 483 0144 84E80300 		stm	r4, {r0, r1}
 142:Core/Src/main.c ****     }
 484              		.loc 1 142 7 is_stmt 1 view .LVU125
 485 0148 6423     		movs	r3, #100
 486 014a 0722     		movs	r2, #7
 487 014c 2146     		mov	r1, r4
 488 014e 0448     		ldr	r0, .L21+8
ARM GAS  C:\Users\zacfi\AppData\Local\Temp\ccJwctI9.s 			page 18


 489 0150 FFF7FEFF 		bl	HAL_UART_Transmit
 490              	.LVL40:
 491 0154 E5E7     		b	.L18
 492              	.L22:
 493 0156 00BF     		.align	2
 494              	.L21:
 495 0158 00000000 		.word	hi2c1
 496 015c 00000000 		.word	.LC0
 497 0160 00000000 		.word	huart2
 498 0164 3C000000 		.word	.LC2
 499 0168 34000000 		.word	.LC1
 500 016c 9A997940 		.word	1081711002
 501 0170 00007A44 		.word	1148846080
 502 0174 50000000 		.word	.LC3
 503 0178 00000240 		.word	1073872896
 504 017c 78000000 		.word	.LC4
 505              		.cfi_endproc
 506              	.LFE133:
 508              		.text
 509              	.Letext0:
 510              		.file 3 "c:\\gnu\\gnu_arm_embedded_toolchain\\10-2020-q4-major\\arm-none-eabi\\include\\machine\\_
 511              		.file 4 "c:\\gnu\\gnu_arm_embedded_toolchain\\10-2020-q4-major\\arm-none-eabi\\include\\sys\\_stdi
 512              		.file 5 "Drivers/CMSIS/Device/ST/STM32F4xx/Include/stm32f446xx.h"
 513              		.file 6 "Drivers/STM32F4xx_HAL_Driver/Inc/stm32f4xx_hal_def.h"
 514              		.file 7 "Drivers/STM32F4xx_HAL_Driver/Inc/stm32f4xx_hal_rcc_ex.h"
 515              		.file 8 "Drivers/STM32F4xx_HAL_Driver/Inc/stm32f4xx_hal_rcc.h"
 516              		.file 9 "Drivers/STM32F4xx_HAL_Driver/Inc/stm32f4xx_hal_dma.h"
 517              		.file 10 "Drivers/STM32F4xx_HAL_Driver/Inc/stm32f4xx_hal_i2c.h"
 518              		.file 11 "Drivers/STM32F4xx_HAL_Driver/Inc/stm32f4xx_hal_uart.h"
 519              		.file 12 "Core/Inc/i2c.h"
 520              		.file 13 "Core/Inc/usart.h"
 521              		.file 14 "Core/Inc/adxl345.h"
 522              		.file 15 "c:\\gnu\\gnu_arm_embedded_toolchain\\10-2020-q4-major\\arm-none-eabi\\include\\stdio.h"
 523              		.file 16 "Drivers/STM32F4xx_HAL_Driver/Inc/stm32f4xx_hal.h"
 524              		.file 17 "Core/Inc/gpio.h"
 525              		.file 18 "Drivers/STM32F4xx_HAL_Driver/Inc/stm32f4xx_hal_gpio.h"
 526              		.file 19 "<built-in>"
ARM GAS  C:\Users\zacfi\AppData\Local\Temp\ccJwctI9.s 			page 19

