ARM GAS  C:\Users\zacfi\AppData\Local\Temp\cc63mGqR.s 			page 1


   1              		.cpu cortex-m4
   2              		.eabi_attribute 27, 1
   3              		.eabi_attribute 28, 1
   4              		.eabi_attribute 20, 1
   5              		.eabi_attribute 21, 1
   6              		.eabi_attribute 23, 3
   7              		.eabi_attribute 24, 1
   8              		.eabi_attribute 25, 1
   9              		.eabi_attribute 26, 1
  10              		.eabi_attribute 30, 1
  11              		.eabi_attribute 34, 1
  12              		.eabi_attribute 18, 4
  13              		.file	"main.c"
  14              		.text
  15              	.Ltext0:
  16              		.cfi_sections	.debug_frame
  17              		.section	.rodata.HAL_UART_RxCpltCallback.str1.4,"aMS",%progbits,1
  18              		.align	2
  19              	.LC0:
  20 0000 4572726F 		.ascii	"Error during transmission, received : 0x%08x\000"
  20      72206475 
  20      72696E67 
  20      20747261 
  20      6E736D69 
  21              		.section	.text.HAL_UART_RxCpltCallback,"ax",%progbits
  22              		.align	1
  23              		.global	HAL_UART_RxCpltCallback
  24              		.arch armv7e-m
  25              		.syntax unified
  26              		.thumb
  27              		.thumb_func
  28              		.fpu fpv4-sp-d16
  30              	HAL_UART_RxCpltCallback:
  31              	.LVL0:
  32              	.LFB136:
  33              		.file 1 "Core/Src/main.c"
   1:Core/Src/main.c **** /* USER CODE BEGIN Header */
   2:Core/Src/main.c **** /**
   3:Core/Src/main.c ****   ******************************************************************************
   4:Core/Src/main.c ****   * @file           : main.c
   5:Core/Src/main.c ****   * @brief          : Main program body
   6:Core/Src/main.c ****   ******************************************************************************
   7:Core/Src/main.c ****   * @attention
   8:Core/Src/main.c ****   *
   9:Core/Src/main.c ****   * <h2><center>&copy; Copyright (c) 2021 STMicroelectronics.
  10:Core/Src/main.c ****   * All rights reserved.</center></h2>
  11:Core/Src/main.c ****   *
  12:Core/Src/main.c ****   * This software component is licensed by ST under BSD 3-Clause license,
  13:Core/Src/main.c ****   * the "License"; You may not use this file except in compliance with the
  14:Core/Src/main.c ****   * License. You may obtain a copy of the License at:
  15:Core/Src/main.c ****   *                        opensource.org/licenses/BSD-3-Clause
  16:Core/Src/main.c ****   *
  17:Core/Src/main.c ****   ******************************************************************************
  18:Core/Src/main.c ****   */
  19:Core/Src/main.c **** /* USER CODE END Header */
  20:Core/Src/main.c **** /* Includes ------------------------------------------------------------------*/
  21:Core/Src/main.c **** #include "main.h"
ARM GAS  C:\Users\zacfi\AppData\Local\Temp\cc63mGqR.s 			page 2


  22:Core/Src/main.c **** #include "dma.h"
  23:Core/Src/main.c **** #include "i2c.h"
  24:Core/Src/main.c **** #include "tim.h"
  25:Core/Src/main.c **** #include "usart.h"
  26:Core/Src/main.c **** #include "gpio.h"
  27:Core/Src/main.c **** 
  28:Core/Src/main.c **** /* Private includes ----------------------------------------------------------*/
  29:Core/Src/main.c **** /* USER CODE BEGIN Includes */
  30:Core/Src/main.c **** #include "adxl345.h"
  31:Core/Src/main.c **** #include <stdio.h>
  32:Core/Src/main.c **** #include <string.h>
  33:Core/Src/main.c **** #include <stdbool.h>
  34:Core/Src/main.c **** /* USER CODE END Includes */
  35:Core/Src/main.c **** 
  36:Core/Src/main.c **** /* Private typedef -----------------------------------------------------------*/
  37:Core/Src/main.c **** /* USER CODE BEGIN PTD */
  38:Core/Src/main.c **** 
  39:Core/Src/main.c **** /* USER CODE END PTD */
  40:Core/Src/main.c **** 
  41:Core/Src/main.c **** /* Private define ------------------------------------------------------------*/
  42:Core/Src/main.c **** /* USER CODE BEGIN PD */
  43:Core/Src/main.c **** #define UART2_BUFFER_SIZE 10 //8 Byte of data with a start and a stop byte
  44:Core/Src/main.c **** #define TRANSMISSION_START 0x02
  45:Core/Src/main.c **** #define TRANSMISSION_END 0x04
  46:Core/Src/main.c **** 
  47:Core/Src/main.c **** //Commands define (enum too small, only 32 bit)
  48:Core/Src/main.c **** #define HANDSHAKE 0x0000AA55AA55
  49:Core/Src/main.c **** #define SET_TIME 0x0000C0FFEE11
  50:Core/Src/main.c **** #define START_READING 0x0000ABCDDCBA
  51:Core/Src/main.c **** #define STOP_READING 0x0000DCBAABCD
  52:Core/Src/main.c **** /* USER CODE END PD */
  53:Core/Src/main.c **** 
  54:Core/Src/main.c **** /* Private macro -------------------------------------------------------------*/
  55:Core/Src/main.c **** /* USER CODE BEGIN PM */
  56:Core/Src/main.c **** 
  57:Core/Src/main.c **** /* USER CODE END PM */
  58:Core/Src/main.c **** 
  59:Core/Src/main.c **** /* Private variables ---------------------------------------------------------*/
  60:Core/Src/main.c **** 
  61:Core/Src/main.c **** /* USER CODE BEGIN PV */
  62:Core/Src/main.c **** uint8_t UART2_rxBuffer[UART2_BUFFER_SIZE];
  63:Core/Src/main.c **** char message[256];
  64:Core/Src/main.c **** uint64_t utc_timestamp_ms = 0; //Holds the timestamp of each measurement
  65:Core/Src/main.c **** bool handshake = false;
  66:Core/Src/main.c **** bool send = false;
  67:Core/Src/main.c **** bool setting_time = false;
  68:Core/Src/main.c **** //enum commands {HANDSHAKE = 0x0000AA55AA55, SET_TIME = 0x0000C0FFEE11, START_READING = 0x0000ABCDD
  69:Core/Src/main.c **** //enum commands rcv_command;
  70:Core/Src/main.c **** uint64_t rcv_command = 0;
  71:Core/Src/main.c **** /* USER CODE END PV */
  72:Core/Src/main.c **** 
  73:Core/Src/main.c **** /* Private function prototypes -----------------------------------------------*/
  74:Core/Src/main.c **** void SystemClock_Config(void);
  75:Core/Src/main.c **** /* USER CODE BEGIN PFP */
  76:Core/Src/main.c **** 
  77:Core/Src/main.c **** /* USER CODE END PFP */
  78:Core/Src/main.c **** 
ARM GAS  C:\Users\zacfi\AppData\Local\Temp\cc63mGqR.s 			page 3


  79:Core/Src/main.c **** /* Private user code ---------------------------------------------------------*/
  80:Core/Src/main.c **** /* USER CODE BEGIN 0 */
  81:Core/Src/main.c **** 
  82:Core/Src/main.c **** /* USER CODE END 0 */
  83:Core/Src/main.c **** 
  84:Core/Src/main.c **** /**
  85:Core/Src/main.c ****   * @brief  The application entry point.
  86:Core/Src/main.c ****   * @retval int
  87:Core/Src/main.c ****   */
  88:Core/Src/main.c **** int main(void)
  89:Core/Src/main.c **** {
  90:Core/Src/main.c ****     /* USER CODE BEGIN 1 */
  91:Core/Src/main.c **** 
  92:Core/Src/main.c ****     /* USER CODE END 1 */
  93:Core/Src/main.c **** 
  94:Core/Src/main.c ****     /* MCU Configuration--------------------------------------------------------*/
  95:Core/Src/main.c **** 
  96:Core/Src/main.c ****     /* Reset of all peripherals, Initializes the Flash interface and the Systick. */
  97:Core/Src/main.c ****     HAL_Init();
  98:Core/Src/main.c **** 
  99:Core/Src/main.c ****     /* USER CODE BEGIN Init */
 100:Core/Src/main.c ****     /* USER CODE END Init */
 101:Core/Src/main.c **** 
 102:Core/Src/main.c ****     /* Configure the system clock */
 103:Core/Src/main.c ****     SystemClock_Config();
 104:Core/Src/main.c **** 
 105:Core/Src/main.c ****     /* USER CODE BEGIN SysInit */
 106:Core/Src/main.c **** 
 107:Core/Src/main.c ****     /* USER CODE END SysInit */
 108:Core/Src/main.c **** 
 109:Core/Src/main.c ****     /* Initialize all configured peripherals */
 110:Core/Src/main.c ****     MX_GPIO_Init();
 111:Core/Src/main.c ****     MX_DMA_Init();
 112:Core/Src/main.c ****     MX_I2C1_Init();
 113:Core/Src/main.c ****     MX_USART2_UART_Init();
 114:Core/Src/main.c ****     MX_TIM10_Init();
 115:Core/Src/main.c ****     /* USER CODE BEGIN 2 */
 116:Core/Src/main.c ****     //Initialize the DMA callback (will be called when we receive an instruction from the PC on UAR
 117:Core/Src/main.c ****     HAL_UART_Receive_DMA(&huart2, UART2_rxBuffer, UART2_BUFFER_SIZE);
 118:Core/Src/main.c ****     HAL_TIM_Base_Start_IT(&htim10);
 119:Core/Src/main.c **** 
 120:Core/Src/main.c ****     setTargetDeviceAddress(&hi2c1, 0x53 << 1);
 121:Core/Src/main.c **** 
 122:Core/Src/main.c ****     HAL_StatusTypeDef status;
 123:Core/Src/main.c ****     int id = 0;
 124:Core/Src/main.c ****     Accelerations accelerometerData;
 125:Core/Src/main.c **** 
 126:Core/Src/main.c ****     //Initialize the module
 127:Core/Src/main.c ****     status = AccelInit(&hi2c1);
 128:Core/Src/main.c ****     if (status == HAL_OK)
 129:Core/Src/main.c ****     {
 130:Core/Src/main.c ****         sprintf(message, "ADXL345 Module has been initialized successfully!\n");
 131:Core/Src/main.c ****         HAL_UART_Transmit(&huart2, (uint8_t *)&message, 50, 100);
 132:Core/Src/main.c ****     }
 133:Core/Src/main.c ****     else
 134:Core/Src/main.c ****     {
 135:Core/Src/main.c ****         HAL_UART_Transmit(&huart2, (uint8_t *)"ERROR!\n", 7, 100);
ARM GAS  C:\Users\zacfi\AppData\Local\Temp\cc63mGqR.s 			page 4


 136:Core/Src/main.c ****     }
 137:Core/Src/main.c **** 
 138:Core/Src/main.c ****     //Get ID of Accelerometer module (ensures the connection is working correctly)
 139:Core/Src/main.c ****     status = AccelGetId(&hi2c1, &id);
 140:Core/Src/main.c ****     if (status == HAL_OK)
 141:Core/Src/main.c ****     {
 142:Core/Src/main.c ****         sprintf(message, "ADXL345 ID is : %o\n", id);
 143:Core/Src/main.c ****         HAL_UART_Transmit(&huart2, (uint8_t *)&message, 20, 100);
 144:Core/Src/main.c ****     }
 145:Core/Src/main.c ****     else
 146:Core/Src/main.c ****     {
 147:Core/Src/main.c ****         HAL_UART_Transmit(&huart2, (uint8_t *)"ERROR!\n", 7, 100);
 148:Core/Src/main.c ****     }
 149:Core/Src/main.c ****     /* USER CODE END 2 */
 150:Core/Src/main.c **** 
 151:Core/Src/main.c ****     /* Infinite loop */
 152:Core/Src/main.c ****     /* USER CODE BEGIN WHILE */
 153:Core/Src/main.c ****     while (1)
 154:Core/Src/main.c ****     {
 155:Core/Src/main.c ****         if (handshake && send)
 156:Core/Src/main.c ****         {
 157:Core/Src/main.c ****             HAL_GPIO_TogglePin(LD2_GPIO_Port, LD2_Pin);
 158:Core/Src/main.c ****             status = getAccelerations(&hi2c1, &accelerometerData);
 159:Core/Src/main.c ****             if (status == HAL_OK)
 160:Core/Src/main.c ****             {
 161:Core/Src/main.c ****                 memset(message, 0, sizeof(message));
 162:Core/Src/main.c ****                 // float xf = (float)accelerometerData.x * 3.9f / 1000.0;
 163:Core/Src/main.c ****                 // float yf = (float)accelerometerData.y * 3.9f / 1000.0;
 164:Core/Src/main.c ****                 // float zf = (float)accelerometerData.z * 3.9f / 1000.0;
 165:Core/Src/main.c ****                 // sprintf(message, "X : %5.5f    Y : %5.5f    Z : %5.5f\n", xf, yf, zf);
 166:Core/Src/main.c ****                 // Add the accelerometer data to the message to send
 167:Core/Src/main.c ****                 message[0] = (accelerometerData.x & 0xFF00) >> 8;
 168:Core/Src/main.c ****                 message[1] = (accelerometerData.x & 0x00FF);
 169:Core/Src/main.c ****                 message[2] = (accelerometerData.y & 0xFF00) >> 8;
 170:Core/Src/main.c ****                 message[3] = (accelerometerData.y & 0x00FF);
 171:Core/Src/main.c ****                 message[4] = (accelerometerData.z & 0xFF00) >> 8;
 172:Core/Src/main.c ****                 message[5] = (accelerometerData.z & 0x00FF);
 173:Core/Src/main.c ****                 for (int i = 0; i < 8; ++i)
 174:Core/Src/main.c ****                 {
 175:Core/Src/main.c ****                     uint64_t offset = (8 << 3) - ((i + 1) << 3);
 176:Core/Src/main.c ****                     message[6 + i] = (utc_timestamp_ms & ((uint64_t)0xFF << offset)) >> offset;
 177:Core/Src/main.c ****                 }
 178:Core/Src/main.c ****                 message[14] = 0xAA;
 179:Core/Src/main.c ****                 message[15] = 0x55;
 180:Core/Src/main.c ****                 HAL_UART_Transmit(&huart2, (uint8_t *)message, 16, 100);
 181:Core/Src/main.c ****             }
 182:Core/Src/main.c ****             else
 183:Core/Src/main.c ****             {
 184:Core/Src/main.c ****                 sprintf(message, "Error!\n");
 185:Core/Src/main.c ****                 HAL_UART_Transmit(&huart2, (uint8_t *)message, 7, 100);
 186:Core/Src/main.c ****             }
 187:Core/Src/main.c ****         }
 188:Core/Src/main.c ****         HAL_Delay(10);
 189:Core/Src/main.c ****     }
 190:Core/Src/main.c ****     /* USER CODE END WHILE */
 191:Core/Src/main.c **** 
 192:Core/Src/main.c ****     /* USER CODE BEGIN 3 */
ARM GAS  C:\Users\zacfi\AppData\Local\Temp\cc63mGqR.s 			page 5


 193:Core/Src/main.c ****     /* USER CODE END 3 */
 194:Core/Src/main.c **** }
 195:Core/Src/main.c **** 
 196:Core/Src/main.c **** /**
 197:Core/Src/main.c ****   * @brief System Clock Configuration
 198:Core/Src/main.c ****   * @retval None
 199:Core/Src/main.c ****   */
 200:Core/Src/main.c **** void SystemClock_Config(void)
 201:Core/Src/main.c **** {
 202:Core/Src/main.c ****     RCC_OscInitTypeDef RCC_OscInitStruct = {0};
 203:Core/Src/main.c ****     RCC_ClkInitTypeDef RCC_ClkInitStruct = {0};
 204:Core/Src/main.c **** 
 205:Core/Src/main.c ****     /** Configure the main internal regulator output voltage
 206:Core/Src/main.c ****   */
 207:Core/Src/main.c ****     __HAL_RCC_PWR_CLK_ENABLE();
 208:Core/Src/main.c ****     __HAL_PWR_VOLTAGESCALING_CONFIG(PWR_REGULATOR_VOLTAGE_SCALE3);
 209:Core/Src/main.c ****     /** Initializes the RCC Oscillators according to the specified parameters
 210:Core/Src/main.c ****   * in the RCC_OscInitTypeDef structure.
 211:Core/Src/main.c ****   */
 212:Core/Src/main.c ****     RCC_OscInitStruct.OscillatorType = RCC_OSCILLATORTYPE_HSI;
 213:Core/Src/main.c ****     RCC_OscInitStruct.HSIState = RCC_HSI_ON;
 214:Core/Src/main.c ****     RCC_OscInitStruct.HSICalibrationValue = RCC_HSICALIBRATION_DEFAULT;
 215:Core/Src/main.c ****     RCC_OscInitStruct.PLL.PLLState = RCC_PLL_ON;
 216:Core/Src/main.c ****     RCC_OscInitStruct.PLL.PLLSource = RCC_PLLSOURCE_HSI;
 217:Core/Src/main.c ****     RCC_OscInitStruct.PLL.PLLM = 8;
 218:Core/Src/main.c ****     RCC_OscInitStruct.PLL.PLLN = 90;
 219:Core/Src/main.c ****     RCC_OscInitStruct.PLL.PLLP = RCC_PLLP_DIV2;
 220:Core/Src/main.c ****     RCC_OscInitStruct.PLL.PLLQ = 2;
 221:Core/Src/main.c ****     RCC_OscInitStruct.PLL.PLLR = 2;
 222:Core/Src/main.c ****     if (HAL_RCC_OscConfig(&RCC_OscInitStruct) != HAL_OK)
 223:Core/Src/main.c ****     {
 224:Core/Src/main.c ****         Error_Handler();
 225:Core/Src/main.c ****     }
 226:Core/Src/main.c ****     /** Initializes the CPU, AHB and APB buses clocks
 227:Core/Src/main.c ****   */
 228:Core/Src/main.c ****     RCC_ClkInitStruct.ClockType = RCC_CLOCKTYPE_HCLK | RCC_CLOCKTYPE_SYSCLK | RCC_CLOCKTYPE_PCLK1 |
 229:Core/Src/main.c ****     RCC_ClkInitStruct.SYSCLKSource = RCC_SYSCLKSOURCE_PLLCLK;
 230:Core/Src/main.c ****     RCC_ClkInitStruct.AHBCLKDivider = RCC_SYSCLK_DIV1;
 231:Core/Src/main.c ****     RCC_ClkInitStruct.APB1CLKDivider = RCC_HCLK_DIV2;
 232:Core/Src/main.c ****     RCC_ClkInitStruct.APB2CLKDivider = RCC_HCLK_DIV1;
 233:Core/Src/main.c **** 
 234:Core/Src/main.c ****     if (HAL_RCC_ClockConfig(&RCC_ClkInitStruct, FLASH_LATENCY_2) != HAL_OK)
 235:Core/Src/main.c ****     {
 236:Core/Src/main.c ****         Error_Handler();
 237:Core/Src/main.c ****     }
 238:Core/Src/main.c **** }
 239:Core/Src/main.c **** 
 240:Core/Src/main.c **** /* USER CODE BEGIN 4 */
 241:Core/Src/main.c **** 
 242:Core/Src/main.c **** inline int modulo(int a, int b)
 243:Core/Src/main.c **** {
 244:Core/Src/main.c ****     if (b < 0)
 245:Core/Src/main.c ****         return modulo(-a, -b);
 246:Core/Src/main.c ****     const int result = a % b;
 247:Core/Src/main.c ****     return result >= 0 ? result : result + b;
 248:Core/Src/main.c **** }
 249:Core/Src/main.c **** 
ARM GAS  C:\Users\zacfi\AppData\Local\Temp\cc63mGqR.s 			page 6


 250:Core/Src/main.c **** // This function is called when the UART2_rxBuffer gets full
 251:Core/Src/main.c **** // we can than check it's content to know which command was sent to us
 252:Core/Src/main.c **** void HAL_UART_RxCpltCallback(UART_HandleTypeDef *huart)
 253:Core/Src/main.c **** {
  34              		.loc 1 253 1 view -0
  35              		.cfi_startproc
  36              		@ args = 0, pretend = 0, frame = 0
  37              		@ frame_needed = 0, uses_anonymous_args = 0
  38              		.loc 1 253 1 is_stmt 0 view .LVU1
  39 0000 70B5     		push	{r4, r5, r6, lr}
  40              	.LCFI0:
  41              		.cfi_def_cfa_offset 16
  42              		.cfi_offset 4, -16
  43              		.cfi_offset 5, -12
  44              		.cfi_offset 6, -8
  45              		.cfi_offset 14, -4
 254:Core/Src/main.c ****     //Find start of command (if we ever miss a byte, this serves as an alignement byte since we use
 255:Core/Src/main.c ****     int i = 0;
  46              		.loc 1 255 5 is_stmt 1 view .LVU2
  47              	.LVL1:
 256:Core/Src/main.c ****     for (i = 0; i < UART2_BUFFER_SIZE; ++i)
  48              		.loc 1 256 5 view .LVU3
  49              		.loc 1 256 12 is_stmt 0 view .LVU4
  50 0002 4FF0000C 		mov	ip, #0
  51              	.LVL2:
  52              	.L2:
  53              		.loc 1 256 17 is_stmt 1 discriminator 1 view .LVU5
  54              		.loc 1 256 5 is_stmt 0 discriminator 1 view .LVU6
  55 0006 BCF1090F 		cmp	ip, #9
  56 000a 1CDC     		bgt	.L6
 257:Core/Src/main.c ****     {
 258:Core/Src/main.c ****         if (UART2_rxBuffer[i] == TRANSMISSION_START)
  57              		.loc 1 258 9 is_stmt 1 view .LVU7
  58              		.loc 1 258 27 is_stmt 0 view .LVU8
  59 000c 524B     		ldr	r3, .L22
  60 000e 13F80C30 		ldrb	r3, [r3, ip]	@ zero_extendqisi2
  61              		.loc 1 258 12 view .LVU9
  62 0012 022B     		cmp	r3, #2
  63 0014 06D0     		beq	.L5
 256:Core/Src/main.c ****     for (i = 0; i < UART2_BUFFER_SIZE; ++i)
  64              		.loc 1 256 40 is_stmt 1 discriminator 2 view .LVU10
  65 0016 0CF1010C 		add	ip, ip, #1
  66              	.LVL3:
 256:Core/Src/main.c ****     for (i = 0; i < UART2_BUFFER_SIZE; ++i)
  67              		.loc 1 256 40 is_stmt 0 discriminator 2 view .LVU11
  68 001a F4E7     		b	.L2
  69              	.LVL4:
  70              	.L4:
 259:Core/Src/main.c ****         {
 260:Core/Src/main.c ****             while (UART2_rxBuffer[modulo(i - 1, UART2_BUFFER_SIZE)] != TRANSMISSION_END)
  71              		.loc 1 260 34 view .LVU12
  72 001c 4E4A     		ldr	r2, .L22
  73 001e D35C     		ldrb	r3, [r2, r3]	@ zero_extendqisi2
  74              		.loc 1 260 19 view .LVU13
  75 0020 042B     		cmp	r3, #4
  76 0022 0ED0     		beq	.L20
  77              	.L5:
ARM GAS  C:\Users\zacfi\AppData\Local\Temp\cc63mGqR.s 			page 7


 261:Core/Src/main.c ****                 ; //Wait for the complete command to get transfered
  78              		.loc 1 261 17 is_stmt 1 discriminator 1 view .LVU14
 260:Core/Src/main.c ****                 ; //Wait for the complete command to get transfered
  79              		.loc 1 260 19 discriminator 1 view .LVU15
 260:Core/Src/main.c ****                 ; //Wait for the complete command to get transfered
  80              		.loc 1 260 35 is_stmt 0 discriminator 1 view .LVU16
  81 0024 0CF1FF32 		add	r2, ip, #-1
  82              	.LVL5:
  83              	.LBB9:
  84              	.LBI9:
 242:Core/Src/main.c **** {
  85              		.loc 1 242 12 is_stmt 1 discriminator 1 view .LVU17
  86              	.LBB10:
 244:Core/Src/main.c ****         return modulo(-a, -b);
  87              		.loc 1 244 5 discriminator 1 view .LVU18
 246:Core/Src/main.c ****     return result >= 0 ? result : result + b;
  88              		.loc 1 246 5 discriminator 1 view .LVU19
 246:Core/Src/main.c ****     return result >= 0 ? result : result + b;
  89              		.loc 1 246 15 is_stmt 0 discriminator 1 view .LVU20
  90 0028 4C49     		ldr	r1, .L22+4
  91 002a 81FB0231 		smull	r3, r1, r1, r2
  92 002e D317     		asrs	r3, r2, #31
  93 0030 C3EBA103 		rsb	r3, r3, r1, asr #2
  94 0034 03EB8303 		add	r3, r3, r3, lsl #2
  95 0038 5900     		lsls	r1, r3, #1
  96              	.LVL6:
 247:Core/Src/main.c **** }
  97              		.loc 1 247 5 is_stmt 1 discriminator 1 view .LVU21
 247:Core/Src/main.c **** }
  98              		.loc 1 247 33 is_stmt 0 discriminator 1 view .LVU22
  99 003a 531A     		subs	r3, r2, r1
 100              	.LVL7:
 247:Core/Src/main.c **** }
 101              		.loc 1 247 33 discriminator 1 view .LVU23
 102 003c EED5     		bpl	.L4
 247:Core/Src/main.c **** }
 103              		.loc 1 247 33 view .LVU24
 104 003e 0A33     		adds	r3, r3, #10
 105              	.LVL8:
 247:Core/Src/main.c **** }
 106              		.loc 1 247 33 view .LVU25
 107 0040 ECE7     		b	.L4
 108              	.LVL9:
 109              	.L20:
 247:Core/Src/main.c **** }
 110              		.loc 1 247 33 view .LVU26
 111              	.LBE10:
 112              	.LBE9:
 262:Core/Src/main.c ****             i += 1;
 113              		.loc 1 262 13 is_stmt 1 view .LVU27
 114              		.loc 1 262 15 is_stmt 0 view .LVU28
 115 0042 0CF1010C 		add	ip, ip, #1
 116              	.LVL10:
 263:Core/Src/main.c ****             break;
 117              		.loc 1 263 13 is_stmt 1 view .LVU29
 118              	.L6:
 264:Core/Src/main.c ****         }
ARM GAS  C:\Users\zacfi\AppData\Local\Temp\cc63mGqR.s 			page 8


 265:Core/Src/main.c ****     }
 266:Core/Src/main.c ****     rcv_command = 0;
 119              		.loc 1 266 5 view .LVU30
 120              		.loc 1 266 17 is_stmt 0 view .LVU31
 121 0046 464B     		ldr	r3, .L22+8
 122 0048 0020     		movs	r0, #0
 123              	.LVL11:
 124              		.loc 1 266 17 view .LVU32
 125 004a 0021     		movs	r1, #0
 126 004c C3E90001 		strd	r0, [r3]
 267:Core/Src/main.c ****     for (int j = 0; j < UART2_BUFFER_SIZE - 2; ++j)
 127              		.loc 1 267 5 is_stmt 1 view .LVU33
 128              	.LBB11:
 129              		.loc 1 267 10 view .LVU34
 130              	.LVL12:
 131              		.loc 1 267 5 is_stmt 0 view .LVU35
 132 0050 18E0     		b	.L8
 133              	.LVL13:
 134              	.L9:
 268:Core/Src/main.c ****     {
 269:Core/Src/main.c ****         rcv_command += ((uint64_t)UART2_rxBuffer[modulo(i + j, UART2_BUFFER_SIZE)] << (((UART2_BUFF
 135              		.loc 1 269 49 view .LVU36
 136 0052 414A     		ldr	r2, .L22
 137 0054 D25C     		ldrb	r2, [r2, r3]	@ zero_extendqisi2
 138              		.loc 1 269 125 view .LVU37
 139 0056 0130     		adds	r0, r0, #1
 140              	.LVL14:
 141              		.loc 1 269 130 view .LVU38
 142 0058 C300     		lsls	r3, r0, #3
 143              		.loc 1 269 119 view .LVU39
 144 005a C3F1400E 		rsb	lr, r3, #64
 145              		.loc 1 269 84 view .LVU40
 146 005e C3F12004 		rsb	r4, r3, #32
 147 0062 203B     		subs	r3, r3, #32
 148 0064 02FA04F4 		lsl	r4, r2, r4
 149 0068 22FA03F3 		lsr	r3, r2, r3
 150 006c 44EA0301 		orr	r1, r4, r3
 151 0070 02FA0EF2 		lsl	r2, r2, lr
 152              		.loc 1 269 21 view .LVU41
 153 0074 3A4C     		ldr	r4, .L22+8
 154 0076 2368     		ldr	r3, [r4]
 155 0078 9A18     		adds	r2, r3, r2
 156 007a 6368     		ldr	r3, [r4, #4]
 157 007c 41EB0301 		adc	r1, r1, r3
 158 0080 2260     		str	r2, [r4]
 159 0082 6160     		str	r1, [r4, #4]
 267:Core/Src/main.c ****     for (int j = 0; j < UART2_BUFFER_SIZE - 2; ++j)
 160              		.loc 1 267 48 is_stmt 1 view .LVU42
 161              	.LVL15:
 162              	.L8:
 267:Core/Src/main.c ****     for (int j = 0; j < UART2_BUFFER_SIZE - 2; ++j)
 163              		.loc 1 267 21 discriminator 1 view .LVU43
 267:Core/Src/main.c ****     for (int j = 0; j < UART2_BUFFER_SIZE - 2; ++j)
 164              		.loc 1 267 5 is_stmt 0 discriminator 1 view .LVU44
 165 0084 0728     		cmp	r0, #7
 166 0086 0EDC     		bgt	.L21
 167              		.loc 1 269 9 is_stmt 1 discriminator 3 view .LVU45
ARM GAS  C:\Users\zacfi\AppData\Local\Temp\cc63mGqR.s 			page 9


 168              		.loc 1 269 50 is_stmt 0 discriminator 3 view .LVU46
 169 0088 0CEB0002 		add	r2, ip, r0
 170              	.LVL16:
 171              	.LBB12:
 172              	.LBI12:
 242:Core/Src/main.c **** {
 173              		.loc 1 242 12 is_stmt 1 discriminator 3 view .LVU47
 174              	.LBB13:
 244:Core/Src/main.c ****         return modulo(-a, -b);
 175              		.loc 1 244 5 discriminator 3 view .LVU48
 246:Core/Src/main.c ****     return result >= 0 ? result : result + b;
 176              		.loc 1 246 5 discriminator 3 view .LVU49
 246:Core/Src/main.c ****     return result >= 0 ? result : result + b;
 177              		.loc 1 246 15 is_stmt 0 discriminator 3 view .LVU50
 178 008c 3349     		ldr	r1, .L22+4
 179 008e 81FB0231 		smull	r3, r1, r1, r2
 180 0092 D317     		asrs	r3, r2, #31
 181 0094 C3EBA103 		rsb	r3, r3, r1, asr #2
 182 0098 03EB8303 		add	r3, r3, r3, lsl #2
 183 009c 5900     		lsls	r1, r3, #1
 184              	.LVL17:
 247:Core/Src/main.c **** }
 185              		.loc 1 247 5 is_stmt 1 discriminator 3 view .LVU51
 247:Core/Src/main.c **** }
 186              		.loc 1 247 33 is_stmt 0 discriminator 3 view .LVU52
 187 009e 531A     		subs	r3, r2, r1
 188              	.LVL18:
 247:Core/Src/main.c **** }
 189              		.loc 1 247 33 discriminator 3 view .LVU53
 190 00a0 D7D5     		bpl	.L9
 247:Core/Src/main.c **** }
 191              		.loc 1 247 33 view .LVU54
 192 00a2 0A33     		adds	r3, r3, #10
 193              	.LVL19:
 247:Core/Src/main.c **** }
 194              		.loc 1 247 33 view .LVU55
 195 00a4 D5E7     		b	.L9
 196              	.LVL20:
 197              	.L21:
 247:Core/Src/main.c **** }
 198              		.loc 1 247 33 view .LVU56
 199              	.LBE13:
 200              	.LBE12:
 201              	.LBE11:
 270:Core/Src/main.c ****     }
 271:Core/Src/main.c ****     if (setting_time)
 202              		.loc 1 271 5 is_stmt 1 view .LVU57
 203              		.loc 1 271 9 is_stmt 0 view .LVU58
 204 00a6 2F4B     		ldr	r3, .L22+12
 205 00a8 1B78     		ldrb	r3, [r3]	@ zero_extendqisi2
 206              		.loc 1 271 8 view .LVU59
 207 00aa 4BB1     		cbz	r3, .L11
 272:Core/Src/main.c ****     {
 273:Core/Src/main.c ****         setting_time = false;
 208              		.loc 1 273 9 is_stmt 1 view .LVU60
 209              		.loc 1 273 22 is_stmt 0 view .LVU61
 210 00ac 2D4B     		ldr	r3, .L22+12
ARM GAS  C:\Users\zacfi\AppData\Local\Temp\cc63mGqR.s 			page 10


 211 00ae 0022     		movs	r2, #0
 212 00b0 1A70     		strb	r2, [r3]
 274:Core/Src/main.c ****         utc_timestamp_ms = rcv_command;
 213              		.loc 1 274 9 is_stmt 1 view .LVU62
 214              		.loc 1 274 26 is_stmt 0 view .LVU63
 215 00b2 2B4B     		ldr	r3, .L22+8
 216 00b4 D3E90001 		ldrd	r0, [r3]
 217              	.LVL21:
 218              		.loc 1 274 26 view .LVU64
 219 00b8 2B4B     		ldr	r3, .L22+16
 220 00ba C3E90001 		strd	r0, [r3]
 221              	.LVL22:
 222              	.L1:
 275:Core/Src/main.c ****     }
 276:Core/Src/main.c ****     else
 277:Core/Src/main.c ****     {
 278:Core/Src/main.c ****         switch (rcv_command)
 279:Core/Src/main.c ****         {
 280:Core/Src/main.c ****         case HANDSHAKE:
 281:Core/Src/main.c ****             handshake = true;
 282:Core/Src/main.c ****             break;
 283:Core/Src/main.c ****         case SET_TIME:
 284:Core/Src/main.c ****             setting_time = true;
 285:Core/Src/main.c ****             break;
 286:Core/Src/main.c ****         case START_READING:
 287:Core/Src/main.c ****             if (handshake)
 288:Core/Src/main.c ****                 send = true;
 289:Core/Src/main.c ****             break;
 290:Core/Src/main.c ****         case STOP_READING:
 291:Core/Src/main.c ****             if (handshake)
 292:Core/Src/main.c ****                 send = false;
 293:Core/Src/main.c ****             break;
 294:Core/Src/main.c ****         default:
 295:Core/Src/main.c ****             memset(message, 0, sizeof(message));
 296:Core/Src/main.c ****             sprintf(message, "Error during transmission, received : 0x%08x", rcv_command);
 297:Core/Src/main.c ****             HAL_UART_Transmit(&huart2, message, 50, 100);
 298:Core/Src/main.c ****         }
 299:Core/Src/main.c ****     }
 300:Core/Src/main.c **** }
 223              		.loc 1 300 1 view .LVU65
 224 00be 70BD     		pop	{r4, r5, r6, pc}
 225              	.LVL23:
 226              	.L11:
 278:Core/Src/main.c ****         {
 227              		.loc 1 278 9 is_stmt 1 view .LVU66
 228 00c0 274B     		ldr	r3, .L22+8
 229 00c2 1D68     		ldr	r5, [r3]
 230 00c4 5C68     		ldr	r4, [r3, #4]
 231 00c6 294B     		ldr	r3, .L22+20
 232 00c8 002C     		cmp	r4, #0
 233 00ca 08BF     		it	eq
 234 00cc 9D42     		cmpeq	r5, r3
 235 00ce 2BD0     		beq	.L13
 236 00d0 AB42     		cmp	r3, r5
 237 00d2 4FF00003 		mov	r3, #0
 238 00d6 A341     		sbcs	r3, r3, r4
 239 00d8 15D3     		bcc	.L14
ARM GAS  C:\Users\zacfi\AppData\Local\Temp\cc63mGqR.s 			page 11


 240 00da 254B     		ldr	r3, .L22+24
 241 00dc 002C     		cmp	r4, #0
 242 00de 08BF     		it	eq
 243 00e0 9D42     		cmpeq	r5, r3
 244 00e2 1DD0     		beq	.L15
 245 00e4 03F1BC73 		add	r3, r3, #24641536
 246 00e8 03F54953 		add	r3, r3, #12864
 247 00ec 2533     		adds	r3, r3, #37
 248 00ee 002C     		cmp	r4, #0
 249 00f0 08BF     		it	eq
 250 00f2 9D42     		cmpeq	r5, r3
 251 00f4 1CD1     		bne	.L17
 287:Core/Src/main.c ****                 send = true;
 252              		.loc 1 287 13 view .LVU67
 287:Core/Src/main.c ****                 send = true;
 253              		.loc 1 287 17 is_stmt 0 view .LVU68
 254 00f6 1F4B     		ldr	r3, .L22+28
 255 00f8 1B78     		ldrb	r3, [r3]	@ zero_extendqisi2
 287:Core/Src/main.c ****                 send = true;
 256              		.loc 1 287 16 view .LVU69
 257 00fa 002B     		cmp	r3, #0
 258 00fc DFD0     		beq	.L1
 288:Core/Src/main.c ****             break;
 259              		.loc 1 288 17 is_stmt 1 view .LVU70
 288:Core/Src/main.c ****             break;
 260              		.loc 1 288 22 is_stmt 0 view .LVU71
 261 00fe 1E4B     		ldr	r3, .L22+32
 262 0100 0122     		movs	r2, #1
 263 0102 1A70     		strb	r2, [r3]
 264 0104 DBE7     		b	.L1
 265              	.L14:
 278:Core/Src/main.c ****         {
 266              		.loc 1 278 9 view .LVU72
 267 0106 1D4B     		ldr	r3, .L22+36
 268 0108 002C     		cmp	r4, #0
 269 010a 08BF     		it	eq
 270 010c 9D42     		cmpeq	r5, r3
 271 010e 0FD1     		bne	.L17
 291:Core/Src/main.c ****                 send = false;
 272              		.loc 1 291 13 is_stmt 1 view .LVU73
 291:Core/Src/main.c ****                 send = false;
 273              		.loc 1 291 17 is_stmt 0 view .LVU74
 274 0110 184B     		ldr	r3, .L22+28
 275 0112 1B78     		ldrb	r3, [r3]	@ zero_extendqisi2
 291:Core/Src/main.c ****                 send = false;
 276              		.loc 1 291 16 view .LVU75
 277 0114 002B     		cmp	r3, #0
 278 0116 D2D0     		beq	.L1
 292:Core/Src/main.c ****             break;
 279              		.loc 1 292 17 is_stmt 1 view .LVU76
 292:Core/Src/main.c ****             break;
 280              		.loc 1 292 22 is_stmt 0 view .LVU77
 281 0118 174B     		ldr	r3, .L22+32
 282 011a 0022     		movs	r2, #0
 283 011c 1A70     		strb	r2, [r3]
 284 011e CEE7     		b	.L1
 285              	.L15:
ARM GAS  C:\Users\zacfi\AppData\Local\Temp\cc63mGqR.s 			page 12


 281:Core/Src/main.c ****             break;
 286              		.loc 1 281 13 is_stmt 1 view .LVU78
 281:Core/Src/main.c ****             break;
 287              		.loc 1 281 23 is_stmt 0 view .LVU79
 288 0120 144B     		ldr	r3, .L22+28
 289 0122 0122     		movs	r2, #1
 290 0124 1A70     		strb	r2, [r3]
 282:Core/Src/main.c ****         case SET_TIME:
 291              		.loc 1 282 13 is_stmt 1 view .LVU80
 292 0126 CAE7     		b	.L1
 293              	.L13:
 284:Core/Src/main.c ****             break;
 294              		.loc 1 284 13 view .LVU81
 284:Core/Src/main.c ****             break;
 295              		.loc 1 284 26 is_stmt 0 view .LVU82
 296 0128 0E4B     		ldr	r3, .L22+12
 297 012a 0122     		movs	r2, #1
 298 012c 1A70     		strb	r2, [r3]
 285:Core/Src/main.c ****         case START_READING:
 299              		.loc 1 285 13 is_stmt 1 view .LVU83
 300 012e C6E7     		b	.L1
 301              	.L17:
 295:Core/Src/main.c ****             sprintf(message, "Error during transmission, received : 0x%08x", rcv_command);
 302              		.loc 1 295 13 view .LVU84
 303 0130 134E     		ldr	r6, .L22+40
 304 0132 4FF48072 		mov	r2, #256
 305 0136 0021     		movs	r1, #0
 306 0138 3046     		mov	r0, r6
 307              	.LVL24:
 295:Core/Src/main.c ****             sprintf(message, "Error during transmission, received : 0x%08x", rcv_command);
 308              		.loc 1 295 13 is_stmt 0 view .LVU85
 309 013a FFF7FEFF 		bl	memset
 310              	.LVL25:
 296:Core/Src/main.c ****             HAL_UART_Transmit(&huart2, message, 50, 100);
 311              		.loc 1 296 13 is_stmt 1 view .LVU86
 312 013e 2A46     		mov	r2, r5
 313 0140 2346     		mov	r3, r4
 314 0142 1049     		ldr	r1, .L22+44
 315 0144 3046     		mov	r0, r6
 316 0146 FFF7FEFF 		bl	sprintf
 317              	.LVL26:
 297:Core/Src/main.c ****         }
 318              		.loc 1 297 13 view .LVU87
 319 014a 6423     		movs	r3, #100
 320 014c 3222     		movs	r2, #50
 321 014e 3146     		mov	r1, r6
 322 0150 0D48     		ldr	r0, .L22+48
 323 0152 FFF7FEFF 		bl	HAL_UART_Transmit
 324              	.LVL27:
 325              		.loc 1 300 1 is_stmt 0 view .LVU88
 326 0156 B2E7     		b	.L1
 327              	.L23:
 328              		.align	2
 329              	.L22:
 330 0158 00000000 		.word	.LANCHOR0
 331 015c 67666666 		.word	1717986919
 332 0160 00000000 		.word	.LANCHOR1
ARM GAS  C:\Users\zacfi\AppData\Local\Temp\cc63mGqR.s 			page 13


 333 0164 00000000 		.word	.LANCHOR2
 334 0168 00000000 		.word	.LANCHOR3
 335 016c 11EEFFC0 		.word	-1056969199
 336 0170 55AA55AA 		.word	-1437226411
 337 0174 00000000 		.word	.LANCHOR4
 338 0178 00000000 		.word	.LANCHOR5
 339 017c CDABBADC 		.word	-591746099
 340 0180 00000000 		.word	.LANCHOR6
 341 0184 00000000 		.word	.LC0
 342 0188 00000000 		.word	huart2
 343              		.cfi_endproc
 344              	.LFE136:
 346              		.section	.text.HAL_TIM_PeriodElapsedCallback,"ax",%progbits
 347              		.align	1
 348              		.global	HAL_TIM_PeriodElapsedCallback
 349              		.syntax unified
 350              		.thumb
 351              		.thumb_func
 352              		.fpu fpv4-sp-d16
 354              	HAL_TIM_PeriodElapsedCallback:
 355              	.LVL28:
 356              	.LFB137:
 301:Core/Src/main.c **** 
 302:Core/Src/main.c **** void HAL_TIM_PeriodElapsedCallback(TIM_HandleTypeDef *htim)
 303:Core/Src/main.c **** {
 357              		.loc 1 303 1 is_stmt 1 view -0
 358              		.cfi_startproc
 359              		@ args = 0, pretend = 0, frame = 0
 360              		@ frame_needed = 0, uses_anonymous_args = 0
 361              		@ link register save eliminated.
 304:Core/Src/main.c ****     if(htim == &htim10){
 362              		.loc 1 304 5 view .LVU90
 363              		.loc 1 304 7 is_stmt 0 view .LVU91
 364 0000 064B     		ldr	r3, .L27
 365 0002 8342     		cmp	r3, r0
 366 0004 00D0     		beq	.L26
 367              	.L24:
 305:Core/Src/main.c ****         utc_timestamp_ms++;
 306:Core/Src/main.c ****     }
 307:Core/Src/main.c **** }
 368              		.loc 1 307 1 view .LVU92
 369 0006 7047     		bx	lr
 370              	.L26:
 305:Core/Src/main.c ****         utc_timestamp_ms++;
 371              		.loc 1 305 9 is_stmt 1 view .LVU93
 305:Core/Src/main.c ****         utc_timestamp_ms++;
 372              		.loc 1 305 25 is_stmt 0 view .LVU94
 373 0008 054A     		ldr	r2, .L27+4
 374 000a 1368     		ldr	r3, [r2]
 375 000c 5168     		ldr	r1, [r2, #4]
 376 000e 0133     		adds	r3, r3, #1
 377 0010 41F10001 		adc	r1, r1, #0
 378 0014 1360     		str	r3, [r2]
 379 0016 5160     		str	r1, [r2, #4]
 380              		.loc 1 307 1 view .LVU95
 381 0018 F5E7     		b	.L24
 382              	.L28:
ARM GAS  C:\Users\zacfi\AppData\Local\Temp\cc63mGqR.s 			page 14


 383 001a 00BF     		.align	2
 384              	.L27:
 385 001c 00000000 		.word	htim10
 386 0020 00000000 		.word	.LANCHOR3
 387              		.cfi_endproc
 388              	.LFE137:
 390              		.section	.text.Error_Handler,"ax",%progbits
 391              		.align	1
 392              		.global	Error_Handler
 393              		.syntax unified
 394              		.thumb
 395              		.thumb_func
 396              		.fpu fpv4-sp-d16
 398              	Error_Handler:
 399              	.LFB138:
 308:Core/Src/main.c **** 
 309:Core/Src/main.c **** /* USER CODE END 4 */
 310:Core/Src/main.c **** 
 311:Core/Src/main.c **** /**
 312:Core/Src/main.c ****   * @brief  This function is executed in case of error occurrence.
 313:Core/Src/main.c ****   * @retval None
 314:Core/Src/main.c ****   */
 315:Core/Src/main.c **** void Error_Handler(void)
 316:Core/Src/main.c **** {
 400              		.loc 1 316 1 is_stmt 1 view -0
 401              		.cfi_startproc
 402              		@ Volatile: function does not return.
 403              		@ args = 0, pretend = 0, frame = 0
 404              		@ frame_needed = 0, uses_anonymous_args = 0
 405              		@ link register save eliminated.
 317:Core/Src/main.c ****     /* USER CODE BEGIN Error_Handler_Debug */
 318:Core/Src/main.c ****     /* User can add his own implementation to report the HAL error return state */
 319:Core/Src/main.c ****     __disable_irq();
 406              		.loc 1 319 5 view .LVU97
 407              	.LBB14:
 408              	.LBI14:
 409              		.file 2 "Drivers/CMSIS/Include/cmsis_gcc.h"
   1:Drivers/CMSIS/Include/cmsis_gcc.h **** /**************************************************************************//**
   2:Drivers/CMSIS/Include/cmsis_gcc.h ****  * @file     cmsis_gcc.h
   3:Drivers/CMSIS/Include/cmsis_gcc.h ****  * @brief    CMSIS compiler GCC header file
   4:Drivers/CMSIS/Include/cmsis_gcc.h ****  * @version  V5.0.4
   5:Drivers/CMSIS/Include/cmsis_gcc.h ****  * @date     09. April 2018
   6:Drivers/CMSIS/Include/cmsis_gcc.h ****  ******************************************************************************/
   7:Drivers/CMSIS/Include/cmsis_gcc.h **** /*
   8:Drivers/CMSIS/Include/cmsis_gcc.h ****  * Copyright (c) 2009-2018 Arm Limited. All rights reserved.
   9:Drivers/CMSIS/Include/cmsis_gcc.h ****  *
  10:Drivers/CMSIS/Include/cmsis_gcc.h ****  * SPDX-License-Identifier: Apache-2.0
  11:Drivers/CMSIS/Include/cmsis_gcc.h ****  *
  12:Drivers/CMSIS/Include/cmsis_gcc.h ****  * Licensed under the Apache License, Version 2.0 (the License); you may
  13:Drivers/CMSIS/Include/cmsis_gcc.h ****  * not use this file except in compliance with the License.
  14:Drivers/CMSIS/Include/cmsis_gcc.h ****  * You may obtain a copy of the License at
  15:Drivers/CMSIS/Include/cmsis_gcc.h ****  *
  16:Drivers/CMSIS/Include/cmsis_gcc.h ****  * www.apache.org/licenses/LICENSE-2.0
  17:Drivers/CMSIS/Include/cmsis_gcc.h ****  *
  18:Drivers/CMSIS/Include/cmsis_gcc.h ****  * Unless required by applicable law or agreed to in writing, software
  19:Drivers/CMSIS/Include/cmsis_gcc.h ****  * distributed under the License is distributed on an AS IS BASIS, WITHOUT
  20:Drivers/CMSIS/Include/cmsis_gcc.h ****  * WARRANTIES OR CONDITIONS OF ANY KIND, either express or implied.
ARM GAS  C:\Users\zacfi\AppData\Local\Temp\cc63mGqR.s 			page 15


  21:Drivers/CMSIS/Include/cmsis_gcc.h ****  * See the License for the specific language governing permissions and
  22:Drivers/CMSIS/Include/cmsis_gcc.h ****  * limitations under the License.
  23:Drivers/CMSIS/Include/cmsis_gcc.h ****  */
  24:Drivers/CMSIS/Include/cmsis_gcc.h **** 
  25:Drivers/CMSIS/Include/cmsis_gcc.h **** #ifndef __CMSIS_GCC_H
  26:Drivers/CMSIS/Include/cmsis_gcc.h **** #define __CMSIS_GCC_H
  27:Drivers/CMSIS/Include/cmsis_gcc.h **** 
  28:Drivers/CMSIS/Include/cmsis_gcc.h **** /* ignore some GCC warnings */
  29:Drivers/CMSIS/Include/cmsis_gcc.h **** #pragma GCC diagnostic push
  30:Drivers/CMSIS/Include/cmsis_gcc.h **** #pragma GCC diagnostic ignored "-Wsign-conversion"
  31:Drivers/CMSIS/Include/cmsis_gcc.h **** #pragma GCC diagnostic ignored "-Wconversion"
  32:Drivers/CMSIS/Include/cmsis_gcc.h **** #pragma GCC diagnostic ignored "-Wunused-parameter"
  33:Drivers/CMSIS/Include/cmsis_gcc.h **** 
  34:Drivers/CMSIS/Include/cmsis_gcc.h **** /* Fallback for __has_builtin */
  35:Drivers/CMSIS/Include/cmsis_gcc.h **** #ifndef __has_builtin
  36:Drivers/CMSIS/Include/cmsis_gcc.h ****   #define __has_builtin(x) (0)
  37:Drivers/CMSIS/Include/cmsis_gcc.h **** #endif
  38:Drivers/CMSIS/Include/cmsis_gcc.h **** 
  39:Drivers/CMSIS/Include/cmsis_gcc.h **** /* CMSIS compiler specific defines */
  40:Drivers/CMSIS/Include/cmsis_gcc.h **** #ifndef   __ASM
  41:Drivers/CMSIS/Include/cmsis_gcc.h ****   #define __ASM                                  __asm
  42:Drivers/CMSIS/Include/cmsis_gcc.h **** #endif
  43:Drivers/CMSIS/Include/cmsis_gcc.h **** #ifndef   __INLINE
  44:Drivers/CMSIS/Include/cmsis_gcc.h ****   #define __INLINE                               inline
  45:Drivers/CMSIS/Include/cmsis_gcc.h **** #endif
  46:Drivers/CMSIS/Include/cmsis_gcc.h **** #ifndef   __STATIC_INLINE
  47:Drivers/CMSIS/Include/cmsis_gcc.h ****   #define __STATIC_INLINE                        static inline
  48:Drivers/CMSIS/Include/cmsis_gcc.h **** #endif
  49:Drivers/CMSIS/Include/cmsis_gcc.h **** #ifndef   __STATIC_FORCEINLINE                 
  50:Drivers/CMSIS/Include/cmsis_gcc.h ****   #define __STATIC_FORCEINLINE                   __attribute__((always_inline)) static inline
  51:Drivers/CMSIS/Include/cmsis_gcc.h **** #endif                                           
  52:Drivers/CMSIS/Include/cmsis_gcc.h **** #ifndef   __NO_RETURN
  53:Drivers/CMSIS/Include/cmsis_gcc.h ****   #define __NO_RETURN                            __attribute__((__noreturn__))
  54:Drivers/CMSIS/Include/cmsis_gcc.h **** #endif
  55:Drivers/CMSIS/Include/cmsis_gcc.h **** #ifndef   __USED
  56:Drivers/CMSIS/Include/cmsis_gcc.h ****   #define __USED                                 __attribute__((used))
  57:Drivers/CMSIS/Include/cmsis_gcc.h **** #endif
  58:Drivers/CMSIS/Include/cmsis_gcc.h **** #ifndef   __WEAK
  59:Drivers/CMSIS/Include/cmsis_gcc.h ****   #define __WEAK                                 __attribute__((weak))
  60:Drivers/CMSIS/Include/cmsis_gcc.h **** #endif
  61:Drivers/CMSIS/Include/cmsis_gcc.h **** #ifndef   __PACKED
  62:Drivers/CMSIS/Include/cmsis_gcc.h ****   #define __PACKED                               __attribute__((packed, aligned(1)))
  63:Drivers/CMSIS/Include/cmsis_gcc.h **** #endif
  64:Drivers/CMSIS/Include/cmsis_gcc.h **** #ifndef   __PACKED_STRUCT
  65:Drivers/CMSIS/Include/cmsis_gcc.h ****   #define __PACKED_STRUCT                        struct __attribute__((packed, aligned(1)))
  66:Drivers/CMSIS/Include/cmsis_gcc.h **** #endif
  67:Drivers/CMSIS/Include/cmsis_gcc.h **** #ifndef   __PACKED_UNION
  68:Drivers/CMSIS/Include/cmsis_gcc.h ****   #define __PACKED_UNION                         union __attribute__((packed, aligned(1)))
  69:Drivers/CMSIS/Include/cmsis_gcc.h **** #endif
  70:Drivers/CMSIS/Include/cmsis_gcc.h **** #ifndef   __UNALIGNED_UINT32        /* deprecated */
  71:Drivers/CMSIS/Include/cmsis_gcc.h ****   #pragma GCC diagnostic push
  72:Drivers/CMSIS/Include/cmsis_gcc.h ****   #pragma GCC diagnostic ignored "-Wpacked"
  73:Drivers/CMSIS/Include/cmsis_gcc.h ****   #pragma GCC diagnostic ignored "-Wattributes"
  74:Drivers/CMSIS/Include/cmsis_gcc.h ****   struct __attribute__((packed)) T_UINT32 { uint32_t v; };
  75:Drivers/CMSIS/Include/cmsis_gcc.h ****   #pragma GCC diagnostic pop
  76:Drivers/CMSIS/Include/cmsis_gcc.h ****   #define __UNALIGNED_UINT32(x)                  (((struct T_UINT32 *)(x))->v)
  77:Drivers/CMSIS/Include/cmsis_gcc.h **** #endif
ARM GAS  C:\Users\zacfi\AppData\Local\Temp\cc63mGqR.s 			page 16


  78:Drivers/CMSIS/Include/cmsis_gcc.h **** #ifndef   __UNALIGNED_UINT16_WRITE
  79:Drivers/CMSIS/Include/cmsis_gcc.h ****   #pragma GCC diagnostic push
  80:Drivers/CMSIS/Include/cmsis_gcc.h ****   #pragma GCC diagnostic ignored "-Wpacked"
  81:Drivers/CMSIS/Include/cmsis_gcc.h ****   #pragma GCC diagnostic ignored "-Wattributes"
  82:Drivers/CMSIS/Include/cmsis_gcc.h ****   __PACKED_STRUCT T_UINT16_WRITE { uint16_t v; };
  83:Drivers/CMSIS/Include/cmsis_gcc.h ****   #pragma GCC diagnostic pop
  84:Drivers/CMSIS/Include/cmsis_gcc.h ****   #define __UNALIGNED_UINT16_WRITE(addr, val)    (void)((((struct T_UINT16_WRITE *)(void *)(addr))-
  85:Drivers/CMSIS/Include/cmsis_gcc.h **** #endif
  86:Drivers/CMSIS/Include/cmsis_gcc.h **** #ifndef   __UNALIGNED_UINT16_READ
  87:Drivers/CMSIS/Include/cmsis_gcc.h ****   #pragma GCC diagnostic push
  88:Drivers/CMSIS/Include/cmsis_gcc.h ****   #pragma GCC diagnostic ignored "-Wpacked"
  89:Drivers/CMSIS/Include/cmsis_gcc.h ****   #pragma GCC diagnostic ignored "-Wattributes"
  90:Drivers/CMSIS/Include/cmsis_gcc.h ****   __PACKED_STRUCT T_UINT16_READ { uint16_t v; };
  91:Drivers/CMSIS/Include/cmsis_gcc.h ****   #pragma GCC diagnostic pop
  92:Drivers/CMSIS/Include/cmsis_gcc.h ****   #define __UNALIGNED_UINT16_READ(addr)          (((const struct T_UINT16_READ *)(const void *)(add
  93:Drivers/CMSIS/Include/cmsis_gcc.h **** #endif
  94:Drivers/CMSIS/Include/cmsis_gcc.h **** #ifndef   __UNALIGNED_UINT32_WRITE
  95:Drivers/CMSIS/Include/cmsis_gcc.h ****   #pragma GCC diagnostic push
  96:Drivers/CMSIS/Include/cmsis_gcc.h ****   #pragma GCC diagnostic ignored "-Wpacked"
  97:Drivers/CMSIS/Include/cmsis_gcc.h ****   #pragma GCC diagnostic ignored "-Wattributes"
  98:Drivers/CMSIS/Include/cmsis_gcc.h ****   __PACKED_STRUCT T_UINT32_WRITE { uint32_t v; };
  99:Drivers/CMSIS/Include/cmsis_gcc.h ****   #pragma GCC diagnostic pop
 100:Drivers/CMSIS/Include/cmsis_gcc.h ****   #define __UNALIGNED_UINT32_WRITE(addr, val)    (void)((((struct T_UINT32_WRITE *)(void *)(addr))-
 101:Drivers/CMSIS/Include/cmsis_gcc.h **** #endif
 102:Drivers/CMSIS/Include/cmsis_gcc.h **** #ifndef   __UNALIGNED_UINT32_READ
 103:Drivers/CMSIS/Include/cmsis_gcc.h ****   #pragma GCC diagnostic push
 104:Drivers/CMSIS/Include/cmsis_gcc.h ****   #pragma GCC diagnostic ignored "-Wpacked"
 105:Drivers/CMSIS/Include/cmsis_gcc.h ****   #pragma GCC diagnostic ignored "-Wattributes"
 106:Drivers/CMSIS/Include/cmsis_gcc.h ****   __PACKED_STRUCT T_UINT32_READ { uint32_t v; };
 107:Drivers/CMSIS/Include/cmsis_gcc.h ****   #pragma GCC diagnostic pop
 108:Drivers/CMSIS/Include/cmsis_gcc.h ****   #define __UNALIGNED_UINT32_READ(addr)          (((const struct T_UINT32_READ *)(const void *)(add
 109:Drivers/CMSIS/Include/cmsis_gcc.h **** #endif
 110:Drivers/CMSIS/Include/cmsis_gcc.h **** #ifndef   __ALIGNED
 111:Drivers/CMSIS/Include/cmsis_gcc.h ****   #define __ALIGNED(x)                           __attribute__((aligned(x)))
 112:Drivers/CMSIS/Include/cmsis_gcc.h **** #endif
 113:Drivers/CMSIS/Include/cmsis_gcc.h **** #ifndef   __RESTRICT
 114:Drivers/CMSIS/Include/cmsis_gcc.h ****   #define __RESTRICT                             __restrict
 115:Drivers/CMSIS/Include/cmsis_gcc.h **** #endif
 116:Drivers/CMSIS/Include/cmsis_gcc.h **** 
 117:Drivers/CMSIS/Include/cmsis_gcc.h **** 
 118:Drivers/CMSIS/Include/cmsis_gcc.h **** /* ###########################  Core Function Access  ########################### */
 119:Drivers/CMSIS/Include/cmsis_gcc.h **** /** \ingroup  CMSIS_Core_FunctionInterface
 120:Drivers/CMSIS/Include/cmsis_gcc.h ****     \defgroup CMSIS_Core_RegAccFunctions CMSIS Core Register Access Functions
 121:Drivers/CMSIS/Include/cmsis_gcc.h ****   @{
 122:Drivers/CMSIS/Include/cmsis_gcc.h ****  */
 123:Drivers/CMSIS/Include/cmsis_gcc.h **** 
 124:Drivers/CMSIS/Include/cmsis_gcc.h **** /**
 125:Drivers/CMSIS/Include/cmsis_gcc.h ****   \brief   Enable IRQ Interrupts
 126:Drivers/CMSIS/Include/cmsis_gcc.h ****   \details Enables IRQ interrupts by clearing the I-bit in the CPSR.
 127:Drivers/CMSIS/Include/cmsis_gcc.h ****            Can only be executed in Privileged modes.
 128:Drivers/CMSIS/Include/cmsis_gcc.h ****  */
 129:Drivers/CMSIS/Include/cmsis_gcc.h **** __STATIC_FORCEINLINE void __enable_irq(void)
 130:Drivers/CMSIS/Include/cmsis_gcc.h **** {
 131:Drivers/CMSIS/Include/cmsis_gcc.h ****   __ASM volatile ("cpsie i" : : : "memory");
 132:Drivers/CMSIS/Include/cmsis_gcc.h **** }
 133:Drivers/CMSIS/Include/cmsis_gcc.h **** 
 134:Drivers/CMSIS/Include/cmsis_gcc.h **** 
ARM GAS  C:\Users\zacfi\AppData\Local\Temp\cc63mGqR.s 			page 17


 135:Drivers/CMSIS/Include/cmsis_gcc.h **** /**
 136:Drivers/CMSIS/Include/cmsis_gcc.h ****   \brief   Disable IRQ Interrupts
 137:Drivers/CMSIS/Include/cmsis_gcc.h ****   \details Disables IRQ interrupts by setting the I-bit in the CPSR.
 138:Drivers/CMSIS/Include/cmsis_gcc.h ****            Can only be executed in Privileged modes.
 139:Drivers/CMSIS/Include/cmsis_gcc.h ****  */
 140:Drivers/CMSIS/Include/cmsis_gcc.h **** __STATIC_FORCEINLINE void __disable_irq(void)
 410              		.loc 2 140 27 view .LVU98
 411              	.LBB15:
 141:Drivers/CMSIS/Include/cmsis_gcc.h **** {
 142:Drivers/CMSIS/Include/cmsis_gcc.h ****   __ASM volatile ("cpsid i" : : : "memory");
 412              		.loc 2 142 3 view .LVU99
 413              		.syntax unified
 414              	@ 142 "Drivers/CMSIS/Include/cmsis_gcc.h" 1
 415 0000 72B6     		cpsid i
 416              	@ 0 "" 2
 417              		.thumb
 418              		.syntax unified
 419              	.L30:
 420              	.LBE15:
 421              	.LBE14:
 320:Core/Src/main.c ****     while (1)
 422              		.loc 1 320 5 discriminator 1 view .LVU100
 321:Core/Src/main.c ****     {
 322:Core/Src/main.c ****     }
 423              		.loc 1 322 5 discriminator 1 view .LVU101
 320:Core/Src/main.c ****     while (1)
 424              		.loc 1 320 11 discriminator 1 view .LVU102
 425 0002 FEE7     		b	.L30
 426              		.cfi_endproc
 427              	.LFE138:
 429              		.section	.text.SystemClock_Config,"ax",%progbits
 430              		.align	1
 431              		.global	SystemClock_Config
 432              		.syntax unified
 433              		.thumb
 434              		.thumb_func
 435              		.fpu fpv4-sp-d16
 437              	SystemClock_Config:
 438              	.LFB134:
 201:Core/Src/main.c ****     RCC_OscInitTypeDef RCC_OscInitStruct = {0};
 439              		.loc 1 201 1 view -0
 440              		.cfi_startproc
 441              		@ args = 0, pretend = 0, frame = 80
 442              		@ frame_needed = 0, uses_anonymous_args = 0
 443 0000 00B5     		push	{lr}
 444              	.LCFI1:
 445              		.cfi_def_cfa_offset 4
 446              		.cfi_offset 14, -4
 447 0002 95B0     		sub	sp, sp, #84
 448              	.LCFI2:
 449              		.cfi_def_cfa_offset 88
 202:Core/Src/main.c ****     RCC_ClkInitTypeDef RCC_ClkInitStruct = {0};
 450              		.loc 1 202 5 view .LVU104
 202:Core/Src/main.c ****     RCC_ClkInitTypeDef RCC_ClkInitStruct = {0};
 451              		.loc 1 202 24 is_stmt 0 view .LVU105
 452 0004 3422     		movs	r2, #52
 453 0006 0021     		movs	r1, #0
ARM GAS  C:\Users\zacfi\AppData\Local\Temp\cc63mGqR.s 			page 18


 454 0008 07A8     		add	r0, sp, #28
 455 000a FFF7FEFF 		bl	memset
 456              	.LVL29:
 203:Core/Src/main.c **** 
 457              		.loc 1 203 5 is_stmt 1 view .LVU106
 203:Core/Src/main.c **** 
 458              		.loc 1 203 24 is_stmt 0 view .LVU107
 459 000e 0023     		movs	r3, #0
 460 0010 0293     		str	r3, [sp, #8]
 461 0012 0393     		str	r3, [sp, #12]
 462 0014 0493     		str	r3, [sp, #16]
 463 0016 0593     		str	r3, [sp, #20]
 464 0018 0693     		str	r3, [sp, #24]
 207:Core/Src/main.c ****     __HAL_PWR_VOLTAGESCALING_CONFIG(PWR_REGULATOR_VOLTAGE_SCALE3);
 465              		.loc 1 207 5 is_stmt 1 view .LVU108
 466              	.LBB16:
 207:Core/Src/main.c ****     __HAL_PWR_VOLTAGESCALING_CONFIG(PWR_REGULATOR_VOLTAGE_SCALE3);
 467              		.loc 1 207 5 view .LVU109
 468 001a 0093     		str	r3, [sp]
 207:Core/Src/main.c ****     __HAL_PWR_VOLTAGESCALING_CONFIG(PWR_REGULATOR_VOLTAGE_SCALE3);
 469              		.loc 1 207 5 view .LVU110
 470 001c 1F4A     		ldr	r2, .L37
 471 001e 116C     		ldr	r1, [r2, #64]
 472 0020 41F08051 		orr	r1, r1, #268435456
 473 0024 1164     		str	r1, [r2, #64]
 207:Core/Src/main.c ****     __HAL_PWR_VOLTAGESCALING_CONFIG(PWR_REGULATOR_VOLTAGE_SCALE3);
 474              		.loc 1 207 5 view .LVU111
 475 0026 126C     		ldr	r2, [r2, #64]
 476 0028 02F08052 		and	r2, r2, #268435456
 477 002c 0092     		str	r2, [sp]
 207:Core/Src/main.c ****     __HAL_PWR_VOLTAGESCALING_CONFIG(PWR_REGULATOR_VOLTAGE_SCALE3);
 478              		.loc 1 207 5 view .LVU112
 479 002e 009A     		ldr	r2, [sp]
 480              	.LBE16:
 207:Core/Src/main.c ****     __HAL_PWR_VOLTAGESCALING_CONFIG(PWR_REGULATOR_VOLTAGE_SCALE3);
 481              		.loc 1 207 5 view .LVU113
 208:Core/Src/main.c ****     /** Initializes the RCC Oscillators according to the specified parameters
 482              		.loc 1 208 5 view .LVU114
 483              	.LBB17:
 208:Core/Src/main.c ****     /** Initializes the RCC Oscillators according to the specified parameters
 484              		.loc 1 208 5 view .LVU115
 485 0030 0193     		str	r3, [sp, #4]
 208:Core/Src/main.c ****     /** Initializes the RCC Oscillators according to the specified parameters
 486              		.loc 1 208 5 view .LVU116
 487 0032 1B49     		ldr	r1, .L37+4
 488 0034 0A68     		ldr	r2, [r1]
 489 0036 22F44042 		bic	r2, r2, #49152
 490 003a 42F48042 		orr	r2, r2, #16384
 491 003e 0A60     		str	r2, [r1]
 208:Core/Src/main.c ****     /** Initializes the RCC Oscillators according to the specified parameters
 492              		.loc 1 208 5 view .LVU117
 493 0040 0A68     		ldr	r2, [r1]
 494 0042 02F44042 		and	r2, r2, #49152
 495 0046 0192     		str	r2, [sp, #4]
 208:Core/Src/main.c ****     /** Initializes the RCC Oscillators according to the specified parameters
 496              		.loc 1 208 5 view .LVU118
 497 0048 019A     		ldr	r2, [sp, #4]
ARM GAS  C:\Users\zacfi\AppData\Local\Temp\cc63mGqR.s 			page 19


 498              	.LBE17:
 208:Core/Src/main.c ****     /** Initializes the RCC Oscillators according to the specified parameters
 499              		.loc 1 208 5 view .LVU119
 212:Core/Src/main.c ****     RCC_OscInitStruct.HSIState = RCC_HSI_ON;
 500              		.loc 1 212 5 view .LVU120
 212:Core/Src/main.c ****     RCC_OscInitStruct.HSIState = RCC_HSI_ON;
 501              		.loc 1 212 38 is_stmt 0 view .LVU121
 502 004a 0222     		movs	r2, #2
 503 004c 0792     		str	r2, [sp, #28]
 213:Core/Src/main.c ****     RCC_OscInitStruct.HSICalibrationValue = RCC_HSICALIBRATION_DEFAULT;
 504              		.loc 1 213 5 is_stmt 1 view .LVU122
 213:Core/Src/main.c ****     RCC_OscInitStruct.HSICalibrationValue = RCC_HSICALIBRATION_DEFAULT;
 505              		.loc 1 213 32 is_stmt 0 view .LVU123
 506 004e 0121     		movs	r1, #1
 507 0050 0A91     		str	r1, [sp, #40]
 214:Core/Src/main.c ****     RCC_OscInitStruct.PLL.PLLState = RCC_PLL_ON;
 508              		.loc 1 214 5 is_stmt 1 view .LVU124
 214:Core/Src/main.c ****     RCC_OscInitStruct.PLL.PLLState = RCC_PLL_ON;
 509              		.loc 1 214 43 is_stmt 0 view .LVU125
 510 0052 1021     		movs	r1, #16
 511 0054 0B91     		str	r1, [sp, #44]
 215:Core/Src/main.c ****     RCC_OscInitStruct.PLL.PLLSource = RCC_PLLSOURCE_HSI;
 512              		.loc 1 215 5 is_stmt 1 view .LVU126
 215:Core/Src/main.c ****     RCC_OscInitStruct.PLL.PLLSource = RCC_PLLSOURCE_HSI;
 513              		.loc 1 215 36 is_stmt 0 view .LVU127
 514 0056 0D92     		str	r2, [sp, #52]
 216:Core/Src/main.c ****     RCC_OscInitStruct.PLL.PLLM = 8;
 515              		.loc 1 216 5 is_stmt 1 view .LVU128
 216:Core/Src/main.c ****     RCC_OscInitStruct.PLL.PLLM = 8;
 516              		.loc 1 216 37 is_stmt 0 view .LVU129
 517 0058 0E93     		str	r3, [sp, #56]
 217:Core/Src/main.c ****     RCC_OscInitStruct.PLL.PLLN = 90;
 518              		.loc 1 217 5 is_stmt 1 view .LVU130
 217:Core/Src/main.c ****     RCC_OscInitStruct.PLL.PLLN = 90;
 519              		.loc 1 217 32 is_stmt 0 view .LVU131
 520 005a 0823     		movs	r3, #8
 521 005c 0F93     		str	r3, [sp, #60]
 218:Core/Src/main.c ****     RCC_OscInitStruct.PLL.PLLP = RCC_PLLP_DIV2;
 522              		.loc 1 218 5 is_stmt 1 view .LVU132
 218:Core/Src/main.c ****     RCC_OscInitStruct.PLL.PLLP = RCC_PLLP_DIV2;
 523              		.loc 1 218 32 is_stmt 0 view .LVU133
 524 005e 5A23     		movs	r3, #90
 525 0060 1093     		str	r3, [sp, #64]
 219:Core/Src/main.c ****     RCC_OscInitStruct.PLL.PLLQ = 2;
 526              		.loc 1 219 5 is_stmt 1 view .LVU134
 219:Core/Src/main.c ****     RCC_OscInitStruct.PLL.PLLQ = 2;
 527              		.loc 1 219 32 is_stmt 0 view .LVU135
 528 0062 1192     		str	r2, [sp, #68]
 220:Core/Src/main.c ****     RCC_OscInitStruct.PLL.PLLR = 2;
 529              		.loc 1 220 5 is_stmt 1 view .LVU136
 220:Core/Src/main.c ****     RCC_OscInitStruct.PLL.PLLR = 2;
 530              		.loc 1 220 32 is_stmt 0 view .LVU137
 531 0064 1292     		str	r2, [sp, #72]
 221:Core/Src/main.c ****     if (HAL_RCC_OscConfig(&RCC_OscInitStruct) != HAL_OK)
 532              		.loc 1 221 5 is_stmt 1 view .LVU138
 221:Core/Src/main.c ****     if (HAL_RCC_OscConfig(&RCC_OscInitStruct) != HAL_OK)
 533              		.loc 1 221 32 is_stmt 0 view .LVU139
ARM GAS  C:\Users\zacfi\AppData\Local\Temp\cc63mGqR.s 			page 20


 534 0066 1392     		str	r2, [sp, #76]
 222:Core/Src/main.c ****     {
 535              		.loc 1 222 5 is_stmt 1 view .LVU140
 222:Core/Src/main.c ****     {
 536              		.loc 1 222 9 is_stmt 0 view .LVU141
 537 0068 07A8     		add	r0, sp, #28
 538 006a FFF7FEFF 		bl	HAL_RCC_OscConfig
 539              	.LVL30:
 222:Core/Src/main.c ****     {
 540              		.loc 1 222 8 view .LVU142
 541 006e 80B9     		cbnz	r0, .L35
 228:Core/Src/main.c ****     RCC_ClkInitStruct.SYSCLKSource = RCC_SYSCLKSOURCE_PLLCLK;
 542              		.loc 1 228 5 is_stmt 1 view .LVU143
 228:Core/Src/main.c ****     RCC_ClkInitStruct.SYSCLKSource = RCC_SYSCLKSOURCE_PLLCLK;
 543              		.loc 1 228 33 is_stmt 0 view .LVU144
 544 0070 0F23     		movs	r3, #15
 545 0072 0293     		str	r3, [sp, #8]
 229:Core/Src/main.c ****     RCC_ClkInitStruct.AHBCLKDivider = RCC_SYSCLK_DIV1;
 546              		.loc 1 229 5 is_stmt 1 view .LVU145
 229:Core/Src/main.c ****     RCC_ClkInitStruct.AHBCLKDivider = RCC_SYSCLK_DIV1;
 547              		.loc 1 229 36 is_stmt 0 view .LVU146
 548 0074 0221     		movs	r1, #2
 549 0076 0391     		str	r1, [sp, #12]
 230:Core/Src/main.c ****     RCC_ClkInitStruct.APB1CLKDivider = RCC_HCLK_DIV2;
 550              		.loc 1 230 5 is_stmt 1 view .LVU147
 230:Core/Src/main.c ****     RCC_ClkInitStruct.APB1CLKDivider = RCC_HCLK_DIV2;
 551              		.loc 1 230 37 is_stmt 0 view .LVU148
 552 0078 0023     		movs	r3, #0
 553 007a 0493     		str	r3, [sp, #16]
 231:Core/Src/main.c ****     RCC_ClkInitStruct.APB2CLKDivider = RCC_HCLK_DIV1;
 554              		.loc 1 231 5 is_stmt 1 view .LVU149
 231:Core/Src/main.c ****     RCC_ClkInitStruct.APB2CLKDivider = RCC_HCLK_DIV1;
 555              		.loc 1 231 38 is_stmt 0 view .LVU150
 556 007c 4FF48052 		mov	r2, #4096
 557 0080 0592     		str	r2, [sp, #20]
 232:Core/Src/main.c **** 
 558              		.loc 1 232 5 is_stmt 1 view .LVU151
 232:Core/Src/main.c **** 
 559              		.loc 1 232 38 is_stmt 0 view .LVU152
 560 0082 0693     		str	r3, [sp, #24]
 234:Core/Src/main.c ****     {
 561              		.loc 1 234 5 is_stmt 1 view .LVU153
 234:Core/Src/main.c ****     {
 562              		.loc 1 234 9 is_stmt 0 view .LVU154
 563 0084 02A8     		add	r0, sp, #8
 564 0086 FFF7FEFF 		bl	HAL_RCC_ClockConfig
 565              	.LVL31:
 234:Core/Src/main.c ****     {
 566              		.loc 1 234 8 view .LVU155
 567 008a 20B9     		cbnz	r0, .L36
 238:Core/Src/main.c **** 
 568              		.loc 1 238 1 view .LVU156
 569 008c 15B0     		add	sp, sp, #84
 570              	.LCFI3:
 571              		.cfi_remember_state
 572              		.cfi_def_cfa_offset 4
 573              		@ sp needed
ARM GAS  C:\Users\zacfi\AppData\Local\Temp\cc63mGqR.s 			page 21


 574 008e 5DF804FB 		ldr	pc, [sp], #4
 575              	.L35:
 576              	.LCFI4:
 577              		.cfi_restore_state
 224:Core/Src/main.c ****     }
 578              		.loc 1 224 9 is_stmt 1 view .LVU157
 579 0092 FFF7FEFF 		bl	Error_Handler
 580              	.LVL32:
 581              	.L36:
 236:Core/Src/main.c ****     }
 582              		.loc 1 236 9 view .LVU158
 583 0096 FFF7FEFF 		bl	Error_Handler
 584              	.LVL33:
 585              	.L38:
 586 009a 00BF     		.align	2
 587              	.L37:
 588 009c 00380240 		.word	1073887232
 589 00a0 00700040 		.word	1073770496
 590              		.cfi_endproc
 591              	.LFE134:
 593              		.section	.rodata.main.str1.4,"aMS",%progbits,1
 594              		.align	2
 595              	.LC1:
 596 0000 4144584C 		.ascii	"ADXL345 Module has been initialized successfully!\012"
 596      33343520 
 596      4D6F6475 
 596      6C652068 
 596      61732062 
 597 0032 00       		.ascii	"\000"
 598 0033 00       		.align	2
 599              	.LC2:
 600 0034 4552524F 		.ascii	"ERROR!\012\000"
 600      52210A00 
 601              		.align	2
 602              	.LC3:
 603 003c 4144584C 		.ascii	"ADXL345 ID is : %o\012\000"
 603      33343520 
 603      49442069 
 603      73203A20 
 603      256F0A00 
 604              		.align	2
 605              	.LC4:
 606 0050 4572726F 		.ascii	"Error!\012\000"
 606      72210A00 
 607              		.section	.text.main,"ax",%progbits
 608              		.align	1
 609              		.global	main
 610              		.syntax unified
 611              		.thumb
 612              		.thumb_func
 613              		.fpu fpv4-sp-d16
 615              	main:
 616              	.LFB133:
  89:Core/Src/main.c ****     /* USER CODE BEGIN 1 */
 617              		.loc 1 89 1 view -0
 618              		.cfi_startproc
 619              		@ args = 0, pretend = 0, frame = 16
ARM GAS  C:\Users\zacfi\AppData\Local\Temp\cc63mGqR.s 			page 22


 620              		@ frame_needed = 0, uses_anonymous_args = 0
 621 0000 70B5     		push	{r4, r5, r6, lr}
 622              	.LCFI5:
 623              		.cfi_def_cfa_offset 16
 624              		.cfi_offset 4, -16
 625              		.cfi_offset 5, -12
 626              		.cfi_offset 6, -8
 627              		.cfi_offset 14, -4
 628 0002 84B0     		sub	sp, sp, #16
 629              	.LCFI6:
 630              		.cfi_def_cfa_offset 32
  97:Core/Src/main.c **** 
 631              		.loc 1 97 5 view .LVU160
 632 0004 FFF7FEFF 		bl	HAL_Init
 633              	.LVL34:
 103:Core/Src/main.c **** 
 634              		.loc 1 103 5 view .LVU161
 635 0008 FFF7FEFF 		bl	SystemClock_Config
 636              	.LVL35:
 110:Core/Src/main.c ****     MX_DMA_Init();
 637              		.loc 1 110 5 view .LVU162
 638 000c FFF7FEFF 		bl	MX_GPIO_Init
 639              	.LVL36:
 111:Core/Src/main.c ****     MX_I2C1_Init();
 640              		.loc 1 111 5 view .LVU163
 641 0010 FFF7FEFF 		bl	MX_DMA_Init
 642              	.LVL37:
 112:Core/Src/main.c ****     MX_USART2_UART_Init();
 643              		.loc 1 112 5 view .LVU164
 644 0014 FFF7FEFF 		bl	MX_I2C1_Init
 645              	.LVL38:
 113:Core/Src/main.c ****     MX_TIM10_Init();
 646              		.loc 1 113 5 view .LVU165
 647 0018 FFF7FEFF 		bl	MX_USART2_UART_Init
 648              	.LVL39:
 114:Core/Src/main.c ****     /* USER CODE BEGIN 2 */
 649              		.loc 1 114 5 view .LVU166
 650 001c FFF7FEFF 		bl	MX_TIM10_Init
 651              	.LVL40:
 117:Core/Src/main.c ****     HAL_TIM_Base_Start_IT(&htim10);
 652              		.loc 1 117 5 view .LVU167
 653 0020 0A22     		movs	r2, #10
 654 0022 5B49     		ldr	r1, .L50
 655 0024 5B48     		ldr	r0, .L50+4
 656 0026 FFF7FEFF 		bl	HAL_UART_Receive_DMA
 657              	.LVL41:
 118:Core/Src/main.c **** 
 658              		.loc 1 118 5 view .LVU168
 659 002a 5B48     		ldr	r0, .L50+8
 660 002c FFF7FEFF 		bl	HAL_TIM_Base_Start_IT
 661              	.LVL42:
 120:Core/Src/main.c **** 
 662              		.loc 1 120 5 view .LVU169
 663 0030 5A4C     		ldr	r4, .L50+12
 664 0032 A621     		movs	r1, #166
 665 0034 2046     		mov	r0, r4
 666 0036 FFF7FEFF 		bl	setTargetDeviceAddress
ARM GAS  C:\Users\zacfi\AppData\Local\Temp\cc63mGqR.s 			page 23


 667              	.LVL43:
 122:Core/Src/main.c ****     int id = 0;
 668              		.loc 1 122 5 view .LVU170
 123:Core/Src/main.c ****     Accelerations accelerometerData;
 669              		.loc 1 123 5 view .LVU171
 123:Core/Src/main.c ****     Accelerations accelerometerData;
 670              		.loc 1 123 9 is_stmt 0 view .LVU172
 671 003a 0023     		movs	r3, #0
 672 003c 0393     		str	r3, [sp, #12]
 124:Core/Src/main.c **** 
 673              		.loc 1 124 5 is_stmt 1 view .LVU173
 127:Core/Src/main.c ****     if (status == HAL_OK)
 674              		.loc 1 127 5 view .LVU174
 127:Core/Src/main.c ****     if (status == HAL_OK)
 675              		.loc 1 127 14 is_stmt 0 view .LVU175
 676 003e 2046     		mov	r0, r4
 677 0040 FFF7FEFF 		bl	AccelInit
 678              	.LVL44:
 128:Core/Src/main.c ****     {
 679              		.loc 1 128 5 is_stmt 1 view .LVU176
 128:Core/Src/main.c ****     {
 680              		.loc 1 128 8 is_stmt 0 view .LVU177
 681 0044 28BB     		cbnz	r0, .L40
 130:Core/Src/main.c ****         HAL_UART_Transmit(&huart2, (uint8_t *)&message, 50, 100);
 682              		.loc 1 130 9 is_stmt 1 view .LVU178
 683 0046 564D     		ldr	r5, .L50+16
 684 0048 2C46     		mov	r4, r5
 685 004a 564E     		ldr	r6, .L50+20
 686 004c 0FCE     		ldmia	r6!, {r0, r1, r2, r3}
 687              	.LVL45:
 130:Core/Src/main.c ****         HAL_UART_Transmit(&huart2, (uint8_t *)&message, 50, 100);
 688              		.loc 1 130 9 is_stmt 0 view .LVU179
 689 004e 0FC4     		stmia	r4!, {r0, r1, r2, r3}
 690 0050 0FCE     		ldmia	r6!, {r0, r1, r2, r3}
 691 0052 0FC4     		stmia	r4!, {r0, r1, r2, r3}
 692 0054 0FCE     		ldmia	r6!, {r0, r1, r2, r3}
 693 0056 0FC4     		stmia	r4!, {r0, r1, r2, r3}
 694 0058 3368     		ldr	r3, [r6]
 695 005a 24F8023B 		strh	r3, [r4], #2	@ movhi
 696 005e 1B0C     		lsrs	r3, r3, #16
 697 0060 2370     		strb	r3, [r4]
 131:Core/Src/main.c ****     }
 698              		.loc 1 131 9 is_stmt 1 view .LVU180
 699 0062 6423     		movs	r3, #100
 700 0064 3222     		movs	r2, #50
 701 0066 2946     		mov	r1, r5
 702 0068 4A48     		ldr	r0, .L50+4
 703 006a FFF7FEFF 		bl	HAL_UART_Transmit
 704              	.LVL46:
 705              	.L41:
 139:Core/Src/main.c ****     if (status == HAL_OK)
 706              		.loc 1 139 5 view .LVU181
 139:Core/Src/main.c ****     if (status == HAL_OK)
 707              		.loc 1 139 14 is_stmt 0 view .LVU182
 708 006e 03A9     		add	r1, sp, #12
 709 0070 4A48     		ldr	r0, .L50+12
 710 0072 FFF7FEFF 		bl	AccelGetId
ARM GAS  C:\Users\zacfi\AppData\Local\Temp\cc63mGqR.s 			page 24


 711              	.LVL47:
 140:Core/Src/main.c ****     {
 712              		.loc 1 140 5 is_stmt 1 view .LVU183
 140:Core/Src/main.c ****     {
 713              		.loc 1 140 8 is_stmt 0 view .LVU184
 714 0076 98B9     		cbnz	r0, .L42
 142:Core/Src/main.c ****         HAL_UART_Transmit(&huart2, (uint8_t *)&message, 20, 100);
 715              		.loc 1 142 9 is_stmt 1 view .LVU185
 716 0078 494C     		ldr	r4, .L50+16
 717 007a 039A     		ldr	r2, [sp, #12]
 718 007c 4A49     		ldr	r1, .L50+24
 719 007e 2046     		mov	r0, r4
 720              	.LVL48:
 142:Core/Src/main.c ****         HAL_UART_Transmit(&huart2, (uint8_t *)&message, 20, 100);
 721              		.loc 1 142 9 is_stmt 0 view .LVU186
 722 0080 FFF7FEFF 		bl	sprintf
 723              	.LVL49:
 143:Core/Src/main.c ****     }
 724              		.loc 1 143 9 is_stmt 1 view .LVU187
 725 0084 6423     		movs	r3, #100
 726 0086 1422     		movs	r2, #20
 727 0088 2146     		mov	r1, r4
 728 008a 4248     		ldr	r0, .L50+4
 729 008c FFF7FEFF 		bl	HAL_UART_Transmit
 730              	.LVL50:
 731 0090 44E0     		b	.L43
 732              	.LVL51:
 733              	.L40:
 135:Core/Src/main.c ****     }
 734              		.loc 1 135 9 view .LVU188
 735 0092 6423     		movs	r3, #100
 736 0094 0722     		movs	r2, #7
 737 0096 4549     		ldr	r1, .L50+28
 738 0098 3E48     		ldr	r0, .L50+4
 739              	.LVL52:
 135:Core/Src/main.c ****     }
 740              		.loc 1 135 9 is_stmt 0 view .LVU189
 741 009a FFF7FEFF 		bl	HAL_UART_Transmit
 742              	.LVL53:
 743 009e E6E7     		b	.L41
 744              	.LVL54:
 745              	.L42:
 147:Core/Src/main.c ****     }
 746              		.loc 1 147 9 is_stmt 1 view .LVU190
 747 00a0 6423     		movs	r3, #100
 748 00a2 0722     		movs	r2, #7
 749 00a4 4149     		ldr	r1, .L50+28
 750 00a6 3B48     		ldr	r0, .L50+4
 751              	.LVL55:
 147:Core/Src/main.c ****     }
 752              		.loc 1 147 9 is_stmt 0 view .LVU191
 753 00a8 FFF7FEFF 		bl	HAL_UART_Transmit
 754              	.LVL56:
 755 00ac 36E0     		b	.L43
 756              	.LVL57:
 757              	.L48:
 758              	.LBB18:
ARM GAS  C:\Users\zacfi\AppData\Local\Temp\cc63mGqR.s 			page 25


 759              	.LBB19:
 175:Core/Src/main.c ****                     message[6 + i] = (utc_timestamp_ms & ((uint64_t)0xFF << offset)) >> offset;
 760              		.loc 1 175 21 is_stmt 1 discriminator 3 view .LVU192
 175:Core/Src/main.c ****                     message[6 + i] = (utc_timestamp_ms & ((uint64_t)0xFF << offset)) >> offset;
 761              		.loc 1 175 54 is_stmt 0 discriminator 3 view .LVU193
 762 00ae 0CF10104 		add	r4, ip, #1
 175:Core/Src/main.c ****                     message[6 + i] = (utc_timestamp_ms & ((uint64_t)0xFF << offset)) >> offset;
 763              		.loc 1 175 59 discriminator 3 view .LVU194
 764 00b2 E000     		lsls	r0, r4, #3
 175:Core/Src/main.c ****                     message[6 + i] = (utc_timestamp_ms & ((uint64_t)0xFF << offset)) >> offset;
 765              		.loc 1 175 48 discriminator 3 view .LVU195
 766 00b4 C0F1400E 		rsb	lr, r0, #64
 767              	.LVL58:
 176:Core/Src/main.c ****                 }
 768              		.loc 1 176 21 is_stmt 1 discriminator 3 view .LVU196
 176:Core/Src/main.c ****                 }
 769              		.loc 1 176 74 is_stmt 0 discriminator 3 view .LVU197
 770 00b8 FF22     		movs	r2, #255
 771 00ba C0F12001 		rsb	r1, r0, #32
 772 00be 2038     		subs	r0, r0, #32
 773 00c0 02FA01F1 		lsl	r1, r2, r1
 774 00c4 22FA00F0 		lsr	r0, r2, r0
 775 00c8 0143     		orrs	r1, r1, r0
 776 00ca 02FA0EF3 		lsl	r3, r2, lr
 176:Core/Src/main.c ****                 }
 777              		.loc 1 176 56 discriminator 3 view .LVU198
 778 00ce 3848     		ldr	r0, .L50+32
 779 00d0 0268     		ldr	r2, [r0]
 780 00d2 4068     		ldr	r0, [r0, #4]
 781 00d4 1340     		ands	r3, r3, r2
 782 00d6 0140     		ands	r1, r1, r0
 176:Core/Src/main.c ****                 }
 783              		.loc 1 176 86 discriminator 3 view .LVU199
 784 00d8 CEF12000 		rsb	r0, lr, #32
 785 00dc AEF12002 		sub	r2, lr, #32
 786 00e0 23FA0EF3 		lsr	r3, r3, lr
 787 00e4 01FA00F0 		lsl	r0, r1, r0
 788 00e8 0343     		orrs	r3, r3, r0
 789 00ea 21FA02F2 		lsr	r2, r1, r2
 790 00ee 1343     		orrs	r3, r3, r2
 176:Core/Src/main.c ****                 }
 791              		.loc 1 176 31 discriminator 3 view .LVU200
 792 00f0 0CF1060C 		add	ip, ip, #6
 793              	.LVL59:
 176:Core/Src/main.c ****                 }
 794              		.loc 1 176 36 discriminator 3 view .LVU201
 795 00f4 2A4A     		ldr	r2, .L50+16
 796 00f6 02F80C30 		strb	r3, [r2, ip]
 797              	.LBE19:
 173:Core/Src/main.c ****                 {
 798              		.loc 1 173 40 is_stmt 1 discriminator 3 view .LVU202
 799              	.LVL60:
 173:Core/Src/main.c ****                 {
 800              		.loc 1 173 40 is_stmt 0 discriminator 3 view .LVU203
 801 00fa A446     		mov	ip, r4
 802              	.LVL61:
 803              	.L47:
ARM GAS  C:\Users\zacfi\AppData\Local\Temp\cc63mGqR.s 			page 26


 173:Core/Src/main.c ****                 {
 804              		.loc 1 173 33 is_stmt 1 discriminator 1 view .LVU204
 173:Core/Src/main.c ****                 {
 805              		.loc 1 173 17 is_stmt 0 discriminator 1 view .LVU205
 806 00fc BCF1070F 		cmp	ip, #7
 807 0100 D5DD     		ble	.L48
 808              	.LBE18:
 178:Core/Src/main.c ****                 message[15] = 0x55;
 809              		.loc 1 178 17 is_stmt 1 view .LVU206
 178:Core/Src/main.c ****                 message[15] = 0x55;
 810              		.loc 1 178 29 is_stmt 0 view .LVU207
 811 0102 2749     		ldr	r1, .L50+16
 812 0104 AA23     		movs	r3, #170
 813 0106 8B73     		strb	r3, [r1, #14]
 179:Core/Src/main.c ****                 HAL_UART_Transmit(&huart2, (uint8_t *)message, 16, 100);
 814              		.loc 1 179 17 is_stmt 1 view .LVU208
 179:Core/Src/main.c ****                 HAL_UART_Transmit(&huart2, (uint8_t *)message, 16, 100);
 815              		.loc 1 179 29 is_stmt 0 view .LVU209
 816 0108 5523     		movs	r3, #85
 817 010a CB73     		strb	r3, [r1, #15]
 180:Core/Src/main.c ****             }
 818              		.loc 1 180 17 is_stmt 1 view .LVU210
 819 010c 6423     		movs	r3, #100
 820 010e 1022     		movs	r2, #16
 821 0110 2048     		ldr	r0, .L50+4
 822 0112 FFF7FEFF 		bl	HAL_UART_Transmit
 823              	.LVL62:
 824              	.L45:
 188:Core/Src/main.c ****     }
 825              		.loc 1 188 9 view .LVU211
 826 0116 0A20     		movs	r0, #10
 827 0118 FFF7FEFF 		bl	HAL_Delay
 828              	.LVL63:
 153:Core/Src/main.c ****     {
 829              		.loc 1 153 11 view .LVU212
 830              	.L43:
 153:Core/Src/main.c ****     {
 831              		.loc 1 153 5 view .LVU213
 155:Core/Src/main.c ****         {
 832              		.loc 1 155 9 view .LVU214
 155:Core/Src/main.c ****         {
 833              		.loc 1 155 13 is_stmt 0 view .LVU215
 834 011c 254B     		ldr	r3, .L50+36
 835 011e 1B78     		ldrb	r3, [r3]	@ zero_extendqisi2
 155:Core/Src/main.c ****         {
 836              		.loc 1 155 12 view .LVU216
 837 0120 002B     		cmp	r3, #0
 838 0122 F8D0     		beq	.L45
 155:Core/Src/main.c ****         {
 839              		.loc 1 155 23 discriminator 1 view .LVU217
 840 0124 244B     		ldr	r3, .L50+40
 841 0126 1B78     		ldrb	r3, [r3]	@ zero_extendqisi2
 842 0128 002B     		cmp	r3, #0
 843 012a F4D0     		beq	.L45
 157:Core/Src/main.c ****             status = getAccelerations(&hi2c1, &accelerometerData);
 844              		.loc 1 157 13 is_stmt 1 view .LVU218
 845 012c 2021     		movs	r1, #32
ARM GAS  C:\Users\zacfi\AppData\Local\Temp\cc63mGqR.s 			page 27


 846 012e 2348     		ldr	r0, .L50+44
 847 0130 FFF7FEFF 		bl	HAL_GPIO_TogglePin
 848              	.LVL64:
 158:Core/Src/main.c ****             if (status == HAL_OK)
 849              		.loc 1 158 13 view .LVU219
 158:Core/Src/main.c ****             if (status == HAL_OK)
 850              		.loc 1 158 22 is_stmt 0 view .LVU220
 851 0134 01A9     		add	r1, sp, #4
 852 0136 1948     		ldr	r0, .L50+12
 853 0138 FFF7FEFF 		bl	getAccelerations
 854              	.LVL65:
 159:Core/Src/main.c ****             {
 855              		.loc 1 159 13 is_stmt 1 view .LVU221
 159:Core/Src/main.c ****             {
 856              		.loc 1 159 16 is_stmt 0 view .LVU222
 857 013c D8B9     		cbnz	r0, .L46
 161:Core/Src/main.c ****                 // float xf = (float)accelerometerData.x * 3.9f / 1000.0;
 858              		.loc 1 161 17 is_stmt 1 view .LVU223
 859 013e 184C     		ldr	r4, .L50+16
 860 0140 4FF48072 		mov	r2, #256
 861 0144 0021     		movs	r1, #0
 862 0146 2046     		mov	r0, r4
 863              	.LVL66:
 161:Core/Src/main.c ****                 // float xf = (float)accelerometerData.x * 3.9f / 1000.0;
 864              		.loc 1 161 17 is_stmt 0 view .LVU224
 865 0148 FFF7FEFF 		bl	memset
 866              	.LVL67:
 167:Core/Src/main.c ****                 message[1] = (accelerometerData.x & 0x00FF);
 867              		.loc 1 167 17 is_stmt 1 view .LVU225
 167:Core/Src/main.c ****                 message[1] = (accelerometerData.x & 0x00FF);
 868              		.loc 1 167 48 is_stmt 0 view .LVU226
 869 014c BDF90430 		ldrsh	r3, [sp, #4]
 167:Core/Src/main.c ****                 message[1] = (accelerometerData.x & 0x00FF);
 870              		.loc 1 167 61 view .LVU227
 871 0150 9DF90520 		ldrsb	r2, [sp, #5]
 167:Core/Src/main.c ****                 message[1] = (accelerometerData.x & 0x00FF);
 872              		.loc 1 167 28 view .LVU228
 873 0154 2270     		strb	r2, [r4]
 168:Core/Src/main.c ****                 message[2] = (accelerometerData.y & 0xFF00) >> 8;
 874              		.loc 1 168 17 is_stmt 1 view .LVU229
 168:Core/Src/main.c ****                 message[2] = (accelerometerData.y & 0xFF00) >> 8;
 875              		.loc 1 168 28 is_stmt 0 view .LVU230
 876 0156 6370     		strb	r3, [r4, #1]
 169:Core/Src/main.c ****                 message[3] = (accelerometerData.y & 0x00FF);
 877              		.loc 1 169 17 is_stmt 1 view .LVU231
 169:Core/Src/main.c ****                 message[3] = (accelerometerData.y & 0x00FF);
 878              		.loc 1 169 48 is_stmt 0 view .LVU232
 879 0158 BDF90630 		ldrsh	r3, [sp, #6]
 169:Core/Src/main.c ****                 message[3] = (accelerometerData.y & 0x00FF);
 880              		.loc 1 169 61 view .LVU233
 881 015c 9DF90720 		ldrsb	r2, [sp, #7]
 169:Core/Src/main.c ****                 message[3] = (accelerometerData.y & 0x00FF);
 882              		.loc 1 169 28 view .LVU234
 883 0160 A270     		strb	r2, [r4, #2]
 170:Core/Src/main.c ****                 message[4] = (accelerometerData.z & 0xFF00) >> 8;
 884              		.loc 1 170 17 is_stmt 1 view .LVU235
 170:Core/Src/main.c ****                 message[4] = (accelerometerData.z & 0xFF00) >> 8;
ARM GAS  C:\Users\zacfi\AppData\Local\Temp\cc63mGqR.s 			page 28


 885              		.loc 1 170 28 is_stmt 0 view .LVU236
 886 0162 E370     		strb	r3, [r4, #3]
 171:Core/Src/main.c ****                 message[5] = (accelerometerData.z & 0x00FF);
 887              		.loc 1 171 17 is_stmt 1 view .LVU237
 171:Core/Src/main.c ****                 message[5] = (accelerometerData.z & 0x00FF);
 888              		.loc 1 171 48 is_stmt 0 view .LVU238
 889 0164 BDF90830 		ldrsh	r3, [sp, #8]
 171:Core/Src/main.c ****                 message[5] = (accelerometerData.z & 0x00FF);
 890              		.loc 1 171 61 view .LVU239
 891 0168 9DF90920 		ldrsb	r2, [sp, #9]
 171:Core/Src/main.c ****                 message[5] = (accelerometerData.z & 0x00FF);
 892              		.loc 1 171 28 view .LVU240
 893 016c 2271     		strb	r2, [r4, #4]
 172:Core/Src/main.c ****                 for (int i = 0; i < 8; ++i)
 894              		.loc 1 172 17 is_stmt 1 view .LVU241
 172:Core/Src/main.c ****                 for (int i = 0; i < 8; ++i)
 895              		.loc 1 172 28 is_stmt 0 view .LVU242
 896 016e 6371     		strb	r3, [r4, #5]
 173:Core/Src/main.c ****                 {
 897              		.loc 1 173 17 is_stmt 1 view .LVU243
 898              	.LBB20:
 173:Core/Src/main.c ****                 {
 899              		.loc 1 173 22 view .LVU244
 900              	.LVL68:
 173:Core/Src/main.c ****                 {
 901              		.loc 1 173 26 is_stmt 0 view .LVU245
 902 0170 4FF0000C 		mov	ip, #0
 173:Core/Src/main.c ****                 {
 903              		.loc 1 173 17 view .LVU246
 904 0174 C2E7     		b	.L47
 905              	.LVL69:
 906              	.L46:
 173:Core/Src/main.c ****                 {
 907              		.loc 1 173 17 view .LVU247
 908              	.LBE20:
 184:Core/Src/main.c ****                 HAL_UART_Transmit(&huart2, (uint8_t *)message, 7, 100);
 909              		.loc 1 184 17 is_stmt 1 view .LVU248
 910 0176 0A4C     		ldr	r4, .L50+16
 911 0178 114B     		ldr	r3, .L50+48
 912 017a 93E80300 		ldm	r3, {r0, r1}
 913              	.LVL70:
 184:Core/Src/main.c ****                 HAL_UART_Transmit(&huart2, (uint8_t *)message, 7, 100);
 914              		.loc 1 184 17 is_stmt 0 view .LVU249
 915 017e 84E80300 		stm	r4, {r0, r1}
 185:Core/Src/main.c ****             }
 916              		.loc 1 185 17 is_stmt 1 view .LVU250
 917 0182 6423     		movs	r3, #100
 918 0184 0722     		movs	r2, #7
 919 0186 2146     		mov	r1, r4
 920 0188 0248     		ldr	r0, .L50+4
 921 018a FFF7FEFF 		bl	HAL_UART_Transmit
 922              	.LVL71:
 923 018e C2E7     		b	.L45
 924              	.L51:
 925              		.align	2
 926              	.L50:
 927 0190 00000000 		.word	.LANCHOR0
ARM GAS  C:\Users\zacfi\AppData\Local\Temp\cc63mGqR.s 			page 29


 928 0194 00000000 		.word	huart2
 929 0198 00000000 		.word	htim10
 930 019c 00000000 		.word	hi2c1
 931 01a0 00000000 		.word	.LANCHOR6
 932 01a4 00000000 		.word	.LC1
 933 01a8 3C000000 		.word	.LC3
 934 01ac 34000000 		.word	.LC2
 935 01b0 00000000 		.word	.LANCHOR3
 936 01b4 00000000 		.word	.LANCHOR4
 937 01b8 00000000 		.word	.LANCHOR5
 938 01bc 00000240 		.word	1073872896
 939 01c0 50000000 		.word	.LC4
 940              		.cfi_endproc
 941              	.LFE133:
 943              		.global	rcv_command
 944              		.global	setting_time
 945              		.global	send
 946              		.global	handshake
 947              		.global	utc_timestamp_ms
 948              		.global	message
 949              		.global	UART2_rxBuffer
 950              		.section	.bss.UART2_rxBuffer,"aw",%nobits
 951              		.align	2
 952              		.set	.LANCHOR0,. + 0
 955              	UART2_rxBuffer:
 956 0000 00000000 		.space	10
 956      00000000 
 956      0000
 957              		.section	.bss.handshake,"aw",%nobits
 958              		.set	.LANCHOR4,. + 0
 961              	handshake:
 962 0000 00       		.space	1
 963              		.section	.bss.message,"aw",%nobits
 964              		.align	2
 965              		.set	.LANCHOR6,. + 0
 968              	message:
 969 0000 00000000 		.space	256
 969      00000000 
 969      00000000 
 969      00000000 
 969      00000000 
 970              		.section	.bss.rcv_command,"aw",%nobits
 971              		.align	3
 972              		.set	.LANCHOR1,. + 0
 975              	rcv_command:
 976 0000 00000000 		.space	8
 976      00000000 
 977              		.section	.bss.send,"aw",%nobits
 978              		.set	.LANCHOR5,. + 0
 981              	send:
 982 0000 00       		.space	1
 983              		.section	.bss.setting_time,"aw",%nobits
 984              		.set	.LANCHOR2,. + 0
 987              	setting_time:
 988 0000 00       		.space	1
 989              		.section	.bss.utc_timestamp_ms,"aw",%nobits
 990              		.align	3
ARM GAS  C:\Users\zacfi\AppData\Local\Temp\cc63mGqR.s 			page 30


 991              		.set	.LANCHOR3,. + 0
 994              	utc_timestamp_ms:
 995 0000 00000000 		.space	8
 995      00000000 
 996              		.text
 997              	.Letext0:
 998              		.file 3 "c:\\gnu\\gnu_arm_embedded_toolchain\\10-2020-q4-major\\arm-none-eabi\\include\\machine\\_
 999              		.file 4 "c:\\gnu\\gnu_arm_embedded_toolchain\\10-2020-q4-major\\arm-none-eabi\\include\\sys\\_stdi
 1000              		.file 5 "Drivers/CMSIS/Device/ST/STM32F4xx/Include/stm32f446xx.h"
 1001              		.file 6 "Drivers/STM32F4xx_HAL_Driver/Inc/stm32f4xx_hal_def.h"
 1002              		.file 7 "Drivers/STM32F4xx_HAL_Driver/Inc/stm32f4xx_hal_rcc_ex.h"
 1003              		.file 8 "Drivers/STM32F4xx_HAL_Driver/Inc/stm32f4xx_hal_rcc.h"
 1004              		.file 9 "Drivers/STM32F4xx_HAL_Driver/Inc/stm32f4xx_hal_dma.h"
 1005              		.file 10 "Drivers/STM32F4xx_HAL_Driver/Inc/stm32f4xx_hal_i2c.h"
 1006              		.file 11 "Drivers/STM32F4xx_HAL_Driver/Inc/stm32f4xx_hal_tim.h"
 1007              		.file 12 "Drivers/STM32F4xx_HAL_Driver/Inc/stm32f4xx_hal_uart.h"
 1008              		.file 13 "Core/Inc/i2c.h"
 1009              		.file 14 "Core/Inc/tim.h"
 1010              		.file 15 "Core/Inc/usart.h"
 1011              		.file 16 "Core/Inc/adxl345.h"
 1012              		.file 17 "c:\\gnu\\gnu_arm_embedded_toolchain\\10-2020-q4-major\\arm-none-eabi\\include\\stdio.h"
 1013              		.file 18 "Drivers/STM32F4xx_HAL_Driver/Inc/stm32f4xx_hal.h"
 1014              		.file 19 "Core/Inc/gpio.h"
 1015              		.file 20 "Core/Inc/dma.h"
 1016              		.file 21 "Drivers/STM32F4xx_HAL_Driver/Inc/stm32f4xx_hal_gpio.h"
 1017              		.file 22 "<built-in>"
ARM GAS  C:\Users\zacfi\AppData\Local\Temp\cc63mGqR.s 			page 31


DEFINED SYMBOLS
                            *ABS*:00000000 main.c
C:\Users\zacfi\AppData\Local\Temp\cc63mGqR.s:18     .rodata.HAL_UART_RxCpltCallback.str1.4:00000000 $d
C:\Users\zacfi\AppData\Local\Temp\cc63mGqR.s:22     .text.HAL_UART_RxCpltCallback:00000000 $t
C:\Users\zacfi\AppData\Local\Temp\cc63mGqR.s:30     .text.HAL_UART_RxCpltCallback:00000000 HAL_UART_RxCpltCallback
C:\Users\zacfi\AppData\Local\Temp\cc63mGqR.s:330    .text.HAL_UART_RxCpltCallback:00000158 $d
C:\Users\zacfi\AppData\Local\Temp\cc63mGqR.s:347    .text.HAL_TIM_PeriodElapsedCallback:00000000 $t
C:\Users\zacfi\AppData\Local\Temp\cc63mGqR.s:354    .text.HAL_TIM_PeriodElapsedCallback:00000000 HAL_TIM_PeriodElapsedCallback
C:\Users\zacfi\AppData\Local\Temp\cc63mGqR.s:385    .text.HAL_TIM_PeriodElapsedCallback:0000001c $d
C:\Users\zacfi\AppData\Local\Temp\cc63mGqR.s:391    .text.Error_Handler:00000000 $t
C:\Users\zacfi\AppData\Local\Temp\cc63mGqR.s:398    .text.Error_Handler:00000000 Error_Handler
C:\Users\zacfi\AppData\Local\Temp\cc63mGqR.s:430    .text.SystemClock_Config:00000000 $t
C:\Users\zacfi\AppData\Local\Temp\cc63mGqR.s:437    .text.SystemClock_Config:00000000 SystemClock_Config
C:\Users\zacfi\AppData\Local\Temp\cc63mGqR.s:588    .text.SystemClock_Config:0000009c $d
C:\Users\zacfi\AppData\Local\Temp\cc63mGqR.s:594    .rodata.main.str1.4:00000000 $d
C:\Users\zacfi\AppData\Local\Temp\cc63mGqR.s:608    .text.main:00000000 $t
C:\Users\zacfi\AppData\Local\Temp\cc63mGqR.s:615    .text.main:00000000 main
C:\Users\zacfi\AppData\Local\Temp\cc63mGqR.s:927    .text.main:00000190 $d
C:\Users\zacfi\AppData\Local\Temp\cc63mGqR.s:975    .bss.rcv_command:00000000 rcv_command
C:\Users\zacfi\AppData\Local\Temp\cc63mGqR.s:987    .bss.setting_time:00000000 setting_time
C:\Users\zacfi\AppData\Local\Temp\cc63mGqR.s:981    .bss.send:00000000 send
C:\Users\zacfi\AppData\Local\Temp\cc63mGqR.s:961    .bss.handshake:00000000 handshake
C:\Users\zacfi\AppData\Local\Temp\cc63mGqR.s:994    .bss.utc_timestamp_ms:00000000 utc_timestamp_ms
C:\Users\zacfi\AppData\Local\Temp\cc63mGqR.s:968    .bss.message:00000000 message
C:\Users\zacfi\AppData\Local\Temp\cc63mGqR.s:955    .bss.UART2_rxBuffer:00000000 UART2_rxBuffer
C:\Users\zacfi\AppData\Local\Temp\cc63mGqR.s:951    .bss.UART2_rxBuffer:00000000 $d
C:\Users\zacfi\AppData\Local\Temp\cc63mGqR.s:962    .bss.handshake:00000000 $d
C:\Users\zacfi\AppData\Local\Temp\cc63mGqR.s:964    .bss.message:00000000 $d
C:\Users\zacfi\AppData\Local\Temp\cc63mGqR.s:971    .bss.rcv_command:00000000 $d
C:\Users\zacfi\AppData\Local\Temp\cc63mGqR.s:982    .bss.send:00000000 $d
C:\Users\zacfi\AppData\Local\Temp\cc63mGqR.s:988    .bss.setting_time:00000000 $d
C:\Users\zacfi\AppData\Local\Temp\cc63mGqR.s:990    .bss.utc_timestamp_ms:00000000 $d

UNDEFINED SYMBOLS
memset
sprintf
HAL_UART_Transmit
huart2
htim10
HAL_RCC_OscConfig
HAL_RCC_ClockConfig
HAL_Init
MX_GPIO_Init
MX_DMA_Init
MX_I2C1_Init
MX_USART2_UART_Init
MX_TIM10_Init
HAL_UART_Receive_DMA
HAL_TIM_Base_Start_IT
setTargetDeviceAddress
AccelInit
AccelGetId
HAL_Delay
HAL_GPIO_TogglePin
getAccelerations
hi2c1
