ARM GAS  C:\Users\zacfi\AppData\Local\Temp\ccaX7Jgv.s 			page 1


   1              		.cpu cortex-m4
   2              		.eabi_attribute 27, 1
   3              		.eabi_attribute 28, 1
   4              		.eabi_attribute 20, 1
   5              		.eabi_attribute 21, 1
   6              		.eabi_attribute 23, 3
   7              		.eabi_attribute 24, 1
   8              		.eabi_attribute 25, 1
   9              		.eabi_attribute 26, 1
  10              		.eabi_attribute 30, 1
  11              		.eabi_attribute 34, 1
  12              		.eabi_attribute 18, 4
  13              		.file	"usart.c"
  14              		.text
  15              	.Ltext0:
  16              		.cfi_sections	.debug_frame
  17              		.section	.text.MX_USART2_UART_Init,"ax",%progbits
  18              		.align	1
  19              		.global	MX_USART2_UART_Init
  20              		.arch armv7e-m
  21              		.syntax unified
  22              		.thumb
  23              		.thumb_func
  24              		.fpu fpv4-sp-d16
  26              	MX_USART2_UART_Init:
  27              	.LFB130:
  28              		.file 1 "Core/Src/usart.c"
   1:Core/Src/usart.c **** /**
   2:Core/Src/usart.c ****   ******************************************************************************
   3:Core/Src/usart.c ****   * @file    usart.c
   4:Core/Src/usart.c ****   * @brief   This file provides code for the configuration
   5:Core/Src/usart.c ****   *          of the USART instances.
   6:Core/Src/usart.c ****   ******************************************************************************
   7:Core/Src/usart.c ****   * @attention
   8:Core/Src/usart.c ****   *
   9:Core/Src/usart.c ****   * <h2><center>&copy; Copyright (c) 2021 STMicroelectronics.
  10:Core/Src/usart.c ****   * All rights reserved.</center></h2>
  11:Core/Src/usart.c ****   *
  12:Core/Src/usart.c ****   * This software component is licensed by ST under BSD 3-Clause license,
  13:Core/Src/usart.c ****   * the "License"; You may not use this file except in compliance with the
  14:Core/Src/usart.c ****   * License. You may obtain a copy of the License at:
  15:Core/Src/usart.c ****   *                        opensource.org/licenses/BSD-3-Clause
  16:Core/Src/usart.c ****   *
  17:Core/Src/usart.c ****   ******************************************************************************
  18:Core/Src/usart.c ****   */
  19:Core/Src/usart.c **** 
  20:Core/Src/usart.c **** /* Includes ------------------------------------------------------------------*/
  21:Core/Src/usart.c **** #include "usart.h"
  22:Core/Src/usart.c **** 
  23:Core/Src/usart.c **** /* USER CODE BEGIN 0 */
  24:Core/Src/usart.c **** 
  25:Core/Src/usart.c **** /* USER CODE END 0 */
  26:Core/Src/usart.c **** 
  27:Core/Src/usart.c **** UART_HandleTypeDef huart2;
  28:Core/Src/usart.c **** DMA_HandleTypeDef hdma_usart2_rx;
  29:Core/Src/usart.c **** 
  30:Core/Src/usart.c **** /* USART2 init function */
ARM GAS  C:\Users\zacfi\AppData\Local\Temp\ccaX7Jgv.s 			page 2


  31:Core/Src/usart.c **** 
  32:Core/Src/usart.c **** void MX_USART2_UART_Init(void)
  33:Core/Src/usart.c **** {
  29              		.loc 1 33 1 view -0
  30              		.cfi_startproc
  31              		@ args = 0, pretend = 0, frame = 0
  32              		@ frame_needed = 0, uses_anonymous_args = 0
  33 0000 08B5     		push	{r3, lr}
  34              	.LCFI0:
  35              		.cfi_def_cfa_offset 8
  36              		.cfi_offset 3, -8
  37              		.cfi_offset 14, -4
  34:Core/Src/usart.c **** 
  35:Core/Src/usart.c ****   /* USER CODE BEGIN USART2_Init 0 */
  36:Core/Src/usart.c **** 
  37:Core/Src/usart.c ****   /* USER CODE END USART2_Init 0 */
  38:Core/Src/usart.c **** 
  39:Core/Src/usart.c ****   /* USER CODE BEGIN USART2_Init 1 */
  40:Core/Src/usart.c **** 
  41:Core/Src/usart.c ****   /* USER CODE END USART2_Init 1 */
  42:Core/Src/usart.c ****   huart2.Instance = USART2;
  38              		.loc 1 42 3 view .LVU1
  39              		.loc 1 42 19 is_stmt 0 view .LVU2
  40 0002 0A48     		ldr	r0, .L5
  41 0004 0A4B     		ldr	r3, .L5+4
  42 0006 0360     		str	r3, [r0]
  43:Core/Src/usart.c ****   huart2.Init.BaudRate = 1500000;
  43              		.loc 1 43 3 is_stmt 1 view .LVU3
  44              		.loc 1 43 24 is_stmt 0 view .LVU4
  45 0008 0A4B     		ldr	r3, .L5+8
  46 000a 4360     		str	r3, [r0, #4]
  44:Core/Src/usart.c ****   huart2.Init.WordLength = UART_WORDLENGTH_8B;
  47              		.loc 1 44 3 is_stmt 1 view .LVU5
  48              		.loc 1 44 26 is_stmt 0 view .LVU6
  49 000c 0023     		movs	r3, #0
  50 000e 8360     		str	r3, [r0, #8]
  45:Core/Src/usart.c ****   huart2.Init.StopBits = UART_STOPBITS_1;
  51              		.loc 1 45 3 is_stmt 1 view .LVU7
  52              		.loc 1 45 24 is_stmt 0 view .LVU8
  53 0010 C360     		str	r3, [r0, #12]
  46:Core/Src/usart.c ****   huart2.Init.Parity = UART_PARITY_NONE;
  54              		.loc 1 46 3 is_stmt 1 view .LVU9
  55              		.loc 1 46 22 is_stmt 0 view .LVU10
  56 0012 0361     		str	r3, [r0, #16]
  47:Core/Src/usart.c ****   huart2.Init.Mode = UART_MODE_TX_RX;
  57              		.loc 1 47 3 is_stmt 1 view .LVU11
  58              		.loc 1 47 20 is_stmt 0 view .LVU12
  59 0014 0C22     		movs	r2, #12
  60 0016 4261     		str	r2, [r0, #20]
  48:Core/Src/usart.c ****   huart2.Init.HwFlowCtl = UART_HWCONTROL_NONE;
  61              		.loc 1 48 3 is_stmt 1 view .LVU13
  62              		.loc 1 48 25 is_stmt 0 view .LVU14
  63 0018 8361     		str	r3, [r0, #24]
  49:Core/Src/usart.c ****   huart2.Init.OverSampling = UART_OVERSAMPLING_16;
  64              		.loc 1 49 3 is_stmt 1 view .LVU15
  65              		.loc 1 49 28 is_stmt 0 view .LVU16
  66 001a C361     		str	r3, [r0, #28]
ARM GAS  C:\Users\zacfi\AppData\Local\Temp\ccaX7Jgv.s 			page 3


  50:Core/Src/usart.c ****   if (HAL_UART_Init(&huart2) != HAL_OK)
  67              		.loc 1 50 3 is_stmt 1 view .LVU17
  68              		.loc 1 50 7 is_stmt 0 view .LVU18
  69 001c FFF7FEFF 		bl	HAL_UART_Init
  70              	.LVL0:
  71              		.loc 1 50 6 view .LVU19
  72 0020 00B9     		cbnz	r0, .L4
  73              	.L1:
  51:Core/Src/usart.c ****   {
  52:Core/Src/usart.c ****     Error_Handler();
  53:Core/Src/usart.c ****   }
  54:Core/Src/usart.c ****   /* USER CODE BEGIN USART2_Init 2 */
  55:Core/Src/usart.c **** 
  56:Core/Src/usart.c ****   /* USER CODE END USART2_Init 2 */
  57:Core/Src/usart.c **** 
  58:Core/Src/usart.c **** }
  74              		.loc 1 58 1 view .LVU20
  75 0022 08BD     		pop	{r3, pc}
  76              	.L4:
  52:Core/Src/usart.c ****   }
  77              		.loc 1 52 5 is_stmt 1 view .LVU21
  78 0024 FFF7FEFF 		bl	Error_Handler
  79              	.LVL1:
  80              		.loc 1 58 1 is_stmt 0 view .LVU22
  81 0028 FBE7     		b	.L1
  82              	.L6:
  83 002a 00BF     		.align	2
  84              	.L5:
  85 002c 00000000 		.word	.LANCHOR0
  86 0030 00440040 		.word	1073759232
  87 0034 60E31600 		.word	1500000
  88              		.cfi_endproc
  89              	.LFE130:
  91              		.section	.text.HAL_UART_MspInit,"ax",%progbits
  92              		.align	1
  93              		.global	HAL_UART_MspInit
  94              		.syntax unified
  95              		.thumb
  96              		.thumb_func
  97              		.fpu fpv4-sp-d16
  99              	HAL_UART_MspInit:
 100              	.LVL2:
 101              	.LFB131:
  59:Core/Src/usart.c **** 
  60:Core/Src/usart.c **** void HAL_UART_MspInit(UART_HandleTypeDef* uartHandle)
  61:Core/Src/usart.c **** {
 102              		.loc 1 61 1 is_stmt 1 view -0
 103              		.cfi_startproc
 104              		@ args = 0, pretend = 0, frame = 32
 105              		@ frame_needed = 0, uses_anonymous_args = 0
 106              		.loc 1 61 1 is_stmt 0 view .LVU24
 107 0000 30B5     		push	{r4, r5, lr}
 108              	.LCFI1:
 109              		.cfi_def_cfa_offset 12
 110              		.cfi_offset 4, -12
 111              		.cfi_offset 5, -8
 112              		.cfi_offset 14, -4
ARM GAS  C:\Users\zacfi\AppData\Local\Temp\ccaX7Jgv.s 			page 4


 113 0002 89B0     		sub	sp, sp, #36
 114              	.LCFI2:
 115              		.cfi_def_cfa_offset 48
  62:Core/Src/usart.c **** 
  63:Core/Src/usart.c ****   GPIO_InitTypeDef GPIO_InitStruct = {0};
 116              		.loc 1 63 3 is_stmt 1 view .LVU25
 117              		.loc 1 63 20 is_stmt 0 view .LVU26
 118 0004 0023     		movs	r3, #0
 119 0006 0393     		str	r3, [sp, #12]
 120 0008 0493     		str	r3, [sp, #16]
 121 000a 0593     		str	r3, [sp, #20]
 122 000c 0693     		str	r3, [sp, #24]
 123 000e 0793     		str	r3, [sp, #28]
  64:Core/Src/usart.c ****   if(uartHandle->Instance==USART2)
 124              		.loc 1 64 3 is_stmt 1 view .LVU27
 125              		.loc 1 64 16 is_stmt 0 view .LVU28
 126 0010 0268     		ldr	r2, [r0]
 127              		.loc 1 64 5 view .LVU29
 128 0012 224B     		ldr	r3, .L13
 129 0014 9A42     		cmp	r2, r3
 130 0016 01D0     		beq	.L11
 131              	.LVL3:
 132              	.L7:
  65:Core/Src/usart.c ****   {
  66:Core/Src/usart.c ****   /* USER CODE BEGIN USART2_MspInit 0 */
  67:Core/Src/usart.c **** 
  68:Core/Src/usart.c ****   /* USER CODE END USART2_MspInit 0 */
  69:Core/Src/usart.c ****     /* USART2 clock enable */
  70:Core/Src/usart.c ****     __HAL_RCC_USART2_CLK_ENABLE();
  71:Core/Src/usart.c **** 
  72:Core/Src/usart.c ****     __HAL_RCC_GPIOA_CLK_ENABLE();
  73:Core/Src/usart.c ****     /**USART2 GPIO Configuration
  74:Core/Src/usart.c ****     PA2     ------> USART2_TX
  75:Core/Src/usart.c ****     PA3     ------> USART2_RX
  76:Core/Src/usart.c ****     */
  77:Core/Src/usart.c ****     GPIO_InitStruct.Pin = USART_TX_Pin|USART_RX_Pin;
  78:Core/Src/usart.c ****     GPIO_InitStruct.Mode = GPIO_MODE_AF_PP;
  79:Core/Src/usart.c ****     GPIO_InitStruct.Pull = GPIO_NOPULL;
  80:Core/Src/usart.c ****     GPIO_InitStruct.Speed = GPIO_SPEED_FREQ_VERY_HIGH;
  81:Core/Src/usart.c ****     GPIO_InitStruct.Alternate = GPIO_AF7_USART2;
  82:Core/Src/usart.c ****     HAL_GPIO_Init(GPIOA, &GPIO_InitStruct);
  83:Core/Src/usart.c **** 
  84:Core/Src/usart.c ****     /* USART2 DMA Init */
  85:Core/Src/usart.c ****     /* USART2_RX Init */
  86:Core/Src/usart.c ****     hdma_usart2_rx.Instance = DMA1_Stream5;
  87:Core/Src/usart.c ****     hdma_usart2_rx.Init.Channel = DMA_CHANNEL_4;
  88:Core/Src/usart.c ****     hdma_usart2_rx.Init.Direction = DMA_PERIPH_TO_MEMORY;
  89:Core/Src/usart.c ****     hdma_usart2_rx.Init.PeriphInc = DMA_PINC_DISABLE;
  90:Core/Src/usart.c ****     hdma_usart2_rx.Init.MemInc = DMA_MINC_ENABLE;
  91:Core/Src/usart.c ****     hdma_usart2_rx.Init.PeriphDataAlignment = DMA_PDATAALIGN_BYTE;
  92:Core/Src/usart.c ****     hdma_usart2_rx.Init.MemDataAlignment = DMA_MDATAALIGN_BYTE;
  93:Core/Src/usart.c ****     hdma_usart2_rx.Init.Mode = DMA_CIRCULAR;
  94:Core/Src/usart.c ****     hdma_usart2_rx.Init.Priority = DMA_PRIORITY_LOW;
  95:Core/Src/usart.c ****     hdma_usart2_rx.Init.FIFOMode = DMA_FIFOMODE_DISABLE;
  96:Core/Src/usart.c ****     if (HAL_DMA_Init(&hdma_usart2_rx) != HAL_OK)
  97:Core/Src/usart.c ****     {
  98:Core/Src/usart.c ****       Error_Handler();
ARM GAS  C:\Users\zacfi\AppData\Local\Temp\ccaX7Jgv.s 			page 5


  99:Core/Src/usart.c ****     }
 100:Core/Src/usart.c **** 
 101:Core/Src/usart.c ****     __HAL_LINKDMA(uartHandle,hdmarx,hdma_usart2_rx);
 102:Core/Src/usart.c **** 
 103:Core/Src/usart.c ****   /* USER CODE BEGIN USART2_MspInit 1 */
 104:Core/Src/usart.c **** 
 105:Core/Src/usart.c ****   /* USER CODE END USART2_MspInit 1 */
 106:Core/Src/usart.c ****   }
 107:Core/Src/usart.c **** }
 133              		.loc 1 107 1 view .LVU30
 134 0018 09B0     		add	sp, sp, #36
 135              	.LCFI3:
 136              		.cfi_remember_state
 137              		.cfi_def_cfa_offset 12
 138              		@ sp needed
 139 001a 30BD     		pop	{r4, r5, pc}
 140              	.LVL4:
 141              	.L11:
 142              	.LCFI4:
 143              		.cfi_restore_state
 144              		.loc 1 107 1 view .LVU31
 145 001c 0446     		mov	r4, r0
  70:Core/Src/usart.c **** 
 146              		.loc 1 70 5 is_stmt 1 view .LVU32
 147              	.LBB2:
  70:Core/Src/usart.c **** 
 148              		.loc 1 70 5 view .LVU33
 149 001e 0025     		movs	r5, #0
 150 0020 0195     		str	r5, [sp, #4]
  70:Core/Src/usart.c **** 
 151              		.loc 1 70 5 view .LVU34
 152 0022 03F5FA33 		add	r3, r3, #128000
 153 0026 1A6C     		ldr	r2, [r3, #64]
 154 0028 42F40032 		orr	r2, r2, #131072
 155 002c 1A64     		str	r2, [r3, #64]
  70:Core/Src/usart.c **** 
 156              		.loc 1 70 5 view .LVU35
 157 002e 1A6C     		ldr	r2, [r3, #64]
 158 0030 02F40032 		and	r2, r2, #131072
 159 0034 0192     		str	r2, [sp, #4]
  70:Core/Src/usart.c **** 
 160              		.loc 1 70 5 view .LVU36
 161 0036 019A     		ldr	r2, [sp, #4]
 162              	.LBE2:
  70:Core/Src/usart.c **** 
 163              		.loc 1 70 5 view .LVU37
  72:Core/Src/usart.c ****     /**USART2 GPIO Configuration
 164              		.loc 1 72 5 view .LVU38
 165              	.LBB3:
  72:Core/Src/usart.c ****     /**USART2 GPIO Configuration
 166              		.loc 1 72 5 view .LVU39
 167 0038 0295     		str	r5, [sp, #8]
  72:Core/Src/usart.c ****     /**USART2 GPIO Configuration
 168              		.loc 1 72 5 view .LVU40
 169 003a 1A6B     		ldr	r2, [r3, #48]
 170 003c 42F00102 		orr	r2, r2, #1
 171 0040 1A63     		str	r2, [r3, #48]
ARM GAS  C:\Users\zacfi\AppData\Local\Temp\ccaX7Jgv.s 			page 6


  72:Core/Src/usart.c ****     /**USART2 GPIO Configuration
 172              		.loc 1 72 5 view .LVU41
 173 0042 1B6B     		ldr	r3, [r3, #48]
 174 0044 03F00103 		and	r3, r3, #1
 175 0048 0293     		str	r3, [sp, #8]
  72:Core/Src/usart.c ****     /**USART2 GPIO Configuration
 176              		.loc 1 72 5 view .LVU42
 177 004a 029B     		ldr	r3, [sp, #8]
 178              	.LBE3:
  72:Core/Src/usart.c ****     /**USART2 GPIO Configuration
 179              		.loc 1 72 5 view .LVU43
  77:Core/Src/usart.c ****     GPIO_InitStruct.Mode = GPIO_MODE_AF_PP;
 180              		.loc 1 77 5 view .LVU44
  77:Core/Src/usart.c ****     GPIO_InitStruct.Mode = GPIO_MODE_AF_PP;
 181              		.loc 1 77 25 is_stmt 0 view .LVU45
 182 004c 0C23     		movs	r3, #12
 183 004e 0393     		str	r3, [sp, #12]
  78:Core/Src/usart.c ****     GPIO_InitStruct.Pull = GPIO_NOPULL;
 184              		.loc 1 78 5 is_stmt 1 view .LVU46
  78:Core/Src/usart.c ****     GPIO_InitStruct.Pull = GPIO_NOPULL;
 185              		.loc 1 78 26 is_stmt 0 view .LVU47
 186 0050 0223     		movs	r3, #2
 187 0052 0493     		str	r3, [sp, #16]
  79:Core/Src/usart.c ****     GPIO_InitStruct.Speed = GPIO_SPEED_FREQ_VERY_HIGH;
 188              		.loc 1 79 5 is_stmt 1 view .LVU48
  80:Core/Src/usart.c ****     GPIO_InitStruct.Alternate = GPIO_AF7_USART2;
 189              		.loc 1 80 5 view .LVU49
  80:Core/Src/usart.c ****     GPIO_InitStruct.Alternate = GPIO_AF7_USART2;
 190              		.loc 1 80 27 is_stmt 0 view .LVU50
 191 0054 0323     		movs	r3, #3
 192 0056 0693     		str	r3, [sp, #24]
  81:Core/Src/usart.c ****     HAL_GPIO_Init(GPIOA, &GPIO_InitStruct);
 193              		.loc 1 81 5 is_stmt 1 view .LVU51
  81:Core/Src/usart.c ****     HAL_GPIO_Init(GPIOA, &GPIO_InitStruct);
 194              		.loc 1 81 31 is_stmt 0 view .LVU52
 195 0058 0723     		movs	r3, #7
 196 005a 0793     		str	r3, [sp, #28]
  82:Core/Src/usart.c **** 
 197              		.loc 1 82 5 is_stmt 1 view .LVU53
 198 005c 03A9     		add	r1, sp, #12
 199 005e 1048     		ldr	r0, .L13+4
 200              	.LVL5:
  82:Core/Src/usart.c **** 
 201              		.loc 1 82 5 is_stmt 0 view .LVU54
 202 0060 FFF7FEFF 		bl	HAL_GPIO_Init
 203              	.LVL6:
  86:Core/Src/usart.c ****     hdma_usart2_rx.Init.Channel = DMA_CHANNEL_4;
 204              		.loc 1 86 5 is_stmt 1 view .LVU55
  86:Core/Src/usart.c ****     hdma_usart2_rx.Init.Channel = DMA_CHANNEL_4;
 205              		.loc 1 86 29 is_stmt 0 view .LVU56
 206 0064 0F48     		ldr	r0, .L13+8
 207 0066 104B     		ldr	r3, .L13+12
 208 0068 0360     		str	r3, [r0]
  87:Core/Src/usart.c ****     hdma_usart2_rx.Init.Direction = DMA_PERIPH_TO_MEMORY;
 209              		.loc 1 87 5 is_stmt 1 view .LVU57
  87:Core/Src/usart.c ****     hdma_usart2_rx.Init.Direction = DMA_PERIPH_TO_MEMORY;
 210              		.loc 1 87 33 is_stmt 0 view .LVU58
ARM GAS  C:\Users\zacfi\AppData\Local\Temp\ccaX7Jgv.s 			page 7


 211 006a 4FF00063 		mov	r3, #134217728
 212 006e 4360     		str	r3, [r0, #4]
  88:Core/Src/usart.c ****     hdma_usart2_rx.Init.PeriphInc = DMA_PINC_DISABLE;
 213              		.loc 1 88 5 is_stmt 1 view .LVU59
  88:Core/Src/usart.c ****     hdma_usart2_rx.Init.PeriphInc = DMA_PINC_DISABLE;
 214              		.loc 1 88 35 is_stmt 0 view .LVU60
 215 0070 8560     		str	r5, [r0, #8]
  89:Core/Src/usart.c ****     hdma_usart2_rx.Init.MemInc = DMA_MINC_ENABLE;
 216              		.loc 1 89 5 is_stmt 1 view .LVU61
  89:Core/Src/usart.c ****     hdma_usart2_rx.Init.MemInc = DMA_MINC_ENABLE;
 217              		.loc 1 89 35 is_stmt 0 view .LVU62
 218 0072 C560     		str	r5, [r0, #12]
  90:Core/Src/usart.c ****     hdma_usart2_rx.Init.PeriphDataAlignment = DMA_PDATAALIGN_BYTE;
 219              		.loc 1 90 5 is_stmt 1 view .LVU63
  90:Core/Src/usart.c ****     hdma_usart2_rx.Init.PeriphDataAlignment = DMA_PDATAALIGN_BYTE;
 220              		.loc 1 90 32 is_stmt 0 view .LVU64
 221 0074 4FF48063 		mov	r3, #1024
 222 0078 0361     		str	r3, [r0, #16]
  91:Core/Src/usart.c ****     hdma_usart2_rx.Init.MemDataAlignment = DMA_MDATAALIGN_BYTE;
 223              		.loc 1 91 5 is_stmt 1 view .LVU65
  91:Core/Src/usart.c ****     hdma_usart2_rx.Init.MemDataAlignment = DMA_MDATAALIGN_BYTE;
 224              		.loc 1 91 45 is_stmt 0 view .LVU66
 225 007a 4561     		str	r5, [r0, #20]
  92:Core/Src/usart.c ****     hdma_usart2_rx.Init.Mode = DMA_CIRCULAR;
 226              		.loc 1 92 5 is_stmt 1 view .LVU67
  92:Core/Src/usart.c ****     hdma_usart2_rx.Init.Mode = DMA_CIRCULAR;
 227              		.loc 1 92 42 is_stmt 0 view .LVU68
 228 007c 8561     		str	r5, [r0, #24]
  93:Core/Src/usart.c ****     hdma_usart2_rx.Init.Priority = DMA_PRIORITY_LOW;
 229              		.loc 1 93 5 is_stmt 1 view .LVU69
  93:Core/Src/usart.c ****     hdma_usart2_rx.Init.Priority = DMA_PRIORITY_LOW;
 230              		.loc 1 93 30 is_stmt 0 view .LVU70
 231 007e 4FF48073 		mov	r3, #256
 232 0082 C361     		str	r3, [r0, #28]
  94:Core/Src/usart.c ****     hdma_usart2_rx.Init.FIFOMode = DMA_FIFOMODE_DISABLE;
 233              		.loc 1 94 5 is_stmt 1 view .LVU71
  94:Core/Src/usart.c ****     hdma_usart2_rx.Init.FIFOMode = DMA_FIFOMODE_DISABLE;
 234              		.loc 1 94 34 is_stmt 0 view .LVU72
 235 0084 0562     		str	r5, [r0, #32]
  95:Core/Src/usart.c ****     if (HAL_DMA_Init(&hdma_usart2_rx) != HAL_OK)
 236              		.loc 1 95 5 is_stmt 1 view .LVU73
  95:Core/Src/usart.c ****     if (HAL_DMA_Init(&hdma_usart2_rx) != HAL_OK)
 237              		.loc 1 95 34 is_stmt 0 view .LVU74
 238 0086 4562     		str	r5, [r0, #36]
  96:Core/Src/usart.c ****     {
 239              		.loc 1 96 5 is_stmt 1 view .LVU75
  96:Core/Src/usart.c ****     {
 240              		.loc 1 96 9 is_stmt 0 view .LVU76
 241 0088 FFF7FEFF 		bl	HAL_DMA_Init
 242              	.LVL7:
  96:Core/Src/usart.c ****     {
 243              		.loc 1 96 8 view .LVU77
 244 008c 18B9     		cbnz	r0, .L12
 245              	.L9:
 101:Core/Src/usart.c **** 
 246              		.loc 1 101 5 is_stmt 1 view .LVU78
 101:Core/Src/usart.c **** 
ARM GAS  C:\Users\zacfi\AppData\Local\Temp\ccaX7Jgv.s 			page 8


 247              		.loc 1 101 5 view .LVU79
 248 008e 054B     		ldr	r3, .L13+8
 249 0090 A363     		str	r3, [r4, #56]
 101:Core/Src/usart.c **** 
 250              		.loc 1 101 5 view .LVU80
 251 0092 9C63     		str	r4, [r3, #56]
 101:Core/Src/usart.c **** 
 252              		.loc 1 101 5 view .LVU81
 253              		.loc 1 107 1 is_stmt 0 view .LVU82
 254 0094 C0E7     		b	.L7
 255              	.L12:
  98:Core/Src/usart.c ****     }
 256              		.loc 1 98 7 is_stmt 1 view .LVU83
 257 0096 FFF7FEFF 		bl	Error_Handler
 258              	.LVL8:
 259 009a F8E7     		b	.L9
 260              	.L14:
 261              		.align	2
 262              	.L13:
 263 009c 00440040 		.word	1073759232
 264 00a0 00000240 		.word	1073872896
 265 00a4 00000000 		.word	.LANCHOR1
 266 00a8 88600240 		.word	1073897608
 267              		.cfi_endproc
 268              	.LFE131:
 270              		.section	.text.HAL_UART_MspDeInit,"ax",%progbits
 271              		.align	1
 272              		.global	HAL_UART_MspDeInit
 273              		.syntax unified
 274              		.thumb
 275              		.thumb_func
 276              		.fpu fpv4-sp-d16
 278              	HAL_UART_MspDeInit:
 279              	.LVL9:
 280              	.LFB132:
 108:Core/Src/usart.c **** 
 109:Core/Src/usart.c **** void HAL_UART_MspDeInit(UART_HandleTypeDef* uartHandle)
 110:Core/Src/usart.c **** {
 281              		.loc 1 110 1 view -0
 282              		.cfi_startproc
 283              		@ args = 0, pretend = 0, frame = 0
 284              		@ frame_needed = 0, uses_anonymous_args = 0
 111:Core/Src/usart.c **** 
 112:Core/Src/usart.c ****   if(uartHandle->Instance==USART2)
 285              		.loc 1 112 3 view .LVU85
 286              		.loc 1 112 16 is_stmt 0 view .LVU86
 287 0000 0268     		ldr	r2, [r0]
 288              		.loc 1 112 5 view .LVU87
 289 0002 094B     		ldr	r3, .L22
 290 0004 9A42     		cmp	r2, r3
 291 0006 00D0     		beq	.L21
 292 0008 7047     		bx	lr
 293              	.L21:
 110:Core/Src/usart.c **** 
 294              		.loc 1 110 1 view .LVU88
 295 000a 10B5     		push	{r4, lr}
 296              	.LCFI5:
ARM GAS  C:\Users\zacfi\AppData\Local\Temp\ccaX7Jgv.s 			page 9


 297              		.cfi_def_cfa_offset 8
 298              		.cfi_offset 4, -8
 299              		.cfi_offset 14, -4
 300 000c 0446     		mov	r4, r0
 113:Core/Src/usart.c ****   {
 114:Core/Src/usart.c ****   /* USER CODE BEGIN USART2_MspDeInit 0 */
 115:Core/Src/usart.c **** 
 116:Core/Src/usart.c ****   /* USER CODE END USART2_MspDeInit 0 */
 117:Core/Src/usart.c ****     /* Peripheral clock disable */
 118:Core/Src/usart.c ****     __HAL_RCC_USART2_CLK_DISABLE();
 301              		.loc 1 118 5 is_stmt 1 view .LVU89
 302 000e 074A     		ldr	r2, .L22+4
 303 0010 136C     		ldr	r3, [r2, #64]
 304 0012 23F40033 		bic	r3, r3, #131072
 305 0016 1364     		str	r3, [r2, #64]
 119:Core/Src/usart.c **** 
 120:Core/Src/usart.c ****     /**USART2 GPIO Configuration
 121:Core/Src/usart.c ****     PA2     ------> USART2_TX
 122:Core/Src/usart.c ****     PA3     ------> USART2_RX
 123:Core/Src/usart.c ****     */
 124:Core/Src/usart.c ****     HAL_GPIO_DeInit(GPIOA, USART_TX_Pin|USART_RX_Pin);
 306              		.loc 1 124 5 view .LVU90
 307 0018 0C21     		movs	r1, #12
 308 001a 0548     		ldr	r0, .L22+8
 309              	.LVL10:
 310              		.loc 1 124 5 is_stmt 0 view .LVU91
 311 001c FFF7FEFF 		bl	HAL_GPIO_DeInit
 312              	.LVL11:
 125:Core/Src/usart.c **** 
 126:Core/Src/usart.c ****     /* USART2 DMA DeInit */
 127:Core/Src/usart.c ****     HAL_DMA_DeInit(uartHandle->hdmarx);
 313              		.loc 1 127 5 is_stmt 1 view .LVU92
 314 0020 A06B     		ldr	r0, [r4, #56]
 315 0022 FFF7FEFF 		bl	HAL_DMA_DeInit
 316              	.LVL12:
 128:Core/Src/usart.c ****   /* USER CODE BEGIN USART2_MspDeInit 1 */
 129:Core/Src/usart.c **** 
 130:Core/Src/usart.c ****   /* USER CODE END USART2_MspDeInit 1 */
 131:Core/Src/usart.c ****   }
 132:Core/Src/usart.c **** }
 317              		.loc 1 132 1 is_stmt 0 view .LVU93
 318 0026 10BD     		pop	{r4, pc}
 319              	.LVL13:
 320              	.L23:
 321              		.loc 1 132 1 view .LVU94
 322              		.align	2
 323              	.L22:
 324 0028 00440040 		.word	1073759232
 325 002c 00380240 		.word	1073887232
 326 0030 00000240 		.word	1073872896
 327              		.cfi_endproc
 328              	.LFE132:
 330              		.global	hdma_usart2_rx
 331              		.global	huart2
 332              		.section	.bss.hdma_usart2_rx,"aw",%nobits
 333              		.align	2
 334              		.set	.LANCHOR1,. + 0
ARM GAS  C:\Users\zacfi\AppData\Local\Temp\ccaX7Jgv.s 			page 10


 337              	hdma_usart2_rx:
 338 0000 00000000 		.space	96
 338      00000000 
 338      00000000 
 338      00000000 
 338      00000000 
 339              		.section	.bss.huart2,"aw",%nobits
 340              		.align	2
 341              		.set	.LANCHOR0,. + 0
 344              	huart2:
 345 0000 00000000 		.space	68
 345      00000000 
 345      00000000 
 345      00000000 
 345      00000000 
 346              		.text
 347              	.Letext0:
 348              		.file 2 "c:\\gnu\\gnu_arm_embedded_toolchain\\10-2020-q4-major\\arm-none-eabi\\include\\machine\\_
 349              		.file 3 "c:\\gnu\\gnu_arm_embedded_toolchain\\10-2020-q4-major\\arm-none-eabi\\include\\sys\\_stdi
 350              		.file 4 "Drivers/CMSIS/Device/ST/STM32F4xx/Include/stm32f446xx.h"
 351              		.file 5 "Drivers/STM32F4xx_HAL_Driver/Inc/stm32f4xx_hal_def.h"
 352              		.file 6 "Drivers/STM32F4xx_HAL_Driver/Inc/stm32f4xx_hal_gpio.h"
 353              		.file 7 "Drivers/STM32F4xx_HAL_Driver/Inc/stm32f4xx_hal_dma.h"
 354              		.file 8 "Drivers/STM32F4xx_HAL_Driver/Inc/stm32f4xx_hal_uart.h"
 355              		.file 9 "Core/Inc/usart.h"
 356              		.file 10 "Core/Inc/main.h"
ARM GAS  C:\Users\zacfi\AppData\Local\Temp\ccaX7Jgv.s 			page 11

